---
triple:          'arm64-apple-darwin'
binary-path:     '/Users/florian.zaruba/work/tsunami/target/debug/deps/lib_engine.dylib'
relocations:
  - { offset: 0x1E, size: 0x8, addend: 0x0, symName: '__ZN4core3ops8function5impls80_$LT$impl$u20$core..ops..function..FnOnce$LT$A$GT$$u20$for$u20$$RF$mut$u20$F$GT$9call_once17h3d04e3a9b50dd7f5E', symObjAddr: 0x0, symBinAddr: 0x878, symSize: 0x34 }
  - { offset: 0x68, size: 0x8, addend: 0x0, symName: '__ZN4core3ops8function5impls80_$LT$impl$u20$core..ops..function..FnOnce$LT$A$GT$$u20$for$u20$$RF$mut$u20$F$GT$9call_once17h3d04e3a9b50dd7f5E', symObjAddr: 0x0, symBinAddr: 0x878, symSize: 0x34 }
  - { offset: 0x2DB, size: 0x8, addend: 0x0, symName: '__ZN4core4iter6traits8iterator8Iterator10max_by_key3key28_$u7b$$u7b$closure$u7d$$u7d$17hc6b27dac74da0be4E', symObjAddr: 0x34, symBinAddr: 0x8AC, symSize: 0x74 }
  - { offset: 0x336, size: 0x8, addend: 0x0, symName: __ZN4core4iter6traits8iterator8Iterator10max_by_key7compare17h3c5300121b1c2b86E, symObjAddr: 0xA8, symBinAddr: 0x920, symSize: 0x3C }
  - { offset: 0x3B6, size: 0x8, addend: 0x0, symName: '__ZN4core4iter6traits8iterator8Iterator12try_for_each4call28_$u7b$$u7b$closure$u7d$$u7d$17h3f849d6edf8985f7E', symObjAddr: 0xE4, symBinAddr: 0x95C, symSize: 0x2C }
  - { offset: 0x427, size: 0x8, addend: 0x0, symName: '__ZN4core4iter6traits8iterator8Iterator4find5check28_$u7b$$u7b$closure$u7d$$u7d$17h160b4a9b8bac3906E', symObjAddr: 0x110, symBinAddr: 0x988, symSize: 0x84 }
  - { offset: 0x483, size: 0x8, addend: 0x0, symName: '__ZN4core4iter6traits8iterator8Iterator4find5check28_$u7b$$u7b$closure$u7d$$u7d$17h2b610a11a32e065bE', symObjAddr: 0x194, symBinAddr: 0xA0C, symSize: 0x74 }
  - { offset: 0x4DF, size: 0x8, addend: 0x0, symName: '__ZN4core4iter6traits8iterator8Iterator4find5check28_$u7b$$u7b$closure$u7d$$u7d$17h421c20fca3a74923E', symObjAddr: 0x208, symBinAddr: 0xA80, symSize: 0x74 }
  - { offset: 0x53B, size: 0x8, addend: 0x0, symName: '__ZN4core4iter6traits8iterator8Iterator4find5check28_$u7b$$u7b$closure$u7d$$u7d$17h573ea3e4b71529b9E', symObjAddr: 0x27C, symBinAddr: 0xAF4, symSize: 0x74 }
  - { offset: 0x597, size: 0x8, addend: 0x0, symName: '__ZN4core4iter6traits8iterator8Iterator4find5check28_$u7b$$u7b$closure$u7d$$u7d$17hf32066ffb434a523E', symObjAddr: 0x2F0, symBinAddr: 0xB68, symSize: 0x74 }
  - { offset: 0x5FF, size: 0x8, addend: 0x0, symName: '__ZN4core4iter6traits8iterator8Iterator6max_by4fold28_$u7b$$u7b$closure$u7d$$u7d$17h2db8d7334f1e1862E', symObjAddr: 0x364, symBinAddr: 0xBDC, symSize: 0x34 }
  - { offset: 0x66D, size: 0x8, addend: 0x0, symName: '__ZN4core4iter6traits8iterator8Iterator8for_each4call28_$u7b$$u7b$closure$u7d$$u7d$17h319b1cbe07a5e722E', symObjAddr: 0x398, symBinAddr: 0xC10, symSize: 0x28 }
  - { offset: 0x6C5, size: 0x8, addend: 0x0, symName: '__ZN4core4iter6traits8iterator8Iterator8for_each4call28_$u7b$$u7b$closure$u7d$$u7d$17h33d77b2a467948d8E', symObjAddr: 0x3C0, symBinAddr: 0xC38, symSize: 0x40 }
  - { offset: 0x71E, size: 0x8, addend: 0x0, symName: '__ZN4core4iter6traits8iterator8Iterator8for_each4call28_$u7b$$u7b$closure$u7d$$u7d$17h422073cabdd54190E', symObjAddr: 0x400, symBinAddr: 0xC78, symSize: 0x3C }
  - { offset: 0x777, size: 0x8, addend: 0x0, symName: '__ZN4core4iter6traits8iterator8Iterator8for_each4call28_$u7b$$u7b$closure$u7d$$u7d$17h6ab9c437c5552ae6E', symObjAddr: 0x43C, symBinAddr: 0xCB4, symSize: 0x3C }
  - { offset: 0x7D0, size: 0x8, addend: 0x0, symName: '__ZN4core4iter6traits8iterator8Iterator8for_each4call28_$u7b$$u7b$closure$u7d$$u7d$17h6e9f689163bd50eaE', symObjAddr: 0x478, symBinAddr: 0xCF0, symSize: 0x2C }
  - { offset: 0x828, size: 0x8, addend: 0x0, symName: '__ZN4core4iter6traits8iterator8Iterator8for_each4call28_$u7b$$u7b$closure$u7d$$u7d$17h75772b12b0c4a9ebE', symObjAddr: 0x4A4, symBinAddr: 0xD1C, symSize: 0x28 }
  - { offset: 0x880, size: 0x8, addend: 0x0, symName: '__ZN4core4iter6traits8iterator8Iterator8for_each4call28_$u7b$$u7b$closure$u7d$$u7d$17had2c3d2b8b19f1beE', symObjAddr: 0x4CC, symBinAddr: 0xD44, symSize: 0x3C }
  - { offset: 0x8D9, size: 0x8, addend: 0x0, symName: '__ZN4core4iter6traits8iterator8Iterator8for_each4call28_$u7b$$u7b$closure$u7d$$u7d$17haf7b2a871ae80de4E', symObjAddr: 0x508, symBinAddr: 0xD80, symSize: 0x3C }
  - { offset: 0x932, size: 0x8, addend: 0x0, symName: '__ZN4core4iter6traits8iterator8Iterator8for_each4call28_$u7b$$u7b$closure$u7d$$u7d$17hc88212ca8ab6ca10E', symObjAddr: 0x544, symBinAddr: 0xDBC, symSize: 0x2C }
  - { offset: 0x98A, size: 0x8, addend: 0x0, symName: '__ZN4core4iter6traits8iterator8Iterator8for_each4call28_$u7b$$u7b$closure$u7d$$u7d$17hd059a89c34695f53E', symObjAddr: 0x570, symBinAddr: 0xDE8, symSize: 0x28 }
  - { offset: 0x9E2, size: 0x8, addend: 0x0, symName: '__ZN4core4iter6traits8iterator8Iterator8for_each4call28_$u7b$$u7b$closure$u7d$$u7d$17hf637b1716dbfca54E', symObjAddr: 0x598, symBinAddr: 0xE10, symSize: 0x28 }
  - { offset: 0x24D4, size: 0x8, addend: 0x0, symName: __ZN4core9panicking13assert_failed17hea3d13a2d09af0ceE, symObjAddr: 0x0, symBinAddr: 0x1B91C0, symSize: 0x3C }
  - { offset: 0x2538, size: 0x8, addend: 0x0, symName: __ZN4core9panicking13assert_failed17hea3d13a2d09af0ceE, symObjAddr: 0x0, symBinAddr: 0x1B91C0, symSize: 0x3C }
  - { offset: 0x2A51, size: 0x8, addend: 0x0, symName: '__ZN185_$LT$core..ops..control_flow..ControlFlow$LT$B$C$C$GT$$u20$as$u20$core..ops..try_trait..FromResidual$LT$core..ops..control_flow..ControlFlow$LT$B$C$core..convert..Infallible$GT$$GT$$GT$13from_residual17h19058183d849bc6eE', symObjAddr: 0x0, symBinAddr: 0xE38, symSize: 0x10 }
  - { offset: 0x2AF7, size: 0x8, addend: 0x0, symName: '__ZN185_$LT$core..ops..control_flow..ControlFlow$LT$B$C$C$GT$$u20$as$u20$core..ops..try_trait..FromResidual$LT$core..ops..control_flow..ControlFlow$LT$B$C$core..convert..Infallible$GT$$GT$$GT$13from_residual17h19058183d849bc6eE', symObjAddr: 0x0, symBinAddr: 0xE38, symSize: 0x10 }
  - { offset: 0x2B35, size: 0x8, addend: 0x0, symName: '__ZN185_$LT$core..ops..control_flow..ControlFlow$LT$B$C$C$GT$$u20$as$u20$core..ops..try_trait..FromResidual$LT$core..ops..control_flow..ControlFlow$LT$B$C$core..convert..Infallible$GT$$GT$$GT$13from_residual17h2df788a1583ec513E', symObjAddr: 0x10, symBinAddr: 0xE48, symSize: 0x20 }
  - { offset: 0x2B73, size: 0x8, addend: 0x0, symName: '__ZN185_$LT$core..ops..control_flow..ControlFlow$LT$B$C$C$GT$$u20$as$u20$core..ops..try_trait..FromResidual$LT$core..ops..control_flow..ControlFlow$LT$B$C$core..convert..Infallible$GT$$GT$$GT$13from_residual17h3d38db2139fb1d6aE', symObjAddr: 0x30, symBinAddr: 0xE68, symSize: 0x48 }
  - { offset: 0x2BB2, size: 0x8, addend: 0x0, symName: '__ZN185_$LT$core..ops..control_flow..ControlFlow$LT$B$C$C$GT$$u20$as$u20$core..ops..try_trait..FromResidual$LT$core..ops..control_flow..ControlFlow$LT$B$C$core..convert..Infallible$GT$$GT$$GT$13from_residual17ha793c5aa0758545cE', symObjAddr: 0x78, symBinAddr: 0xEB0, symSize: 0x14 }
  - { offset: 0x2BF0, size: 0x8, addend: 0x0, symName: '__ZN185_$LT$core..ops..control_flow..ControlFlow$LT$B$C$C$GT$$u20$as$u20$core..ops..try_trait..FromResidual$LT$core..ops..control_flow..ControlFlow$LT$B$C$core..convert..Infallible$GT$$GT$$GT$13from_residual17hcf29e11a47214580E', symObjAddr: 0x8C, symBinAddr: 0xEC4, symSize: 0x10 }
  - { offset: 0x2C2E, size: 0x8, addend: 0x0, symName: '__ZN185_$LT$core..ops..control_flow..ControlFlow$LT$B$C$C$GT$$u20$as$u20$core..ops..try_trait..FromResidual$LT$core..ops..control_flow..ControlFlow$LT$B$C$core..convert..Infallible$GT$$GT$$GT$13from_residual17hd17730100fe4816cE', symObjAddr: 0x9C, symBinAddr: 0xED4, symSize: 0x18 }
  - { offset: 0x2C77, size: 0x8, addend: 0x0, symName: __ZN4core3ops12control_flow11ControlFlow5Break17h1a70f60d06f6263fE, symObjAddr: 0xB4, symBinAddr: 0xEEC, symSize: 0x14 }
  - { offset: 0x2CB8, size: 0x8, addend: 0x0, symName: '__ZN95_$LT$core..ops..control_flow..ControlFlow$LT$B$C$C$GT$$u20$as$u20$core..ops..try_trait..Try$GT$11from_output17h69cb5d9e58edd067E', symObjAddr: 0xC8, symBinAddr: 0xF00, symSize: 0x10 }
  - { offset: 0x2CF6, size: 0x8, addend: 0x0, symName: '__ZN95_$LT$core..ops..control_flow..ControlFlow$LT$B$C$C$GT$$u20$as$u20$core..ops..try_trait..Try$GT$11from_output17h73fa277f30d6ae8eE', symObjAddr: 0xD8, symBinAddr: 0xF10, symSize: 0x10 }
  - { offset: 0x2D34, size: 0x8, addend: 0x0, symName: '__ZN95_$LT$core..ops..control_flow..ControlFlow$LT$B$C$C$GT$$u20$as$u20$core..ops..try_trait..Try$GT$11from_output17h7f99c4c516970f5cE', symObjAddr: 0xE8, symBinAddr: 0xF20, symSize: 0x10 }
  - { offset: 0x2D72, size: 0x8, addend: 0x0, symName: '__ZN95_$LT$core..ops..control_flow..ControlFlow$LT$B$C$C$GT$$u20$as$u20$core..ops..try_trait..Try$GT$11from_output17h7fdfc9ab013b2aacE', symObjAddr: 0xF8, symBinAddr: 0xF30, symSize: 0x10 }
  - { offset: 0x2DB0, size: 0x8, addend: 0x0, symName: '__ZN95_$LT$core..ops..control_flow..ControlFlow$LT$B$C$C$GT$$u20$as$u20$core..ops..try_trait..Try$GT$11from_output17h8ed49cf544b3a308E', symObjAddr: 0x108, symBinAddr: 0xF40, symSize: 0x20 }
  - { offset: 0x2DEE, size: 0x8, addend: 0x0, symName: '__ZN95_$LT$core..ops..control_flow..ControlFlow$LT$B$C$C$GT$$u20$as$u20$core..ops..try_trait..Try$GT$11from_output17he0a1894dc3f9b40eE', symObjAddr: 0x128, symBinAddr: 0xF60, symSize: 0x10 }
  - { offset: 0x2E2C, size: 0x8, addend: 0x0, symName: '__ZN95_$LT$core..ops..control_flow..ControlFlow$LT$B$C$C$GT$$u20$as$u20$core..ops..try_trait..Try$GT$6branch17h1d9d0e2e22d9e7acE', symObjAddr: 0x138, symBinAddr: 0xF70, symSize: 0x40 }
  - { offset: 0x2EA4, size: 0x8, addend: 0x0, symName: '__ZN95_$LT$core..ops..control_flow..ControlFlow$LT$B$C$C$GT$$u20$as$u20$core..ops..try_trait..Try$GT$6branch17h460c91ddc6f46794E', symObjAddr: 0x178, symBinAddr: 0xFB0, symSize: 0x98 }
  - { offset: 0x2F1D, size: 0x8, addend: 0x0, symName: '__ZN95_$LT$core..ops..control_flow..ControlFlow$LT$B$C$C$GT$$u20$as$u20$core..ops..try_trait..Try$GT$6branch17h60b9db332ae37598E', symObjAddr: 0x210, symBinAddr: 0x1048, symSize: 0x54 }
  - { offset: 0x2F95, size: 0x8, addend: 0x0, symName: '__ZN95_$LT$core..ops..control_flow..ControlFlow$LT$B$C$C$GT$$u20$as$u20$core..ops..try_trait..Try$GT$6branch17h86e80affb0b2c62eE', symObjAddr: 0x264, symBinAddr: 0x109C, symSize: 0x48 }
  - { offset: 0x300D, size: 0x8, addend: 0x0, symName: '__ZN95_$LT$core..ops..control_flow..ControlFlow$LT$B$C$C$GT$$u20$as$u20$core..ops..try_trait..Try$GT$6branch17h87f06eeb106b66c0E', symObjAddr: 0x2AC, symBinAddr: 0x10E4, symSize: 0x40 }
  - { offset: 0x3085, size: 0x8, addend: 0x0, symName: '__ZN95_$LT$core..ops..control_flow..ControlFlow$LT$B$C$C$GT$$u20$as$u20$core..ops..try_trait..Try$GT$6branch17hdc522ddc291ef0acE', symObjAddr: 0x2EC, symBinAddr: 0x1124, symSize: 0x40 }
  - { offset: 0x427E, size: 0x8, addend: 0x0, symName: __ZN10fst_reader6fastlz10decompress17h8271c6113d1540bbE, symObjAddr: 0x0, symBinAddr: 0x1164, symSize: 0x34C }
  - { offset: 0x4F3E, size: 0x8, addend: 0x0, symName: __ZN10fst_reader6fastlz10decompress17h8271c6113d1540bbE, symObjAddr: 0x0, symBinAddr: 0x1164, symSize: 0x34C }
  - { offset: 0x505D, size: 0x8, addend: 0x0, symName: __ZN10fst_reader6fastlz10decompress17hb253ba749e926f5bE, symObjAddr: 0x34C, symBinAddr: 0x14B0, symSize: 0x34C }
  - { offset: 0x517C, size: 0x8, addend: 0x0, symName: __ZN10fst_reader6fastlz11literal_run17h18e80e67f5f6d809E, symObjAddr: 0x698, symBinAddr: 0x17FC, symSize: 0x1A0 }
  - { offset: 0x5243, size: 0x8, addend: 0x0, symName: __ZN10fst_reader6fastlz11literal_run17h295fd8f0e1b9d64aE, symObjAddr: 0x838, symBinAddr: 0x199C, symSize: 0x1A0 }
  - { offset: 0x530A, size: 0x8, addend: 0x0, symName: __ZN10fst_reader6fastlz17decompress_level117h38940e7183aee211E, symObjAddr: 0x9D8, symBinAddr: 0x1B3C, symSize: 0x438 }
  - { offset: 0x543F, size: 0x8, addend: 0x0, symName: __ZN10fst_reader6fastlz17decompress_level117ha9e72c148a7a9983E, symObjAddr: 0xE10, symBinAddr: 0x1F74, symSize: 0x438 }
  - { offset: 0x5574, size: 0x8, addend: 0x0, symName: __ZN10fst_reader6fastlz17decompress_level217h4239846790e14b64E, symObjAddr: 0x1248, symBinAddr: 0x23AC, symSize: 0x6DC }
  - { offset: 0x576B, size: 0x8, addend: 0x0, symName: __ZN10fst_reader6fastlz17decompress_level217h51813e5c994c7871E, symObjAddr: 0x1924, symBinAddr: 0x2A88, symSize: 0x6DC }
  - { offset: 0x6187, size: 0x8, addend: 0x0, symName: '__ZN4pyo34sync20GILOnceCell$LT$T$GT$15get_or_try_init17hdebad6ac366c800aE', symObjAddr: 0x0, symBinAddr: 0x3164, symSize: 0xB4 }
  - { offset: 0x6322, size: 0x8, addend: 0x0, symName: '__ZN4pyo34sync20GILOnceCell$LT$T$GT$3set28_$u7b$$u7b$closure$u7d$$u7d$17h9c672ec730c7fbeaE', symObjAddr: 0x220, symBinAddr: 0x3384, symSize: 0x100 }
  - { offset: 0x7063, size: 0x8, addend: 0x0, symName: '__ZN4pyo34sync20GILOnceCell$LT$T$GT$15get_or_try_init17hdebad6ac366c800aE', symObjAddr: 0x0, symBinAddr: 0x3164, symSize: 0xB4 }
  - { offset: 0x70DC, size: 0x8, addend: 0x0, symName: '__ZN4pyo34sync20GILOnceCell$LT$T$GT$3get17h2512e146d0b36ecaE', symObjAddr: 0xB4, symBinAddr: 0x3218, symSize: 0xA8 }
  - { offset: 0x7120, size: 0x8, addend: 0x0, symName: '__ZN4pyo34sync20GILOnceCell$LT$T$GT$3set17h7a009f89a253dd58E', symObjAddr: 0x15C, symBinAddr: 0x32C0, symSize: 0xC4 }
  - { offset: 0x72B3, size: 0x8, addend: 0x0, symName: '__ZN4pyo34sync20GILOnceCell$LT$T$GT$4init17h5f801f1775e9e68bE', symObjAddr: 0x320, symBinAddr: 0x1B91FC, symSize: 0x188 }
  - { offset: 0x73B7, size: 0x8, addend: 0x0, symName: __ZN9hashbrown7control5group4neon5Group10match_full17hae68203b7a27ea3dE, symObjAddr: 0x0, symBinAddr: 0x3484, symSize: 0x68 }
  - { offset: 0x74CF, size: 0x8, addend: 0x0, symName: __ZN9hashbrown7control5group4neon5Group10match_full17hae68203b7a27ea3dE, symObjAddr: 0x0, symBinAddr: 0x3484, symSize: 0x68 }
  - { offset: 0x7507, size: 0x8, addend: 0x0, symName: __ZN9hashbrown7control5group4neon5Group22match_empty_or_deleted17h2d411a13959a2e63E, symObjAddr: 0x68, symBinAddr: 0x34EC, symSize: 0x68 }
  - { offset: 0x753F, size: 0x8, addend: 0x0, symName: __ZN9hashbrown7control5group4neon5Group44convert_special_to_empty_and_full_to_deleted17h00f65bd9b9dd49acE, symObjAddr: 0xD0, symBinAddr: 0x3554, symSize: 0x88 }
  - { offset: 0x7577, size: 0x8, addend: 0x0, symName: __ZN9hashbrown7control5group4neon5Group9match_tag17h516fca76fa6d41f8E, symObjAddr: 0x158, symBinAddr: 0x35DC, symSize: 0x7C }
  - { offset: 0x75E3, size: 0x8, addend: 0x0, symName: __ZN11miniz_oxide7inflate28decompress_to_vec_with_limit17h4909e9195352c566E, symObjAddr: 0x0, symBinAddr: 0x3658, symSize: 0x34 }
  - { offset: 0x763E, size: 0x8, addend: 0x0, symName: __ZN11miniz_oxide7inflate28decompress_to_vec_with_limit17h4909e9195352c566E, symObjAddr: 0x0, symBinAddr: 0x3658, symSize: 0x34 }
  - { offset: 0x7678, size: 0x8, addend: 0x0, symName: __ZN11miniz_oxide7inflate33decompress_to_vec_zlib_with_limit17h2cd57d81e6c20ab7E, symObjAddr: 0x34, symBinAddr: 0x368C, symSize: 0x34 }
  - { offset: 0x76B7, size: 0x8, addend: 0x0, symName: '__ZN70_$LT$miniz_oxide..inflate..TINFLStatus$u20$as$u20$core..fmt..Debug$GT$3fmt17h428d803cecdf8186E', symObjAddr: 0x68, symBinAddr: 0x36C0, symSize: 0x144 }
  - { offset: 0x76F7, size: 0x8, addend: 0x0, symName: '__ZN74_$LT$miniz_oxide..inflate..DecompressError$u20$as$u20$core..fmt..Debug$GT$3fmt17hed93d21efb2d3a0bE', symObjAddr: 0x1AC, symBinAddr: 0x3804, symSize: 0x84 }
  - { offset: 0x7AFD, size: 0x8, addend: 0x0, symName: '__ZN111_$LT$alloc..vec..Vec$LT$T$GT$$u20$as$u20$alloc..vec..spec_from_iter_nested..SpecFromIterNested$LT$T$C$I$GT$$GT$39from_iter$u7b$$u7b$reify.shim$u7d$$u7d$17h08af37cdf350a568E', symObjAddr: 0x0, symBinAddr: 0x3888, symSize: 0x1C }
  - { offset: 0xB06A, size: 0x8, addend: 0x0, symName: '__ZN4core3ptr101drop_in_place$LT$core..option..Option$LT$alloc..vec..Vec$LT$fst_reader..types..SignalInfo$GT$$GT$$GT$17heb40e57aaf502fc2E', symObjAddr: 0x1408, symBinAddr: 0x4C6C, symSize: 0x48 }
  - { offset: 0xB099, size: 0x8, addend: 0x0, symName: '__ZN4core3ptr101drop_in_place$LT$pyo3..pyclass_init..PyClassInitializerImpl$LT$_engine..query..WaveformHandle$GT$$GT$17h304f1751335f7527E', symObjAddr: 0x1450, symBinAddr: 0x4CB4, symSize: 0x50 }
  - { offset: 0xB0C8, size: 0x8, addend: 0x0, symName: '__ZN4core3ptr1023drop_in_place$LT$core..iter..adapters..map..map_fold$LT$$RF$alloc..string..String$C$alloc..string..String$C$$LP$$RP$$C$$LT$alloc..string..String$u20$as$u20$core..clone..Clone$GT$..clone$C$core..iter..adapters..map..map_fold$LT$alloc..string..String$C$wellen..hierarchy..HierarchyStringId$C$$LP$$RP$$C$wellen..ghw..hierarchy..read_hierarchy$LT$std..io..buffered..bufreader..BufReader$LT$std..fs..File$GT$$GT$..$u7b$$u7b$closure$u7d$$u7d$$C$core..iter..traits..iterator..Iterator..for_each..call$LT$wellen..hierarchy..HierarchyStringId$C$alloc..vec..Vec$LT$wellen..hierarchy..HierarchyStringId$GT$..extend_trusted$LT$core..iter..adapters..map..Map$LT$core..iter..adapters..cloned..Cloned$LT$core..slice..iter..Iter$LT$alloc..string..String$GT$$GT$$C$wellen..ghw..hierarchy..read_hierarchy$LT$std..io..buffered..bufreader..BufReader$LT$std..fs..File$GT$$GT$..$u7b$$u7b$closure$u7d$$u7d$$GT$$GT$..$u7b$$u7b$closure$u7d$$u7d$$GT$..$u7b$$u7b$closure$u7d$$u7d$$GT$..$u7b$$u7b$closure$u7d$$u7d$$GT$..$u7b$$u7b$closure$u7d$$u7d$$GT$17h2a59f6f456320ab1E', symObjAddr: 0x14A0, symBinAddr: 0x4D04, symSize: 0x24 }
  - { offset: 0xB0F7, size: 0x8, addend: 0x0, symName: '__ZN4core3ptr1024drop_in_place$LT$core..iter..adapters..map..map_fold$LT$$LP$alloc..string..String$C$alloc..string..String$RP$$C$$LP$wellen..hierarchy..HierarchyStringId$C$wellen..hierarchy..HierarchyStringId$RP$$C$$LP$$RP$$C$wellen..fst..read_hierarchy$LT$std..io..buffered..bufreader..BufReader$LT$std..fs..File$GT$$GT$..$u7b$$u7b$closure$u7d$$u7d$..$u7b$$u7b$closure$u7d$$u7d$$C$core..iter..traits..iterator..Iterator..for_each..call$LT$$LP$wellen..hierarchy..HierarchyStringId$C$wellen..hierarchy..HierarchyStringId$RP$$C$alloc..vec..Vec$LT$$LP$wellen..hierarchy..HierarchyStringId$C$wellen..hierarchy..HierarchyStringId$RP$$GT$..extend_trusted$LT$core..iter..adapters..map..Map$LT$alloc..vec..into_iter..IntoIter$LT$$LP$alloc..string..String$C$alloc..string..String$RP$$GT$$C$wellen..fst..read_hierarchy$LT$std..io..buffered..bufreader..BufReader$LT$std..fs..File$GT$$GT$..$u7b$$u7b$closure$u7d$$u7d$..$u7b$$u7b$closure$u7d$$u7d$$GT$$GT$..$u7b$$u7b$closure$u7d$$u7d$$GT$..$u7b$$u7b$closure$u7d$$u7d$$GT$..$u7b$$u7b$closure$u7d$$u7d$$GT$17h8802b72f31a96f55E', symObjAddr: 0x14C4, symBinAddr: 0x4D28, symSize: 0x24 }
  - { offset: 0xB126, size: 0x8, addend: 0x0, symName: '__ZN4core3ptr102drop_in_place$LT$alloc..boxed..Box$LT$$u5b$core..mem..maybe_uninit..MaybeUninit$LT$u8$GT$$u5d$$GT$$GT$17h519cd73c2e3024d8E', symObjAddr: 0x14E8, symBinAddr: 0x4D4C, symSize: 0x2C }
  - { offset: 0xB155, size: 0x8, addend: 0x0, symName: '__ZN4core3ptr103drop_in_place$LT$core..option..Option$LT$alloc..vec..Vec$LT$fst_reader..types..BlackoutData$GT$$GT$$GT$17h3b912452739b2362E', symObjAddr: 0x1514, symBinAddr: 0x4D78, symSize: 0x48 }
  - { offset: 0xB184, size: 0x8, addend: 0x0, symName: '__ZN4core3ptr103drop_in_place$LT$core..option..Option$LT$alloc..vec..Vec$LT$wellen..ghw..common..SectionPos$GT$$GT$$GT$17h80c154cfa0f369b0E', symObjAddr: 0x155C, symBinAddr: 0x4DC0, symSize: 0x48 }
  - { offset: 0xB1B3, size: 0x8, addend: 0x0, symName: '__ZN4core3ptr103drop_in_place$LT$hashbrown..raw..RawTable$LT$$LP$i64$C$wellen..hierarchy..HierarchyStringId$RP$$GT$$GT$17hac72522d290a88fcE', symObjAddr: 0x15A4, symBinAddr: 0x4E08, symSize: 0x24 }
  - { offset: 0xB1E2, size: 0x8, addend: 0x0, symName: '__ZN4core3ptr103drop_in_place$LT$hashbrown..raw..RawTable$LT$$LP$u64$C$wellen..hierarchy..HierarchyStringId$RP$$GT$$GT$17hdfe27b872620425dE', symObjAddr: 0x15C8, symBinAddr: 0x4E2C, symSize: 0x24 }
  - { offset: 0xB211, size: 0x8, addend: 0x0, symName: '__ZN4core3ptr1047drop_in_place$LT$core..iter..adapters..map..map_fold$LT$$LP$$RF$wellen..hierarchy..SignalRef$C$$RF$wellen..hierarchy..SignalEncoding$RP$$C$wellen..fst..SignalWriter$C$$LP$$RP$$C$$LT$wellen..fst..FstWaveDatabase$LT$std..io..buffered..bufreader..BufReader$LT$std..fs..File$GT$$GT$$u20$as$u20$wellen..signals..SignalSourceImplementation$GT$..load_signals..$u7b$$u7b$closure$u7d$$u7d$$C$core..iter..traits..iterator..Iterator..for_each..call$LT$wellen..fst..SignalWriter$C$alloc..vec..Vec$LT$wellen..fst..SignalWriter$GT$..extend_trusted$LT$core..iter..adapters..map..Map$LT$core..iter..adapters..zip..Zip$LT$core..slice..iter..Iter$LT$wellen..hierarchy..SignalRef$GT$$C$core..slice..iter..Iter$LT$wellen..hierarchy..SignalEncoding$GT$$GT$$C$$LT$wellen..fst..FstWaveDatabase$LT$std..io..buffered..bufreader..BufReader$LT$std..fs..File$GT$$GT$$u20$as$u20$wellen..signals..SignalSourceImplementation$GT$..load_signals..$u7b$$u7b$closure$u7d$$u7d$$GT$$GT$..$u7b$$u7b$closure$u7d$$u7d$$GT$..$u7b$$u7b$closure$u7d$$u7d$$GT$..$u7b$$u7b$closure$u7d$$u7d$$GT$17hdd90b8f178b9159dE', symObjAddr: 0x15EC, symBinAddr: 0x4E50, symSize: 0x24 }
  - { offset: 0xB240, size: 0x8, addend: 0x0, symName: '__ZN4core3ptr105drop_in_place$LT$alloc..raw_vec..RawVec$LT$pyo3..instance..Bound$LT$pyo3..types..dict..PyDict$GT$$GT$$GT$17heee89d8eab38c9f3E', symObjAddr: 0x1694, symBinAddr: 0x4E74, symSize: 0x24 }
  - { offset: 0xB26F, size: 0x8, addend: 0x0, symName: '__ZN4core3ptr106drop_in_place$LT$core..option..Option$LT$alloc..vec..Vec$LT$fst_reader..types..FstSignalHandle$GT$$GT$$GT$17hae3cac62ff7ba1e7E', symObjAddr: 0x16B8, symBinAddr: 0x4E98, symSize: 0x48 }
  - { offset: 0xB29E, size: 0x8, addend: 0x0, symName: '__ZN4core3ptr106drop_in_place$LT$core..option..Option$LT$pyo3..pycell..PyRef$LT$_engine..query..WaveformHandle$GT$$GT$$GT$17h64f623bae9c2309fE', symObjAddr: 0x1700, symBinAddr: 0x4EE0, symSize: 0x44 }
  - { offset: 0xB2CD, size: 0x8, addend: 0x0, symName: '__ZN4core3ptr106drop_in_place$LT$std..collections..hash..map..HashMap$LT$usize$C$usize$C$rustc_hash..FxBuildHasher$GT$$GT$17h175fd6e6f7edd753E', symObjAddr: 0x1744, symBinAddr: 0x4F24, symSize: 0x24 }
  - { offset: 0xB2FC, size: 0x8, addend: 0x0, symName: '__ZN4core3ptr1074drop_in_place$LT$core..iter..adapters..map..map_fold$LT$$LP$$RF$wellen..hierarchy..SignalRef$C$$RF$wellen..hierarchy..SignalEncoding$RP$$C$fst_reader..types..FstSignalHandle$C$$LP$$RP$$C$$LT$wellen..fst..FstWaveDatabase$LT$std..io..buffered..bufreader..BufReader$LT$std..fs..File$GT$$GT$$u20$as$u20$wellen..signals..SignalSourceImplementation$GT$..load_signals..$u7b$$u7b$closure$u7d$$u7d$$C$core..iter..traits..iterator..Iterator..for_each..call$LT$fst_reader..types..FstSignalHandle$C$alloc..vec..Vec$LT$fst_reader..types..FstSignalHandle$GT$..extend_trusted$LT$core..iter..adapters..map..Map$LT$core..iter..adapters..zip..Zip$LT$core..slice..iter..Iter$LT$wellen..hierarchy..SignalRef$GT$$C$core..slice..iter..Iter$LT$wellen..hierarchy..SignalEncoding$GT$$GT$$C$$LT$wellen..fst..FstWaveDatabase$LT$std..io..buffered..bufreader..BufReader$LT$std..fs..File$GT$$GT$$u20$as$u20$wellen..signals..SignalSourceImplementation$GT$..load_signals..$u7b$$u7b$closure$u7d$$u7d$$GT$$GT$..$u7b$$u7b$closure$u7d$$u7d$$GT$..$u7b$$u7b$closure$u7d$$u7d$$GT$..$u7b$$u7b$closure$u7d$$u7d$$GT$17hf5b5848ceb334f55E', symObjAddr: 0x1768, symBinAddr: 0x4F48, symSize: 0x24 }
  - { offset: 0xB32B, size: 0x8, addend: 0x0, symName: '__ZN4core3ptr107drop_in_place$LT$wellen..vcd..Input$LT$std..io..buffered..bufreader..BufReader$LT$std..fs..File$GT$$GT$$GT$17ha392cf26a796a968E', symObjAddr: 0x178C, symBinAddr: 0x4F6C, symSize: 0x58 }
  - { offset: 0xB35A, size: 0x8, addend: 0x0, symName: '__ZN4core3ptr108drop_in_place$LT$alloc..sync..Arc$LT$std..sync..poison..mutex..Mutex$LT$wellen..simple..Waveform$GT$$GT$$GT$17h04534bec93523bd7E', symObjAddr: 0x17E4, symBinAddr: 0x4FC4, symSize: 0x24 }
  - { offset: 0xB389, size: 0x8, addend: 0x0, symName: '__ZN4core3ptr108drop_in_place$LT$core..result..Result$LT$$LP$$RP$$C$alloc..borrow..Cow$LT$core..ffi..c_str..CStr$GT$$GT$$GT$17h7445ae3db52ab8e3E', symObjAddr: 0x1808, symBinAddr: 0x4FE8, symSize: 0x44 }
  - { offset: 0xB3B8, size: 0x8, addend: 0x0, symName: '__ZN4core3ptr109drop_in_place$LT$$LP$alloc..string..String$C$wellen..hierarchy..VarRef$C$wellen..hierarchy..SignalRef$RP$$GT$17h7efb25e647b000e1E', symObjAddr: 0x184C, symBinAddr: 0x502C, symSize: 0x24 }
  - { offset: 0xB3E7, size: 0x8, addend: 0x0, symName: '__ZN4core3ptr112drop_in_place$LT$hashbrown..raw..RawTable$LT$$LP$alloc..string..String$C$$RF$wellen..signals..Signal$RP$$GT$$GT$17hec284fe54d53ddd0E', symObjAddr: 0x1870, symBinAddr: 0x5050, symSize: 0x24 }
  - { offset: 0xB416, size: 0x8, addend: 0x0, symName: '__ZN4core3ptr113drop_in_place$LT$alloc..sync..ArcInner$LT$std..sync..poison..mutex..Mutex$LT$wellen..simple..Waveform$GT$$GT$$GT$17h87cf57cb82fd737fE', symObjAddr: 0x1894, symBinAddr: 0x5074, symSize: 0x24 }
  - { offset: 0xB445, size: 0x8, addend: 0x0, symName: '__ZN4core3ptr113drop_in_place$LT$alloc..vec..into_iter..IntoIter$LT$$LP$alloc..string..String$C$alloc..string..String$RP$$GT$$GT$17h578b848fe807d680E', symObjAddr: 0x18B8, symBinAddr: 0x5098, symSize: 0x24 }
  - { offset: 0xB474, size: 0x8, addend: 0x0, symName: '__ZN4core3ptr113drop_in_place$LT$hashbrown..raw..RawTable$LT$$LP$alloc..string..String$C$wellen..hierarchy..SignalRef$RP$$GT$$GT$17h91218b4a50d342d9E', symObjAddr: 0x18DC, symBinAddr: 0x50BC, symSize: 0x24 }
  - { offset: 0xB4A3, size: 0x8, addend: 0x0, symName: '__ZN4core3ptr114drop_in_place$LT$hashbrown..map..HashMap$LT$alloc..string..String$C$usize$C$std..hash..random..RandomState$GT$$GT$17ha4dd65bab2a3b27fE', symObjAddr: 0x1924, symBinAddr: 0x50E0, symSize: 0x24 }
  - { offset: 0xB4D2, size: 0x8, addend: 0x0, symName: '__ZN4core3ptr115drop_in_place$LT$hashbrown..map..HashMap$LT$u64$C$wellen..hierarchy..EnumTypeId$C$rustc_hash..FxBuildHasher$GT$$GT$17ha9ce9b5b2eca65c8E', symObjAddr: 0x1948, symBinAddr: 0x5104, symSize: 0x24 }
  - { offset: 0xB501, size: 0x8, addend: 0x0, symName: '__ZN4core3ptr115drop_in_place$LT$hashbrown..raw..RawTable$LT$$LP$wellen..hierarchy..SignalRef$C$wellen..signals..Signal$RP$$GT$$GT$17h2aefdaa3e2028251E', symObjAddr: 0x196C, symBinAddr: 0x5128, symSize: 0x24 }
  - { offset: 0xB530, size: 0x8, addend: 0x0, symName: '__ZN4core3ptr116drop_in_place$LT$std..collections..hash..map..HashMap$LT$alloc..string..String$C$$RF$wellen..signals..Signal$GT$$GT$17hdcab4087c5d4f012E', symObjAddr: 0x1990, symBinAddr: 0x514C, symSize: 0x24 }
  - { offset: 0xB55F, size: 0x8, addend: 0x0, symName: '__ZN4core3ptr117drop_in_place$LT$$LP$wellen..ghw..common..GhwSignals$C$alloc..vec..Vec$LT$wellen..ghw..common..GhwVecInfo$GT$$RP$$GT$17ha4588e4062fcee71E', symObjAddr: 0x19B4, symBinAddr: 0x5170, symSize: 0x60 }
  - { offset: 0xB58E, size: 0x8, addend: 0x0, symName: '__ZN4core3ptr117drop_in_place$LT$core..result..Result$LT$pyo3..instance..Py$LT$pyo3..types..any..PyAny$GT$$C$pyo3..err..PyErr$GT$$GT$17h3b5cf9c06de58de9E', symObjAddr: 0x1A14, symBinAddr: 0x51D0, symSize: 0x50 }
  - { offset: 0xB5BD, size: 0x8, addend: 0x0, symName: '__ZN4core3ptr117drop_in_place$LT$core..result..Result$LT$wellen..ghw..common..HeaderData$C$wellen..ghw..common..GhwParseError$GT$$GT$17h152c2e2f0135a21eE', symObjAddr: 0x1A64, symBinAddr: 0x5220, symSize: 0x44 }
  - { offset: 0xB5EC, size: 0x8, addend: 0x0, symName: '__ZN4core3ptr117drop_in_place$LT$fst_reader..reader..HeaderReader$LT$std..io..cursor..Cursor$LT$alloc..vec..Vec$LT$u8$GT$$GT$$GT$$GT$17h4018c9d7c5d50391E', symObjAddr: 0x1AA8, symBinAddr: 0x5264, symSize: 0x120 }
  - { offset: 0xB61B, size: 0x8, addend: 0x0, symName: '__ZN4core3ptr117drop_in_place$LT$hashbrown..raw..RawTable$LT$$LP$alloc..vec..Vec$LT$u8$GT$$C$wellen..hierarchy..SignalRef$RP$$GT$$GT$17h95acc4c3b84ecd90E', symObjAddr: 0x1BC8, symBinAddr: 0x5384, symSize: 0x24 }
  - { offset: 0xB64A, size: 0x8, addend: 0x0, symName: '__ZN4core3ptr117drop_in_place$LT$std..collections..hash..map..HashMap$LT$alloc..string..String$C$wellen..hierarchy..SignalRef$GT$$GT$17hce94102f7af278c8E', symObjAddr: 0x1BEC, symBinAddr: 0x53A8, symSize: 0x24 }
  - { offset: 0xB679, size: 0x8, addend: 0x0, symName: '__ZN4core3ptr117drop_in_place$LT$wellen..fst..FstWaveDatabase$LT$std..io..buffered..bufreader..BufReader$LT$std..fs..File$GT$$GT$$GT$17ha47bc3151b1175dbE', symObjAddr: 0x1C10, symBinAddr: 0x53CC, symSize: 0x24 }
  - { offset: 0xB6A8, size: 0x8, addend: 0x0, symName: '__ZN4core3ptr117drop_in_place$LT$wellen..ghw..ProgressTracker$LT$std..io..buffered..bufreader..BufReader$LT$std..fs..File$GT$$GT$$GT$17h4786c7275b97994aE', symObjAddr: 0x1C34, symBinAddr: 0x53F0, symSize: 0x60 }
  - { offset: 0xB6D7, size: 0x8, addend: 0x0, symName: '__ZN4core3ptr118drop_in_place$LT$fst_reader..reader..FstReader$LT$std..io..buffered..bufreader..BufReader$LT$std..fs..File$GT$$GT$$GT$17h46fdb87d0c4f55beE', symObjAddr: 0x1C94, symBinAddr: 0x5450, symSize: 0x5C }
  - { offset: 0xB706, size: 0x8, addend: 0x0, symName: '__ZN4core3ptr118drop_in_place$LT$wellen..viewers..ReadBodyData$LT$std..io..buffered..bufreader..BufReader$LT$std..fs..File$GT$$GT$$GT$17hf1319cd77a82d330E', symObjAddr: 0x1CF0, symBinAddr: 0x54AC, symSize: 0x74 }
  - { offset: 0xB735, size: 0x8, addend: 0x0, symName: '__ZN4core3ptr119drop_in_place$LT$$u5b$$LP$alloc..string..String$C$wellen..hierarchy..VarRef$C$wellen..hierarchy..SignalRef$RP$$u5d$$GT$17h5f6d442fbba1c8b6E', symObjAddr: 0x1D64, symBinAddr: 0x5520, symSize: 0xB4 }
  - { offset: 0xB764, size: 0x8, addend: 0x0, symName: '__ZN4core3ptr119drop_in_place$LT$core..ops..control_flow..ControlFlow$LT$pyo3..instance..Bound$LT$pyo3..types..dict..PyDict$GT$$GT$$GT$17h79cd5c4109bb6d75E', symObjAddr: 0x1E18, symBinAddr: 0x55D4, symSize: 0x44 }
  - { offset: 0xB793, size: 0x8, addend: 0x0, symName: '__ZN4core3ptr120drop_in_place$LT$alloc..collections..btree..map..BTreeMap$LT$u32$C$alloc..collections..btree..set_val..SetValZST$GT$$GT$17h862138139667f363E', symObjAddr: 0x1E5C, symBinAddr: 0x5618, symSize: 0x24 }
  - { offset: 0xB7C2, size: 0x8, addend: 0x0, symName: '__ZN4core3ptr120drop_in_place$LT$alloc..collections..btree..map..IntoIter$LT$u32$C$alloc..collections..btree..set_val..SetValZST$GT$$GT$17he2ef773248791a47E', symObjAddr: 0x1E80, symBinAddr: 0x563C, symSize: 0x24 }
  - { offset: 0xB7F1, size: 0x8, addend: 0x0, symName: '__ZN4core3ptr121drop_in_place$LT$core..option..Option$LT$core..result..Result$LT$core..convert..Infallible$C$pyo3..err..PyErr$GT$$GT$$GT$17h2bb0eecd2f270abeE', symObjAddr: 0x1EA4, symBinAddr: 0x5660, symSize: 0x40 }
  - { offset: 0xB820, size: 0x8, addend: 0x0, symName: '__ZN4core3ptr121drop_in_place$LT$fst_reader..reader..HeaderReader$LT$std..io..buffered..bufreader..BufReader$LT$std..fs..File$GT$$GT$$GT$17hb7f211c64e44ca94E', symObjAddr: 0x1EE4, symBinAddr: 0x56A0, symSize: 0x11C }
  - { offset: 0xB84F, size: 0x8, addend: 0x0, symName: '__ZN4core3ptr121drop_in_place$LT$fst_reader..reader..InputVariant$LT$std..io..buffered..bufreader..BufReader$LT$std..fs..File$GT$$GT$$GT$17h8c374472efba4573E', symObjAddr: 0x2000, symBinAddr: 0x57BC, symSize: 0x58 }
  - { offset: 0xB87E, size: 0x8, addend: 0x0, symName: '__ZN4core3ptr122drop_in_place$LT$alloc..vec..Vec$LT$$LP$wellen..ghw..hierarchy..TypeId$C$wellen..ghw..common..GhwWellKnownType$RP$$GT$$GT$17h4c8098f3faca2858E', symObjAddr: 0x2058, symBinAddr: 0x5814, symSize: 0x5C }
  - { offset: 0xB8AD, size: 0x8, addend: 0x0, symName: '__ZN4core3ptr122drop_in_place$LT$hashbrown..map..HashMap$LT$i64$C$wellen..hierarchy..HierarchyStringId$C$rustc_hash..FxBuildHasher$GT$$GT$17h494b297a5baf62a8E', symObjAddr: 0x20B4, symBinAddr: 0x5870, symSize: 0x24 }
  - { offset: 0xB8DC, size: 0x8, addend: 0x0, symName: '__ZN4core3ptr122drop_in_place$LT$hashbrown..map..HashMap$LT$u64$C$wellen..hierarchy..HierarchyStringId$C$rustc_hash..FxBuildHasher$GT$$GT$17h8366980ccb196f5eE', symObjAddr: 0x20D8, symBinAddr: 0x5894, symSize: 0x24 }
  - { offset: 0xB90B, size: 0x8, addend: 0x0, symName: '__ZN4core3ptr122drop_in_place$LT$wellen..fst..ReadBodyContinuation$LT$std..io..buffered..bufreader..BufReader$LT$std..fs..File$GT$$GT$$GT$17h2479d3d4278f928dE', symObjAddr: 0x20FC, symBinAddr: 0x58B8, symSize: 0x24 }
  - { offset: 0xB93A, size: 0x8, addend: 0x0, symName: '__ZN4core3ptr122drop_in_place$LT$wellen..ghw..ReadBodyContinuation$LT$std..io..buffered..bufreader..BufReader$LT$std..fs..File$GT$$GT$$GT$17h86ee1a019a6dd4cbE', symObjAddr: 0x2120, symBinAddr: 0x58DC, symSize: 0x60 }
  - { offset: 0xB969, size: 0x8, addend: 0x0, symName: '__ZN4core3ptr122drop_in_place$LT$wellen..vcd..ReadBodyContinuation$LT$std..io..buffered..bufreader..BufReader$LT$std..fs..File$GT$$GT$$GT$17hbab4e62e2f2680e0E', symObjAddr: 0x2180, symBinAddr: 0x593C, symSize: 0x64 }
  - { offset: 0xB998, size: 0x8, addend: 0x0, symName: '__ZN4core3ptr126drop_in_place$LT$wellen..viewers..ReadBodyContinuation$LT$std..io..buffered..bufreader..BufReader$LT$std..fs..File$GT$$GT$$GT$17h8695b8650a1763feE', symObjAddr: 0x21E4, symBinAddr: 0x59A0, symSize: 0x24 }
  - { offset: 0xB9C7, size: 0x8, addend: 0x0, symName: '__ZN4core3ptr127drop_in_place$LT$std..sync..poison..PoisonError$LT$std..sync..poison..mutex..MutexGuard$LT$wellen..simple..Waveform$GT$$GT$$GT$17hb0464ff3f584470dE', symObjAddr: 0x2208, symBinAddr: 0x59C4, symSize: 0x24 }
  - { offset: 0xB9F6, size: 0x8, addend: 0x0, symName: '__ZN4core3ptr128drop_in_place$LT$std..collections..hash..map..HashMap$LT$u64$C$wellen..hierarchy..EnumTypeId$C$rustc_hash..FxBuildHasher$GT$$GT$17h091473835c171659E', symObjAddr: 0x222C, symBinAddr: 0x59E8, symSize: 0x24 }
  - { offset: 0xBA25, size: 0x8, addend: 0x0, symName: '__ZN4core3ptr129drop_in_place$LT$alloc..raw_vec..RawVec$LT$$LP$wellen..ghw..hierarchy..TypeId$C$wellen..ghw..common..GhwWellKnownType$RP$$GT$$GT$17hbfd6d2b575264752E', symObjAddr: 0x2250, symBinAddr: 0x5A0C, symSize: 0x24 }
  - { offset: 0xBA54, size: 0x8, addend: 0x0, symName: '__ZN4core3ptr131drop_in_place$LT$alloc..vec..in_place_drop..InPlaceDstDataSrcBufDrop$LT$wellen..fst..SignalWriter$C$wellen..signals..Signal$GT$$GT$17he5c24276087b0bc2E', symObjAddr: 0x2274, symBinAddr: 0x5A30, symSize: 0x24 }
  - { offset: 0xBA83, size: 0x8, addend: 0x0, symName: '__ZN4core3ptr132drop_in_place$LT$alloc..vec..Vec$LT$$LP$alloc..string..String$C$wellen..hierarchy..VarRef$C$wellen..hierarchy..SignalRef$RP$$GT$$GT$17h868ecdbe7e045d29E', symObjAddr: 0x2298, symBinAddr: 0x5A54, symSize: 0x5C }
  - { offset: 0xBAB2, size: 0x8, addend: 0x0, symName: '__ZN4core3ptr133drop_in_place$LT$alloc..vec..into_iter..IntoIter$LT$$LP$wellen..ghw..hierarchy..StringId$C$wellen..ghw..hierarchy..TypeId$RP$$GT$$GT$17h89555d3603af2249E', symObjAddr: 0x22F4, symBinAddr: 0x5AB0, symSize: 0x24 }
  - { offset: 0xBAE1, size: 0x8, addend: 0x0, symName: '__ZN4core3ptr134drop_in_place$LT$hashbrown..map..HashMap$LT$wellen..hierarchy..SignalRef$C$wellen..signals..Signal$C$rustc_hash..FxBuildHasher$GT$$GT$17h71d6a2798e01865cE', symObjAddr: 0x2318, symBinAddr: 0x5AD4, symSize: 0x24 }
  - { offset: 0xBB10, size: 0x8, addend: 0x0, symName: '__ZN4core3ptr135drop_in_place$LT$std..collections..hash..map..HashMap$LT$i64$C$wellen..hierarchy..HierarchyStringId$C$rustc_hash..FxBuildHasher$GT$$GT$17hca8937817ffa187dE', symObjAddr: 0x233C, symBinAddr: 0x5AF8, symSize: 0x24 }
  - { offset: 0xBB3F, size: 0x8, addend: 0x0, symName: '__ZN4core3ptr135drop_in_place$LT$std..collections..hash..map..HashMap$LT$u64$C$wellen..hierarchy..HierarchyStringId$C$rustc_hash..FxBuildHasher$GT$$GT$17ha3b1613c3534cbc9E', symObjAddr: 0x2360, symBinAddr: 0x5B1C, symSize: 0x24 }
  - { offset: 0xBB6E, size: 0x8, addend: 0x0, symName: '__ZN4core3ptr136drop_in_place$LT$alloc..sync..Weak$LT$std..sync..poison..mutex..Mutex$LT$wellen..simple..Waveform$GT$$C$$RF$alloc..alloc..Global$GT$$GT$17h051f914d610dc572E', symObjAddr: 0x2384, symBinAddr: 0x5B40, symSize: 0x24 }
  - { offset: 0xBB9D, size: 0x8, addend: 0x0, symName: '__ZN4core3ptr136drop_in_place$LT$hashbrown..map..HashMap$LT$alloc..string..String$C$$RF$wellen..signals..Signal$C$std..hash..random..RandomState$GT$$GT$17h4b8415198c77fc24E', symObjAddr: 0x23A8, symBinAddr: 0x5B64, symSize: 0x24 }
  - { offset: 0xBBCC, size: 0x8, addend: 0x0, symName: '__ZN4core3ptr136drop_in_place$LT$hashbrown..map..HashMap$LT$alloc..vec..Vec$LT$u8$GT$$C$wellen..hierarchy..SignalRef$C$rustc_hash..FxBuildHasher$GT$$GT$17h16c75886c87af6faE', symObjAddr: 0x23CC, symBinAddr: 0x5B88, symSize: 0x24 }
  - { offset: 0xBBFB, size: 0x8, addend: 0x0, symName: '__ZN4core3ptr137drop_in_place$LT$hashbrown..map..HashMap$LT$alloc..string..String$C$wellen..hierarchy..SignalRef$C$std..hash..random..RandomState$GT$$GT$17h363f3d74a9fb80aaE', symObjAddr: 0x23F0, symBinAddr: 0x5BAC, symSize: 0x24 }
  - { offset: 0xBC2A, size: 0x8, addend: 0x0, symName: '__ZN4core3ptr138drop_in_place$LT$alloc..vec..into_iter..IntoIter$LT$$LP$wellen..ghw..hierarchy..TypeId$C$wellen..ghw..common..GhwWellKnownType$RP$$GT$$GT$17h6ac0e8f5531e32f2E', symObjAddr: 0x2414, symBinAddr: 0x5BD0, symSize: 0x24 }
  - { offset: 0xBC59, size: 0x8, addend: 0x0, symName: '__ZN4core3ptr139drop_in_place$LT$alloc..raw_vec..RawVec$LT$$LP$alloc..string..String$C$wellen..hierarchy..VarRef$C$wellen..hierarchy..SignalRef$RP$$GT$$GT$17hc4ff654e485179dcE', symObjAddr: 0x2438, symBinAddr: 0x5BF4, symSize: 0x24 }
  - { offset: 0xBC88, size: 0x8, addend: 0x0, symName: '__ZN4core3ptr145drop_in_place$LT$core..option..Option$LT$$LP$wellen..ghw..common..GhwSignals$C$alloc..vec..Vec$LT$wellen..ghw..common..GhwVecInfo$GT$$RP$$GT$$GT$17heaf95988110331b9E', symObjAddr: 0x245C, symBinAddr: 0x5C18, symSize: 0x48 }
  - { offset: 0xBCB7, size: 0x8, addend: 0x0, symName: '__ZN4core3ptr146drop_in_place$LT$alloc..boxed..Box$LT$alloc..collections..btree..node..LeafNode$LT$u32$C$alloc..collections..btree..set_val..SetValZST$GT$$GT$$GT$17h42e6955e86f96e7eE', symObjAddr: 0x24A4, symBinAddr: 0x5C60, symSize: 0x2C }
  - { offset: 0xBCE6, size: 0x8, addend: 0x0, symName: '__ZN4core3ptr147drop_in_place$LT$alloc..boxed..Box$LT$wellen..fst..ReadBodyContinuation$LT$std..io..buffered..bufreader..BufReader$LT$std..fs..File$GT$$GT$$GT$$GT$17hf0f5b8a218b88c58E', symObjAddr: 0x24D0, symBinAddr: 0x5C8C, symSize: 0x60 }
  - { offset: 0xBD15, size: 0x8, addend: 0x0, symName: '__ZN4core3ptr147drop_in_place$LT$alloc..boxed..Box$LT$wellen..ghw..ReadBodyContinuation$LT$std..io..buffered..bufreader..BufReader$LT$std..fs..File$GT$$GT$$GT$$GT$17hdee4a57e3eb1fa8dE', symObjAddr: 0x2530, symBinAddr: 0x5CEC, symSize: 0x60 }
  - { offset: 0xBD44, size: 0x8, addend: 0x0, symName: '__ZN4core3ptr147drop_in_place$LT$alloc..boxed..Box$LT$wellen..vcd..ReadBodyContinuation$LT$std..io..buffered..bufreader..BufReader$LT$std..fs..File$GT$$GT$$GT$$GT$17he16673a6e69a417fE', symObjAddr: 0x2590, symBinAddr: 0x5D4C, symSize: 0x60 }
  - { offset: 0xBD73, size: 0x8, addend: 0x0, symName: '__ZN4core3ptr147drop_in_place$LT$std..collections..hash..map..HashMap$LT$wellen..hierarchy..SignalRef$C$wellen..signals..Signal$C$rustc_hash..FxBuildHasher$GT$$GT$17he7773882951a0480E', symObjAddr: 0x25F0, symBinAddr: 0x5DAC, symSize: 0x24 }
  - { offset: 0xBDA2, size: 0x8, addend: 0x0, symName: '__ZN4core3ptr148drop_in_place$LT$core..option..Option$LT$core..result..Result$LT$pyo3..instance..Bound$LT$pyo3..types..any..PyAny$GT$$C$pyo3..err..PyErr$GT$$GT$$GT$17hbc8a98cb6417ecdbE', symObjAddr: 0x2614, symBinAddr: 0x5DD0, symSize: 0x44 }
  - { offset: 0xBDD1, size: 0x8, addend: 0x0, symName: '__ZN4core3ptr149drop_in_place$LT$std..collections..hash..map..HashMap$LT$alloc..vec..Vec$LT$u8$GT$$C$wellen..hierarchy..SignalRef$C$rustc_hash..FxBuildHasher$GT$$GT$17hc13ce6aab2f7615aE', symObjAddr: 0x2658, symBinAddr: 0x5E14, symSize: 0x24 }
  - { offset: 0xBE00, size: 0x8, addend: 0x0, symName: '__ZN4core3ptr150drop_in_place$LT$alloc..boxed..Box$LT$alloc..collections..btree..node..InternalNode$LT$u32$C$alloc..collections..btree..set_val..SetValZST$GT$$GT$$GT$17h6ec8e75944fa9a4fE', symObjAddr: 0x267C, symBinAddr: 0x5E38, symSize: 0x2C }
  - { offset: 0xBE2F, size: 0x8, addend: 0x0, symName: '__ZN4core3ptr175drop_in_place$LT$$LT$alloc..vec..into_iter..IntoIter$LT$T$C$A$GT$$u20$as$u20$core..ops..drop..Drop$GT$..drop..DropGuard$LT$alloc..string..String$C$alloc..alloc..Global$GT$$GT$17heb7e8a757d3b942aE', symObjAddr: 0x26A8, symBinAddr: 0x5E64, symSize: 0x24 }
  - { offset: 0xBE5E, size: 0x8, addend: 0x0, symName: '__ZN4core3ptr177drop_in_place$LT$core..option..Option$LT$std..collections..hash..map..HashMap$LT$alloc..vec..Vec$LT$u8$GT$$C$wellen..hierarchy..SignalRef$C$rustc_hash..FxBuildHasher$GT$$GT$$GT$17h93cf0c583f92f873E', symObjAddr: 0x26CC, symBinAddr: 0x5E88, symSize: 0x44 }
  - { offset: 0xBE8D, size: 0x8, addend: 0x0, symName: '__ZN4core3ptr179drop_in_place$LT$$LT$alloc..vec..into_iter..IntoIter$LT$T$C$A$GT$$u20$as$u20$core..ops..drop..Drop$GT$..drop..DropGuard$LT$wellen..fst..SignalWriter$C$alloc..alloc..Global$GT$$GT$17hba1d4e6643b9aa26E', symObjAddr: 0x2710, symBinAddr: 0x5ECC, symSize: 0x24 }
  - { offset: 0xBEBC, size: 0x8, addend: 0x0, symName: '__ZN4core3ptr187drop_in_place$LT$$LT$alloc..vec..into_iter..IntoIter$LT$T$C$A$GT$$u20$as$u20$core..ops..drop..Drop$GT$..drop..DropGuard$LT$wellen..ghw..hierarchy..AliasInfo$C$alloc..alloc..Global$GT$$GT$17hd4febdcaa5589cbdE', symObjAddr: 0x2734, symBinAddr: 0x5EF0, symSize: 0x24 }
  - { offset: 0xBEEB, size: 0x8, addend: 0x0, symName: '__ZN4core3ptr191drop_in_place$LT$$LT$T$u20$as$u20$alloc..slice..$LT$impl$u20$$u5b$T$u5d$$GT$..to_vec_in..ConvertVec$GT$..to_vec..DropGuard$LT$fst_reader..types..DataSectionInfo$C$alloc..alloc..Global$GT$$GT$17h2cfbc368177989acE', symObjAddr: 0x2758, symBinAddr: 0x5F14, symSize: 0x24 }
  - { offset: 0xBF1A, size: 0x8, addend: 0x0, symName: '__ZN4core3ptr207drop_in_place$LT$$LT$alloc..vec..into_iter..IntoIter$LT$T$C$A$GT$$u20$as$u20$core..ops..drop..Drop$GT$..drop..DropGuard$LT$$LP$alloc..string..String$C$alloc..string..String$RP$$C$alloc..alloc..Global$GT$$GT$17h98f4b8fddfd71fa2E', symObjAddr: 0x277C, symBinAddr: 0x5F38, symSize: 0x24 }
  - { offset: 0xBF49, size: 0x8, addend: 0x0, symName: '__ZN4core3ptr218drop_in_place$LT$$LT$alloc..collections..btree..map..IntoIter$LT$K$C$V$C$A$GT$$u20$as$u20$core..ops..drop..Drop$GT$..drop..DropGuard$LT$u32$C$alloc..collections..btree..set_val..SetValZST$C$alloc..alloc..Global$GT$$GT$17h20c8d92c7ba7707cE', symObjAddr: 0x27A0, symBinAddr: 0x5F5C, symSize: 0x24 }
  - { offset: 0xBF78, size: 0x8, addend: 0x0, symName: '__ZN4core3ptr227drop_in_place$LT$$LT$alloc..vec..into_iter..IntoIter$LT$T$C$A$GT$$u20$as$u20$core..ops..drop..Drop$GT$..drop..DropGuard$LT$$LP$wellen..ghw..hierarchy..StringId$C$wellen..ghw..hierarchy..TypeId$RP$$C$alloc..alloc..Global$GT$$GT$17hf4b0a1b4bdb58f98E', symObjAddr: 0x27C4, symBinAddr: 0x5F80, symSize: 0x24 }
  - { offset: 0xBFA7, size: 0x8, addend: 0x0, symName: '__ZN4core3ptr232drop_in_place$LT$$LT$alloc..vec..into_iter..IntoIter$LT$T$C$A$GT$$u20$as$u20$core..ops..drop..Drop$GT$..drop..DropGuard$LT$$LP$wellen..ghw..hierarchy..TypeId$C$wellen..ghw..common..GhwWellKnownType$RP$$C$alloc..alloc..Global$GT$$GT$17h8e5a7abf47c2b368E', symObjAddr: 0x27E8, symBinAddr: 0x5FA4, symSize: 0x24 }
  - { offset: 0xBFD6, size: 0x8, addend: 0x0, symName: '__ZN4core3ptr255drop_in_place$LT$alloc..vec..Vec$LT$alloc..string..String$GT$..extend_trusted$LT$core..iter..adapters..map..Map$LT$core..slice..iter..Iter$LT$$RF$str$GT$$C$_engine..predicate..scan_expr..$u7b$$u7b$closure$u7d$$u7d$$GT$$GT$..$u7b$$u7b$closure$u7d$$u7d$$GT$17h3f20b9a6a92080ebE', symObjAddr: 0x280C, symBinAddr: 0x5FC8, symSize: 0x24 }
  - { offset: 0xC005, size: 0x8, addend: 0x0, symName: '__ZN4core3ptr256drop_in_place$LT$alloc..vec..Vec$LT$alloc..string..String$GT$..extend_trusted$LT$core..iter..adapters..map..Map$LT$core..slice..iter..Iter$LT$$RF$str$GT$$C$_engine..query..resolve_signal..$u7b$$u7b$closure$u7d$$u7d$$GT$$GT$..$u7b$$u7b$closure$u7d$$u7d$$GT$17hb87e41acac5bfab2E', symObjAddr: 0x2830, symBinAddr: 0x5FEC, symSize: 0x24 }
  - { offset: 0xC034, size: 0x8, addend: 0x0, symName: '__ZN4core3ptr262drop_in_place$LT$alloc..vec..Vec$LT$alloc..string..String$GT$..extend_trusted$LT$core..iter..adapters..map..Map$LT$core..slice..iter..Iter$LT$$RF$str$GT$$C$_engine..summarise..summarize_signal..$u7b$$u7b$closure$u7d$$u7d$$GT$$GT$..$u7b$$u7b$closure$u7d$$u7d$$GT$17h7aa70c454c4ecd7aE', symObjAddr: 0x2854, symBinAddr: 0x6010, symSize: 0x24 }
  - { offset: 0xC063, size: 0x8, addend: 0x0, symName: '__ZN4core3ptr275drop_in_place$LT$alloc..vec..Vec$LT$u64$GT$..extend_trusted$LT$core..iter..adapters..map..Map$LT$core..slice..iter..Iter$LT$$LP$u64$C$u64$RP$$GT$$C$_engine..predicate..find_all..$u7b$$u7b$closure$u7d$$u7d$..$u7b$$u7b$closure$u7d$$u7d$$GT$$GT$..$u7b$$u7b$closure$u7d$$u7d$$GT$17hfb85ad5f04df3c89E', symObjAddr: 0x2878, symBinAddr: 0x6034, symSize: 0x24 }
  - { offset: 0xC092, size: 0x8, addend: 0x0, symName: '__ZN4core3ptr303drop_in_place$LT$alloc..collections..btree..node..Handle$LT$alloc..collections..btree..node..NodeRef$LT$alloc..collections..btree..node..marker..Dying$C$K$C$V$C$NodeType$GT$$C$alloc..collections..btree..node..marker..KV$GT$..drop_key_val..Dropper$LT$alloc..collections..btree..set_val..SetValZST$GT$$GT$17h8d99b41dc3464a87E', symObjAddr: 0x289C, symBinAddr: 0x6058, symSize: 0x24 }
  - { offset: 0xC0C1, size: 0x8, addend: 0x0, symName: '__ZN4core3ptr307drop_in_place$LT$core..iter..adapters..map..Map$LT$alloc..vec..into_iter..IntoIter$LT$$LP$alloc..string..String$C$alloc..string..String$RP$$GT$$C$wellen..fst..read_hierarchy$LT$std..io..buffered..bufreader..BufReader$LT$std..fs..File$GT$$GT$..$u7b$$u7b$closure$u7d$$u7d$..$u7b$$u7b$closure$u7d$$u7d$$GT$$GT$17h601330b3306c9425E', symObjAddr: 0x28C0, symBinAddr: 0x607C, symSize: 0x24 }
  - { offset: 0xC0F0, size: 0x8, addend: 0x0, symName: '__ZN4core3ptr312drop_in_place$LT$core..iter..adapters..map..Map$LT$std..collections..hash..map..IntoIter$LT$u64$C$usize$GT$$C$core..iter..traits..iterator..Iterator..max_by_key..key$LT$$LP$u64$C$usize$RP$$C$usize$C$_engine..summarise..compute_dominant_period..$u7b$$u7b$closure$u7d$$u7d$$GT$..$u7b$$u7b$closure$u7d$$u7d$$GT$$GT$17h2fb360e2e3d7a1acE', symObjAddr: 0x28E4, symBinAddr: 0x60A0, symSize: 0x24 }
  - { offset: 0xC11F, size: 0x8, addend: 0x0, symName: '__ZN4core3ptr328drop_in_place$LT$core..iter..adapters..map..Map$LT$alloc..vec..into_iter..IntoIter$LT$wellen..fst..SignalWriter$GT$$C$$LT$wellen..fst..FstWaveDatabase$LT$std..io..buffered..bufreader..BufReader$LT$std..fs..File$GT$$GT$$u20$as$u20$wellen..signals..SignalSourceImplementation$GT$..load_signals..$u7b$$u7b$closure$u7d$$u7d$$GT$$GT$17hedeafe55fd59f0ccE', symObjAddr: 0x2908, symBinAddr: 0x60C4, symSize: 0x24 }
  - { offset: 0xC14E, size: 0x8, addend: 0x0, symName: '__ZN4core3ptr34drop_in_place$LT$std..fs..File$GT$17ha24f1ccf4883700cE', symObjAddr: 0x292C, symBinAddr: 0x60E8, symSize: 0x24 }
  - { offset: 0xC17D, size: 0x8, addend: 0x0, symName: '__ZN4core3ptr370drop_in_place$LT$core..iter..traits..iterator..Iterator..for_each..call$LT$alloc..string..String$C$alloc..vec..Vec$LT$alloc..string..String$GT$..extend_trusted$LT$core..iter..adapters..map..Map$LT$core..slice..iter..Iter$LT$$RF$str$GT$$C$_engine..predicate..scan_expr..$u7b$$u7b$closure$u7d$$u7d$$GT$$GT$..$u7b$$u7b$closure$u7d$$u7d$$GT$..$u7b$$u7b$closure$u7d$$u7d$$GT$17h698e66d7b5a286f0E', symObjAddr: 0x2950, symBinAddr: 0x610C, symSize: 0x24 }
  - { offset: 0xC1AC, size: 0x8, addend: 0x0, symName: '__ZN4core3ptr371drop_in_place$LT$alloc..vec..Vec$LT$wellen..hierarchy..SignalRef$GT$..extend_trusted$LT$core..iter..adapters..map..Map$LT$core..slice..iter..Iter$LT$$LP$alloc..string..String$C$wellen..hierarchy..VarRef$C$wellen..hierarchy..SignalRef$RP$$GT$$C$_engine..query..get_snapshot..$u7b$$u7b$closure$u7d$$u7d$..$u7b$$u7b$closure$u7d$$u7d$$GT$$GT$..$u7b$$u7b$closure$u7d$$u7d$$GT$17ha3e4aee744d11a5fE', symObjAddr: 0x2974, symBinAddr: 0x6130, symSize: 0x24 }
  - { offset: 0xC1DB, size: 0x8, addend: 0x0, symName: '__ZN4core3ptr371drop_in_place$LT$core..iter..traits..iterator..Iterator..for_each..call$LT$alloc..string..String$C$alloc..vec..Vec$LT$alloc..string..String$GT$..extend_trusted$LT$core..iter..adapters..map..Map$LT$core..slice..iter..Iter$LT$$RF$str$GT$$C$_engine..query..resolve_signal..$u7b$$u7b$closure$u7d$$u7d$$GT$$GT$..$u7b$$u7b$closure$u7d$$u7d$$GT$..$u7b$$u7b$closure$u7d$$u7d$$GT$17h01bff3b1c9391f8eE', symObjAddr: 0x2998, symBinAddr: 0x6154, symSize: 0x24 }
  - { offset: 0xC20A, size: 0x8, addend: 0x0, symName: '__ZN4core3ptr372drop_in_place$LT$core..iter..traits..iterator..Iterator..for_each..call$LT$u64$C$alloc..vec..Vec$LT$u64$GT$..extend_trusted$LT$core..iter..adapters..map..Map$LT$core..slice..iter..Iter$LT$$LP$u64$C$u64$RP$$GT$$C$_engine..predicate..find_all..$u7b$$u7b$closure$u7d$$u7d$..$u7b$$u7b$closure$u7d$$u7d$$GT$$GT$..$u7b$$u7b$closure$u7d$$u7d$$GT$..$u7b$$u7b$closure$u7d$$u7d$$GT$17h586ed8c083567c82E', symObjAddr: 0x29BC, symBinAddr: 0x6178, symSize: 0x24 }
  - { offset: 0xC239, size: 0x8, addend: 0x0, symName: '__ZN4core3ptr377drop_in_place$LT$core..iter..traits..iterator..Iterator..for_each..call$LT$alloc..string..String$C$alloc..vec..Vec$LT$alloc..string..String$GT$..extend_trusted$LT$core..iter..adapters..map..Map$LT$core..slice..iter..Iter$LT$$RF$str$GT$$C$_engine..summarise..summarize_signal..$u7b$$u7b$closure$u7d$$u7d$$GT$$GT$..$u7b$$u7b$closure$u7d$$u7d$$GT$..$u7b$$u7b$closure$u7d$$u7d$$GT$17hc814fa49de5e1879E', symObjAddr: 0x29E0, symBinAddr: 0x619C, symSize: 0x24 }
  - { offset: 0xC268, size: 0x8, addend: 0x0, symName: '__ZN4core3ptr405drop_in_place$LT$alloc..vec..Vec$LT$wellen..hierarchy..HierarchyStringId$GT$..extend_trusted$LT$core..iter..adapters..map..Map$LT$core..iter..adapters..cloned..Cloned$LT$core..slice..iter..Iter$LT$alloc..string..String$GT$$GT$$C$wellen..ghw..hierarchy..read_hierarchy$LT$std..io..buffered..bufreader..BufReader$LT$std..fs..File$GT$$GT$..$u7b$$u7b$closure$u7d$$u7d$$GT$$GT$..$u7b$$u7b$closure$u7d$$u7d$$GT$17hede445473e70ea18E', symObjAddr: 0x2A04, symBinAddr: 0x61C0, symSize: 0x24 }
  - { offset: 0xC297, size: 0x8, addend: 0x0, symName: '__ZN4core3ptr40drop_in_place$LT$wellen..WellenError$GT$17h98a8738b0b1d476dE', symObjAddr: 0x2A28, symBinAddr: 0x61E4, symSize: 0x78 }
  - { offset: 0xC2C6, size: 0x8, addend: 0x0, symName: '__ZN4core3ptr45drop_in_place$LT$_engine..predicate..Expr$GT$17hc55e4e673934ac10E', symObjAddr: 0x2AA0, symBinAddr: 0x625C, symSize: 0x2B0 }
  - { offset: 0xC2F5, size: 0x8, addend: 0x0, symName: '__ZN4core3ptr45drop_in_place$LT$std..sys..fs..unix..File$GT$17hb5d35f864c622f0cE', symObjAddr: 0x2D50, symBinAddr: 0x650C, symSize: 0x24 }
  - { offset: 0xC324, size: 0x8, addend: 0x0, symName: '__ZN4core3ptr45drop_in_place$LT$wellen..simple..Waveform$GT$17hb4563f103353cf85E', symObjAddr: 0x2D74, symBinAddr: 0x6530, symSize: 0xC0 }
  - { offset: 0xC353, size: 0x8, addend: 0x0, symName: '__ZN4core3ptr466drop_in_place$LT$alloc..vec..Vec$LT$$LP$wellen..hierarchy..HierarchyStringId$C$wellen..hierarchy..HierarchyStringId$RP$$GT$..extend_trusted$LT$core..iter..adapters..map..Map$LT$alloc..vec..into_iter..IntoIter$LT$$LP$alloc..string..String$C$alloc..string..String$RP$$GT$$C$wellen..fst..read_hierarchy$LT$std..io..buffered..bufreader..BufReader$LT$std..fs..File$GT$$GT$..$u7b$$u7b$closure$u7d$$u7d$..$u7b$$u7b$closure$u7d$$u7d$$GT$$GT$..$u7b$$u7b$closure$u7d$$u7d$$GT$17heec60bec550d8fbcE', symObjAddr: 0x2E34, symBinAddr: 0x65F0, symSize: 0x24 }
  - { offset: 0xC382, size: 0x8, addend: 0x0, symName: '__ZN4core3ptr46drop_in_place$LT$fst_reader..types..Header$GT$17h6e8584031060e9e7E', symObjAddr: 0x2E58, symBinAddr: 0x6614, symSize: 0x60 }
  - { offset: 0xC3B1, size: 0x8, addend: 0x0, symName: '__ZN4core3ptr46drop_in_place$LT$wellen..fst..SignalWriter$GT$17h3469a7fc176dae8eE', symObjAddr: 0x2EB8, symBinAddr: 0x6674, symSize: 0x90 }
  - { offset: 0xC3E0, size: 0x8, addend: 0x0, symName: '__ZN4core3ptr47drop_in_place$LT$fst_reader..types..BitMask$GT$17h2fd42dbbfbc4e51eE', symObjAddr: 0x2F48, symBinAddr: 0x6704, symSize: 0x24 }
  - { offset: 0xC40F, size: 0x8, addend: 0x0, symName: '__ZN4core3ptr48drop_in_place$LT$fst_reader..io..OffsetTable$GT$17ha28e5c4345c22839E', symObjAddr: 0x2F6C, symBinAddr: 0x6728, symSize: 0x24 }
  - { offset: 0xC43E, size: 0x8, addend: 0x0, symName: '__ZN4core3ptr48drop_in_place$LT$std..os..fd..owned..OwnedFd$GT$17h5e78ac51bc7daf8aE', symObjAddr: 0x2F90, symBinAddr: 0x674C, symSize: 0x24 }
  - { offset: 0xC46D, size: 0x8, addend: 0x0, symName: '__ZN4core3ptr493drop_in_place$LT$core..iter..traits..iterator..Iterator..for_each..call$LT$wellen..hierarchy..SignalRef$C$alloc..vec..Vec$LT$wellen..hierarchy..SignalRef$GT$..extend_trusted$LT$core..iter..adapters..map..Map$LT$core..slice..iter..Iter$LT$$LP$alloc..string..String$C$wellen..hierarchy..VarRef$C$wellen..hierarchy..SignalRef$RP$$GT$$C$_engine..query..get_snapshot..$u7b$$u7b$closure$u7d$$u7d$..$u7b$$u7b$closure$u7d$$u7d$$GT$$GT$..$u7b$$u7b$closure$u7d$$u7d$$GT$..$u7b$$u7b$closure$u7d$$u7d$$GT$17hdee9ecd78d29ad9cE', symObjAddr: 0x2FB4, symBinAddr: 0x6770, symSize: 0x24 }
  - { offset: 0xC49C, size: 0x8, addend: 0x0, symName: '__ZN4core3ptr49drop_in_place$LT$fst_reader..reader..MetaData$GT$17h61da7bfe67d11972E', symObjAddr: 0x2FD8, symBinAddr: 0x6794, symSize: 0xF0 }
  - { offset: 0xC4CB, size: 0x8, addend: 0x0, symName: '__ZN4core3ptr49drop_in_place$LT$std..sys..fd..unix..FileDesc$GT$17h4f8629baf30eb3f8E', symObjAddr: 0x30C8, symBinAddr: 0x6884, symSize: 0x24 }
  - { offset: 0xC4FA, size: 0x8, addend: 0x0, symName: '__ZN4core3ptr50drop_in_place$LT$fst_reader..reader..FstFilter$GT$17h0a63e3e4c004c14fE', symObjAddr: 0x30EC, symBinAddr: 0x68A8, symSize: 0x24 }
  - { offset: 0xC529, size: 0x8, addend: 0x0, symName: '__ZN4core3ptr50drop_in_place$LT$fst_reader..reader..FstHeader$GT$17hb1dcedba752d545fE', symObjAddr: 0x3110, symBinAddr: 0x68CC, symSize: 0x60 }
  - { offset: 0xC558, size: 0x8, addend: 0x0, symName: '__ZN4core3ptr50drop_in_place$LT$fst_reader..types..DataFilter$GT$17h9b2bea1eefa4a9dbE', symObjAddr: 0x3170, symBinAddr: 0x692C, symSize: 0x24 }
  - { offset: 0xC587, size: 0x8, addend: 0x0, symName: '__ZN4core3ptr51drop_in_place$LT$_engine..query..WaveformHandle$GT$17hdc66d33d035abbd2E', symObjAddr: 0x3194, symBinAddr: 0x6950, symSize: 0x24 }
  - { offset: 0xC5B6, size: 0x8, addend: 0x0, symName: '__ZN4core3ptr529drop_in_place$LT$alloc..vec..Vec$LT$wellen..fst..SignalWriter$GT$..extend_trusted$LT$core..iter..adapters..map..Map$LT$core..iter..adapters..zip..Zip$LT$core..slice..iter..Iter$LT$wellen..hierarchy..SignalRef$GT$$C$core..slice..iter..Iter$LT$wellen..hierarchy..SignalEncoding$GT$$GT$$C$$LT$wellen..fst..FstWaveDatabase$LT$std..io..buffered..bufreader..BufReader$LT$std..fs..File$GT$$GT$$u20$as$u20$wellen..signals..SignalSourceImplementation$GT$..load_signals..$u7b$$u7b$closure$u7d$$u7d$$GT$$GT$..$u7b$$u7b$closure$u7d$$u7d$$GT$17h57e8fc560e0fad37E', symObjAddr: 0x31B8, symBinAddr: 0x6974, symSize: 0x24 }
  - { offset: 0xC5E5, size: 0x8, addend: 0x0, symName: '__ZN4core3ptr52drop_in_place$LT$_engine..summarise..AnomalyData$GT$17h06aa78af66f0cfdcE', symObjAddr: 0x31DC, symBinAddr: 0x6998, symSize: 0x60 }
  - { offset: 0xC614, size: 0x8, addend: 0x0, symName: '__ZN4core3ptr52drop_in_place$LT$_engine..summarise..SummaryData$GT$17hcd781571b42d0603E', symObjAddr: 0x323C, symBinAddr: 0x69F8, symSize: 0x64 }
  - { offset: 0xC643, size: 0x8, addend: 0x0, symName: '__ZN4core3ptr52drop_in_place$LT$wellen..ghw..common..GhwSignals$GT$17hee794350e9da0eafE', symObjAddr: 0x32A0, symBinAddr: 0x6A5C, symSize: 0x24 }
  - { offset: 0xC672, size: 0x8, addend: 0x0, symName: '__ZN4core3ptr52drop_in_place$LT$wellen..ghw..signals..VecBuffer$GT$17h11c0dfaa6a7c51c1E', symObjAddr: 0x32C4, symBinAddr: 0x6A80, symSize: 0xF0 }
  - { offset: 0xC6A1, size: 0x8, addend: 0x0, symName: '__ZN4core3ptr535drop_in_place$LT$core..iter..traits..iterator..Iterator..for_each..call$LT$wellen..hierarchy..HierarchyStringId$C$alloc..vec..Vec$LT$wellen..hierarchy..HierarchyStringId$GT$..extend_trusted$LT$core..iter..adapters..map..Map$LT$core..iter..adapters..cloned..Cloned$LT$core..slice..iter..Iter$LT$alloc..string..String$GT$$GT$$C$wellen..ghw..hierarchy..read_hierarchy$LT$std..io..buffered..bufreader..BufReader$LT$std..fs..File$GT$$GT$..$u7b$$u7b$closure$u7d$$u7d$$GT$$GT$..$u7b$$u7b$closure$u7d$$u7d$$GT$..$u7b$$u7b$closure$u7d$$u7d$$GT$17h20b7094a310aa3cdE', symObjAddr: 0x33B4, symBinAddr: 0x6B70, symSize: 0x24 }
  - { offset: 0xC6D0, size: 0x8, addend: 0x0, symName: '__ZN4core3ptr538drop_in_place$LT$alloc..vec..Vec$LT$fst_reader..types..FstSignalHandle$GT$..extend_trusted$LT$core..iter..adapters..map..Map$LT$core..iter..adapters..zip..Zip$LT$core..slice..iter..Iter$LT$wellen..hierarchy..SignalRef$GT$$C$core..slice..iter..Iter$LT$wellen..hierarchy..SignalEncoding$GT$$GT$$C$$LT$wellen..fst..FstWaveDatabase$LT$std..io..buffered..bufreader..BufReader$LT$std..fs..File$GT$$GT$$u20$as$u20$wellen..signals..SignalSourceImplementation$GT$..load_signals..$u7b$$u7b$closure$u7d$$u7d$$GT$$GT$..$u7b$$u7b$closure$u7d$$u7d$$GT$17h7c171917b528ce4fE', symObjAddr: 0x33D8, symBinAddr: 0x6B94, symSize: 0x24 }
  - { offset: 0xC6FF, size: 0x8, addend: 0x0, symName: '__ZN4core3ptr53drop_in_place$LT$$u5b$wellen..fst..Attribute$u5d$$GT$17h48748bb289c4c34fE', symObjAddr: 0x33FC, symBinAddr: 0x6BB8, symSize: 0xB4 }
  - { offset: 0xC72E, size: 0x8, addend: 0x0, symName: '__ZN4core3ptr54drop_in_place$LT$wellen..ghw..hierarchy..GhwTables$GT$17h5cafff7117828818E', symObjAddr: 0x34D4, symBinAddr: 0x6C6C, symSize: 0x90 }
  - { offset: 0xC75D, size: 0x8, addend: 0x0, symName: '__ZN4core3ptr552drop_in_place$LT$core..iter..adapters..map..map_fold$LT$$RF$$RF$str$C$alloc..string..String$C$$LP$$RP$$C$_engine..predicate..scan_expr..$u7b$$u7b$closure$u7d$$u7d$$C$core..iter..traits..iterator..Iterator..for_each..call$LT$alloc..string..String$C$alloc..vec..Vec$LT$alloc..string..String$GT$..extend_trusted$LT$core..iter..adapters..map..Map$LT$core..slice..iter..Iter$LT$$RF$str$GT$$C$_engine..predicate..scan_expr..$u7b$$u7b$closure$u7d$$u7d$$GT$$GT$..$u7b$$u7b$closure$u7d$$u7d$$GT$..$u7b$$u7b$closure$u7d$$u7d$$GT$..$u7b$$u7b$closure$u7d$$u7d$$GT$17h1affc18718ef4be2E', symObjAddr: 0x3564, symBinAddr: 0x6CFC, symSize: 0x24 }
  - { offset: 0xC78C, size: 0x8, addend: 0x0, symName: '__ZN4core3ptr554drop_in_place$LT$core..iter..adapters..map..map_fold$LT$$RF$$RF$str$C$alloc..string..String$C$$LP$$RP$$C$_engine..query..resolve_signal..$u7b$$u7b$closure$u7d$$u7d$$C$core..iter..traits..iterator..Iterator..for_each..call$LT$alloc..string..String$C$alloc..vec..Vec$LT$alloc..string..String$GT$..extend_trusted$LT$core..iter..adapters..map..Map$LT$core..slice..iter..Iter$LT$$RF$str$GT$$C$_engine..query..resolve_signal..$u7b$$u7b$closure$u7d$$u7d$$GT$$GT$..$u7b$$u7b$closure$u7d$$u7d$$GT$..$u7b$$u7b$closure$u7d$$u7d$$GT$..$u7b$$u7b$closure$u7d$$u7d$$GT$17hcbaf8ad958bc6ba7E', symObjAddr: 0x3588, symBinAddr: 0x6D20, symSize: 0x24 }
  - { offset: 0xC7BB, size: 0x8, addend: 0x0, symName: '__ZN4core3ptr566drop_in_place$LT$core..iter..adapters..map..map_fold$LT$$RF$$RF$str$C$alloc..string..String$C$$LP$$RP$$C$_engine..summarise..summarize_signal..$u7b$$u7b$closure$u7d$$u7d$$C$core..iter..traits..iterator..Iterator..for_each..call$LT$alloc..string..String$C$alloc..vec..Vec$LT$alloc..string..String$GT$..extend_trusted$LT$core..iter..adapters..map..Map$LT$core..slice..iter..Iter$LT$$RF$str$GT$$C$_engine..summarise..summarize_signal..$u7b$$u7b$closure$u7d$$u7d$$GT$$GT$..$u7b$$u7b$closure$u7d$$u7d$$GT$..$u7b$$u7b$closure$u7d$$u7d$$GT$..$u7b$$u7b$closure$u7d$$u7d$$GT$17h24e17ce039d22414E', symObjAddr: 0x35AC, symBinAddr: 0x6D44, symSize: 0x24 }
  - { offset: 0xC7EA, size: 0x8, addend: 0x0, symName: '__ZN4core3ptr56drop_in_place$LT$$u5b$wellen..fst..SignalWriter$u5d$$GT$17h3de8191f8e9c8a03E', symObjAddr: 0x35D0, symBinAddr: 0x6D68, symSize: 0xC4 }
  - { offset: 0xC819, size: 0x8, addend: 0x0, symName: '__ZN4core3ptr574drop_in_place$LT$core..iter..adapters..map..map_fold$LT$$RF$$LP$u64$C$u64$RP$$C$u64$C$$LP$$RP$$C$_engine..predicate..find_all..$u7b$$u7b$closure$u7d$$u7d$..$u7b$$u7b$closure$u7d$$u7d$$C$core..iter..traits..iterator..Iterator..for_each..call$LT$u64$C$alloc..vec..Vec$LT$u64$GT$..extend_trusted$LT$core..iter..adapters..map..Map$LT$core..slice..iter..Iter$LT$$LP$u64$C$u64$RP$$GT$$C$_engine..predicate..find_all..$u7b$$u7b$closure$u7d$$u7d$..$u7b$$u7b$closure$u7d$$u7d$$GT$$GT$..$u7b$$u7b$closure$u7d$$u7d$$GT$..$u7b$$u7b$closure$u7d$$u7d$$GT$..$u7b$$u7b$closure$u7d$$u7d$$GT$17h18987beb4484b4c6E', symObjAddr: 0x3694, symBinAddr: 0x6E2C, symSize: 0x24 }
  - { offset: 0xC848, size: 0x8, addend: 0x0, symName: '__ZN4core3ptr57drop_in_place$LT$fst_reader..types..FstHierarchyEntry$GT$17hcb0eeabde80e34feE', symObjAddr: 0x36B8, symBinAddr: 0x6E50, symSize: 0x150 }
  - { offset: 0xC877, size: 0x8, addend: 0x0, symName: '__ZN4core3ptr58drop_in_place$LT$$LP$alloc..string..String$C$usize$RP$$GT$17h234ac139ada33668E', symObjAddr: 0x3808, symBinAddr: 0x6FA0, symSize: 0x24 }
  - { offset: 0xC8A6, size: 0x8, addend: 0x0, symName: '__ZN4core3ptr61drop_in_place$LT$alloc..vec..Vec$LT$$LP$u64$C$u64$RP$$GT$$GT$17h5e8f54cb58f28f50E', symObjAddr: 0x3850, symBinAddr: 0x6FC4, symSize: 0x5C }
  - { offset: 0xC8D5, size: 0x8, addend: 0x0, symName: '__ZN4core3ptr61drop_in_place$LT$wellen..ghw..hierarchy..GhwSignalTracker$GT$17hb2c1d707676451adE', symObjAddr: 0x38AC, symBinAddr: 0x7020, symSize: 0x90 }
  - { offset: 0xC904, size: 0x8, addend: 0x0, symName: '__ZN4core3ptr62drop_in_place$LT$$u5b$_engine..summarise..AnomalyData$u5d$$GT$17h93b3f7976fe0569aE', symObjAddr: 0x393C, symBinAddr: 0x70B0, symSize: 0xC4 }
  - { offset: 0xC933, size: 0x8, addend: 0x0, symName: '__ZN4core3ptr63drop_in_place$LT$$u5b$wellen..ghw..hierarchy..VhdlType$u5d$$GT$17h0541acf835acfcc4E', symObjAddr: 0x3A00, symBinAddr: 0x7174, symSize: 0xC4 }
  - { offset: 0xC962, size: 0x8, addend: 0x0, symName: '__ZN4core3ptr643drop_in_place$LT$core..iter..traits..iterator..Iterator..for_each..call$LT$$LP$wellen..hierarchy..HierarchyStringId$C$wellen..hierarchy..HierarchyStringId$RP$$C$alloc..vec..Vec$LT$$LP$wellen..hierarchy..HierarchyStringId$C$wellen..hierarchy..HierarchyStringId$RP$$GT$..extend_trusted$LT$core..iter..adapters..map..Map$LT$alloc..vec..into_iter..IntoIter$LT$$LP$alloc..string..String$C$alloc..string..String$RP$$GT$$C$wellen..fst..read_hierarchy$LT$std..io..buffered..bufreader..BufReader$LT$std..fs..File$GT$$GT$..$u7b$$u7b$closure$u7d$$u7d$..$u7b$$u7b$closure$u7d$$u7d$$GT$$GT$..$u7b$$u7b$closure$u7d$$u7d$$GT$..$u7b$$u7b$closure$u7d$$u7d$$GT$17h126c643dcfa11727E', symObjAddr: 0x3AC4, symBinAddr: 0x7238, symSize: 0x24 }
  - { offset: 0xC991, size: 0x8, addend: 0x0, symName: '__ZN4core3ptr648drop_in_place$LT$core..iter..traits..iterator..Iterator..for_each..call$LT$wellen..fst..SignalWriter$C$alloc..vec..Vec$LT$wellen..fst..SignalWriter$GT$..extend_trusted$LT$core..iter..adapters..map..Map$LT$core..iter..adapters..zip..Zip$LT$core..slice..iter..Iter$LT$wellen..hierarchy..SignalRef$GT$$C$core..slice..iter..Iter$LT$wellen..hierarchy..SignalEncoding$GT$$GT$$C$$LT$wellen..fst..FstWaveDatabase$LT$std..io..buffered..bufreader..BufReader$LT$std..fs..File$GT$$GT$$u20$as$u20$wellen..signals..SignalSourceImplementation$GT$..load_signals..$u7b$$u7b$closure$u7d$$u7d$$GT$$GT$..$u7b$$u7b$closure$u7d$$u7d$$GT$..$u7b$$u7b$closure$u7d$$u7d$$GT$17h8a011e484e95ac4cE', symObjAddr: 0x3AE8, symBinAddr: 0x725C, symSize: 0x24 }
  - { offset: 0xC9C0, size: 0x8, addend: 0x0, symName: '__ZN4core3ptr64drop_in_place$LT$hashbrown..map..IntoIter$LT$u64$C$usize$GT$$GT$17hacaa93cfd6ae560cE', symObjAddr: 0x3B0C, symBinAddr: 0x7280, symSize: 0x24 }
  - { offset: 0xC9EF, size: 0x8, addend: 0x0, symName: '__ZN4core3ptr65drop_in_place$LT$std..io..buffered..bufreader..buffer..Buffer$GT$17he4ed8fe6c0fcc8edE', symObjAddr: 0x3B8C, symBinAddr: 0x72A4, symSize: 0x24 }
  - { offset: 0xCA1E, size: 0x8, addend: 0x0, symName: '__ZN4core3ptr666drop_in_place$LT$core..iter..traits..iterator..Iterator..for_each..call$LT$fst_reader..types..FstSignalHandle$C$alloc..vec..Vec$LT$fst_reader..types..FstSignalHandle$GT$..extend_trusted$LT$core..iter..adapters..map..Map$LT$core..iter..adapters..zip..Zip$LT$core..slice..iter..Iter$LT$wellen..hierarchy..SignalRef$GT$$C$core..slice..iter..Iter$LT$wellen..hierarchy..SignalEncoding$GT$$GT$$C$$LT$wellen..fst..FstWaveDatabase$LT$std..io..buffered..bufreader..BufReader$LT$std..fs..File$GT$$GT$$u20$as$u20$wellen..signals..SignalSourceImplementation$GT$..load_signals..$u7b$$u7b$closure$u7d$$u7d$$GT$$GT$..$u7b$$u7b$closure$u7d$$u7d$$GT$..$u7b$$u7b$closure$u7d$$u7d$$GT$17hd89cbe290b5cead0E', symObjAddr: 0x3BB0, symBinAddr: 0x72C8, symSize: 0x24 }
  - { offset: 0xCA4D, size: 0x8, addend: 0x0, symName: '__ZN4core3ptr66drop_in_place$LT$alloc..vec..Vec$LT$wellen..fst..Attribute$GT$$GT$17hb137fb393832d89dE', symObjAddr: 0x3BD4, symBinAddr: 0x72EC, symSize: 0x5C }
  - { offset: 0xCA7C, size: 0x8, addend: 0x0, symName: '__ZN4core3ptr68drop_in_place$LT$alloc..raw_vec..RawVec$LT$$LP$u64$C$u64$RP$$GT$$GT$17hb24fc32e4bcb17d3E', symObjAddr: 0x3C30, symBinAddr: 0x7348, symSize: 0x24 }
  - { offset: 0xCAAB, size: 0x8, addend: 0x0, symName: '__ZN4core3ptr69drop_in_place$LT$alloc..borrow..Cow$LT$core..ffi..c_str..CStr$GT$$GT$17ha2f6e7cb1cbba46cE', symObjAddr: 0x3C54, symBinAddr: 0x736C, symSize: 0x40 }
  - { offset: 0xCADA, size: 0x8, addend: 0x0, symName: '__ZN4core3ptr69drop_in_place$LT$alloc..vec..Vec$LT$wellen..fst..SignalWriter$GT$$GT$17h067dc6f8d45198b7E', symObjAddr: 0x3C94, symBinAddr: 0x73AC, symSize: 0x5C }
  - { offset: 0xCB09, size: 0x8, addend: 0x0, symName: '__ZN4core3ptr70drop_in_place$LT$alloc..boxed..Box$LT$_engine..predicate..Expr$GT$$GT$17heea10c1de9a94d67E', symObjAddr: 0x3CF0, symBinAddr: 0x7408, symSize: 0x60 }
  - { offset: 0xCB38, size: 0x8, addend: 0x0, symName: '__ZN4core3ptr72drop_in_place$LT$alloc..collections..btree..mem..replace..PanicGuard$GT$17hd8df9fee92d28128E', symObjAddr: 0x3D50, symBinAddr: 0x7468, symSize: 0x24 }
  - { offset: 0xCB67, size: 0x8, addend: 0x0, symName: '__ZN4core3ptr72drop_in_place$LT$alloc..collections..btree..set..BTreeSet$LT$u32$GT$$GT$17h8a43c83157b2d26bE', symObjAddr: 0x3D74, symBinAddr: 0x748C, symSize: 0x24 }
  - { offset: 0xCB96, size: 0x8, addend: 0x0, symName: '__ZN4core3ptr72drop_in_place$LT$alloc..collections..btree..set..IntoIter$LT$u32$GT$$GT$17hd4e8f2b007962839E', symObjAddr: 0x3D98, symBinAddr: 0x74B0, symSize: 0x24 }
  - { offset: 0xCBC5, size: 0x8, addend: 0x0, symName: '__ZN4core3ptr72drop_in_place$LT$hashbrown..raw..RawTable$LT$$LP$u64$C$usize$RP$$GT$$GT$17h6e4b79f8b322e0a1E', symObjAddr: 0x3DE0, symBinAddr: 0x74D4, symSize: 0x24 }
  - { offset: 0xCBF4, size: 0x8, addend: 0x0, symName: '__ZN4core3ptr73drop_in_place$LT$alloc..raw_vec..RawVec$LT$wellen..fst..Attribute$GT$$GT$17hcb68e56a63448ad2E', symObjAddr: 0x3E04, symBinAddr: 0x74F8, symSize: 0x24 }
  - { offset: 0xCC23, size: 0x8, addend: 0x0, symName: '__ZN4core3ptr73drop_in_place$LT$alloc..vec..Vec$LT$fst_reader..types..SignalInfo$GT$$GT$17h6cf0a89b6b57d6cfE', symObjAddr: 0x3E28, symBinAddr: 0x751C, symSize: 0x5C }
  - { offset: 0xCC52, size: 0x8, addend: 0x0, symName: '__ZN4core3ptr73drop_in_place$LT$core..result..Result$LT$usize$C$pyo3..err..PyErr$GT$$GT$17hdffe5831c1de3adbE', symObjAddr: 0x3E84, symBinAddr: 0x7578, symSize: 0x40 }
  - { offset: 0xCC81, size: 0x8, addend: 0x0, symName: '__ZN4core3ptr74drop_in_place$LT$alloc..vec..Vec$LT$wellen..ghw..hierarchy..TypeId$GT$$GT$17h2634999ffbbffc29E', symObjAddr: 0x3EC4, symBinAddr: 0x75B8, symSize: 0x5C }
  - { offset: 0xCCB0, size: 0x8, addend: 0x0, symName: '__ZN4core3ptr74drop_in_place$LT$core..option..Option$LT$fst_reader..types..Header$GT$$GT$17he9aa3f5f898f9d60E', symObjAddr: 0x3F20, symBinAddr: 0x7614, symSize: 0x48 }
  - { offset: 0xCCDF, size: 0x8, addend: 0x0, symName: '__ZN4core3ptr74drop_in_place$LT$hashbrown..raw..RawTable$LT$$LP$usize$C$usize$RP$$GT$$GT$17hdfadcd59649aeb80E', symObjAddr: 0x3F68, symBinAddr: 0x765C, symSize: 0x24 }
  - { offset: 0xCD0E, size: 0x8, addend: 0x0, symName: '__ZN4core3ptr75drop_in_place$LT$alloc..vec..Vec$LT$_engine..summarise..AnomalyData$GT$$GT$17hfe8fd771614db4baE', symObjAddr: 0x3F8C, symBinAddr: 0x7680, symSize: 0x5C }
  - { offset: 0xCD3D, size: 0x8, addend: 0x0, symName: '__ZN4core3ptr75drop_in_place$LT$alloc..vec..Vec$LT$fst_reader..types..BlackoutData$GT$$GT$17h53ebc4e946a28ce7E', symObjAddr: 0x3FE8, symBinAddr: 0x76DC, symSize: 0x5C }
  - { offset: 0xCD6C, size: 0x8, addend: 0x0, symName: '__ZN4core3ptr75drop_in_place$LT$alloc..vec..Vec$LT$wellen..ghw..common..SectionPos$GT$$GT$17h62c2baa1b32a028fE', symObjAddr: 0x4044, symBinAddr: 0x7738, symSize: 0x5C }
  - { offset: 0xCD9B, size: 0x8, addend: 0x0, symName: '__ZN4core3ptr75drop_in_place$LT$core..cell..UnsafeCell$LT$wellen..simple..Waveform$GT$$GT$17h4b1bbfce0e87e47dE', symObjAddr: 0x40A0, symBinAddr: 0x7794, symSize: 0x24 }
  - { offset: 0xCDCA, size: 0x8, addend: 0x0, symName: '__ZN4core3ptr75drop_in_place$LT$core..option..Option$LT$alloc..vec..Vec$LT$u64$GT$$GT$$GT$17h32a734f021a785acE', symObjAddr: 0x40C4, symBinAddr: 0x77B8, symSize: 0x48 }
  - { offset: 0xCDF9, size: 0x8, addend: 0x0, symName: '__ZN4core3ptr75drop_in_place$LT$hashbrown..raw..RawIntoIter$LT$$LP$u64$C$usize$RP$$GT$$GT$17h5beff5661098fee2E', symObjAddr: 0x410C, symBinAddr: 0x7800, symSize: 0x24 }
  - { offset: 0xCE28, size: 0x8, addend: 0x0, symName: '__ZN4core3ptr76drop_in_place$LT$alloc..raw_vec..RawVec$LT$wellen..fst..SignalWriter$GT$$GT$17h2cd12edb0c173642E', symObjAddr: 0x4130, symBinAddr: 0x7824, symSize: 0x24 }
  - { offset: 0xCE57, size: 0x8, addend: 0x0, symName: '__ZN4core3ptr76drop_in_place$LT$alloc..vec..Vec$LT$wellen..ghw..common..GhwSignalId$GT$$GT$17h6a8cebb7bb80361cE', symObjAddr: 0x4154, symBinAddr: 0x7848, symSize: 0x5C }
  - { offset: 0xCE86, size: 0x8, addend: 0x0, symName: '__ZN4core3ptr76drop_in_place$LT$alloc..vec..Vec$LT$wellen..ghw..hierarchy..VhdlType$GT$$GT$17h8e06ccf0138e2590E', symObjAddr: 0x41B0, symBinAddr: 0x78A4, symSize: 0x5C }
  - { offset: 0xCEB5, size: 0x8, addend: 0x0, symName: '__ZN4core3ptr76drop_in_place$LT$core..result..Result$LT$u64$C$std..io..error..Error$GT$$GT$17h0a50cbbb27c0443fE', symObjAddr: 0x420C, symBinAddr: 0x7900, symSize: 0x40 }
  - { offset: 0xCEE4, size: 0x8, addend: 0x0, symName: '__ZN4core3ptr76drop_in_place$LT$std..collections..hash..map..HashMap$LT$u64$C$usize$GT$$GT$17hc99cac5c6f6fad95E', symObjAddr: 0x424C, symBinAddr: 0x7940, symSize: 0x24 }
  - { offset: 0xCF13, size: 0x8, addend: 0x0, symName: '__ZN4core3ptr77drop_in_place$LT$pyo3..instance..Py$LT$_engine..query..WaveformHandle$GT$$GT$17h91c401752feb5ff7E', symObjAddr: 0x4270, symBinAddr: 0x7964, symSize: 0x2C }
  - { offset: 0xCF42, size: 0x8, addend: 0x0, symName: '__ZN4core3ptr77drop_in_place$LT$std..collections..hash..map..IntoIter$LT$u64$C$usize$GT$$GT$17h3794bf4a24ace363E', symObjAddr: 0x429C, symBinAddr: 0x7990, symSize: 0x24 }
  - { offset: 0xCF71, size: 0x8, addend: 0x0, symName: '__ZN4core3ptr77drop_in_place$LT$std..io..cursor..Cursor$LT$alloc..vec..Vec$LT$u8$GT$$GT$$GT$17h1a4a76623dfa63d4E', symObjAddr: 0x42C0, symBinAddr: 0x79B4, symSize: 0x24 }
  - { offset: 0xCFA0, size: 0x8, addend: 0x0, symName: '__ZN4core3ptr78drop_in_place$LT$alloc..vec..Vec$LT$fst_reader..types..DataSectionInfo$GT$$GT$17h4e469566e33d9467E', symObjAddr: 0x42E4, symBinAddr: 0x79D8, symSize: 0x5C }
  - { offset: 0xCFCF, size: 0x8, addend: 0x0, symName: '__ZN4core3ptr78drop_in_place$LT$alloc..vec..Vec$LT$fst_reader..types..FstSignalHandle$GT$$GT$17h4c3f54e7acf5615aE', symObjAddr: 0x4340, symBinAddr: 0x7A34, symSize: 0x5C }
  - { offset: 0xCFFE, size: 0x8, addend: 0x0, symName: '__ZN4core3ptr78drop_in_place$LT$pyo3..pycell..PyRef$LT$_engine..query..WaveformHandle$GT$$GT$17hec07ea145a0fceaeE', symObjAddr: 0x439C, symBinAddr: 0x7A90, symSize: 0x5C }
  - { offset: 0xD02D, size: 0x8, addend: 0x0, symName: '__ZN4core3ptr791drop_in_place$LT$core..iter..adapters..map..map_fold$LT$$RF$$LP$alloc..string..String$C$wellen..hierarchy..VarRef$C$wellen..hierarchy..SignalRef$RP$$C$wellen..hierarchy..SignalRef$C$$LP$$RP$$C$_engine..query..get_snapshot..$u7b$$u7b$closure$u7d$$u7d$..$u7b$$u7b$closure$u7d$$u7d$$C$core..iter..traits..iterator..Iterator..for_each..call$LT$wellen..hierarchy..SignalRef$C$alloc..vec..Vec$LT$wellen..hierarchy..SignalRef$GT$..extend_trusted$LT$core..iter..adapters..map..Map$LT$core..slice..iter..Iter$LT$$LP$alloc..string..String$C$wellen..hierarchy..VarRef$C$wellen..hierarchy..SignalRef$RP$$GT$$C$_engine..query..get_snapshot..$u7b$$u7b$closure$u7d$$u7d$..$u7b$$u7b$closure$u7d$$u7d$$GT$$GT$..$u7b$$u7b$closure$u7d$$u7d$$GT$..$u7b$$u7b$closure$u7d$$u7d$$GT$..$u7b$$u7b$closure$u7d$$u7d$$GT$17h83e7010683acdc77E', symObjAddr: 0x43F8, symBinAddr: 0x7AEC, symSize: 0x24 }
  - { offset: 0xD05C, size: 0x8, addend: 0x0, symName: '__ZN4core3ptr80drop_in_place$LT$$LP$alloc..string..String$C$$RF$wellen..signals..Signal$RP$$GT$17h4ca5f0d81f1e938dE', symObjAddr: 0x4440, symBinAddr: 0x7B10, symSize: 0x24 }
  - { offset: 0xD08B, size: 0x8, addend: 0x0, symName: '__ZN4core3ptr80drop_in_place$LT$alloc..raw_vec..RawVec$LT$fst_reader..types..SignalInfo$GT$$GT$17hd354eca434a8da25E', symObjAddr: 0x4464, symBinAddr: 0x7B34, symSize: 0x24 }
  - { offset: 0xD0BA, size: 0x8, addend: 0x0, symName: '__ZN4core3ptr80drop_in_place$LT$alloc..vec..Vec$LT$wellen..hierarchy..HierarchyStringId$GT$$GT$17h7beabd16cb0c912dE', symObjAddr: 0x4488, symBinAddr: 0x7B58, symSize: 0x5C }
  - { offset: 0xD0E9, size: 0x8, addend: 0x0, symName: '__ZN4core3ptr80drop_in_place$LT$pyo3..instance..Bound$LT$_engine..query..WaveformHandle$GT$$GT$17hdca76dcaa2adf118E', symObjAddr: 0x4574, symBinAddr: 0x7BB4, symSize: 0x24 }
  - { offset: 0xD118, size: 0x8, addend: 0x0, symName: '__ZN4core3ptr819drop_in_place$LT$core..iter..adapters..map..map_fold$LT$alloc..string..String$C$wellen..hierarchy..HierarchyStringId$C$$LP$$RP$$C$wellen..ghw..hierarchy..read_hierarchy$LT$std..io..buffered..bufreader..BufReader$LT$std..fs..File$GT$$GT$..$u7b$$u7b$closure$u7d$$u7d$$C$core..iter..traits..iterator..Iterator..for_each..call$LT$wellen..hierarchy..HierarchyStringId$C$alloc..vec..Vec$LT$wellen..hierarchy..HierarchyStringId$GT$..extend_trusted$LT$core..iter..adapters..map..Map$LT$core..iter..adapters..cloned..Cloned$LT$core..slice..iter..Iter$LT$alloc..string..String$GT$$GT$$C$wellen..ghw..hierarchy..read_hierarchy$LT$std..io..buffered..bufreader..BufReader$LT$std..fs..File$GT$$GT$..$u7b$$u7b$closure$u7d$$u7d$$GT$$GT$..$u7b$$u7b$closure$u7d$$u7d$$GT$..$u7b$$u7b$closure$u7d$$u7d$$GT$..$u7b$$u7b$closure$u7d$$u7d$$GT$17hfb2ec3b8a0ae70dcE', symObjAddr: 0x4598, symBinAddr: 0x7BD8, symSize: 0x24 }
  - { offset: 0xD147, size: 0x8, addend: 0x0, symName: '__ZN4core3ptr81drop_in_place$LT$$LP$alloc..string..String$C$wellen..hierarchy..SignalRef$RP$$GT$17h5c380a3418ca3395E', symObjAddr: 0x45BC, symBinAddr: 0x7BFC, symSize: 0x24 }
  - { offset: 0xD176, size: 0x8, addend: 0x0, symName: '__ZN4core3ptr81drop_in_place$LT$alloc..raw_vec..RawVec$LT$wellen..ghw..hierarchy..TypeId$GT$$GT$17hee987b775e3561cbE', symObjAddr: 0x45E0, symBinAddr: 0x7C20, symSize: 0x24 }
  - { offset: 0xD1A5, size: 0x8, addend: 0x0, symName: '__ZN4core3ptr81drop_in_place$LT$alloc..vec..into_iter..IntoIter$LT$alloc..string..String$GT$$GT$17hfbf256992ea82787E', symObjAddr: 0x4604, symBinAddr: 0x7C44, symSize: 0x24 }
  - { offset: 0xD1D4, size: 0x8, addend: 0x0, symName: '__ZN4core3ptr81drop_in_place$LT$core..cell..UnsafeCell$LT$_engine..query..WaveformHandle$GT$$GT$17ha97aa54b7529447bE', symObjAddr: 0x4628, symBinAddr: 0x7C68, symSize: 0x24 }
  - { offset: 0xD203, size: 0x8, addend: 0x0, symName: '__ZN4core3ptr81drop_in_place$LT$core..result..Result$LT$u8$C$fst_reader..io..ReaderError$GT$$GT$17h80ce1c86881f39a0E', symObjAddr: 0x464C, symBinAddr: 0x7C8C, symSize: 0x4C }
  - { offset: 0xD232, size: 0x8, addend: 0x0, symName: '__ZN4core3ptr81drop_in_place$LT$std..io..buffered..bufreader..BufReader$LT$std..fs..File$GT$$GT$17h1ca4e22227bf4a21E', symObjAddr: 0x4698, symBinAddr: 0x7CD8, symSize: 0x60 }
  - { offset: 0xD261, size: 0x8, addend: 0x0, symName: '__ZN4core3ptr82drop_in_place$LT$alloc..raw_vec..RawVec$LT$_engine..summarise..AnomalyData$GT$$GT$17h67ebb9ef44a888b4E', symObjAddr: 0x46F8, symBinAddr: 0x7D38, symSize: 0x24 }
  - { offset: 0xD290, size: 0x8, addend: 0x0, symName: '__ZN4core3ptr82drop_in_place$LT$alloc..raw_vec..RawVec$LT$fst_reader..types..BlackoutData$GT$$GT$17h9b6150fbc615654fE', symObjAddr: 0x471C, symBinAddr: 0x7D5C, symSize: 0x24 }
  - { offset: 0xD2BF, size: 0x8, addend: 0x0, symName: '__ZN4core3ptr82drop_in_place$LT$alloc..raw_vec..RawVec$LT$wellen..ghw..common..SectionPos$GT$$GT$17h8afa3b40c4e35b48E', symObjAddr: 0x4740, symBinAddr: 0x7D80, symSize: 0x24 }
  - { offset: 0xD2EE, size: 0x8, addend: 0x0, symName: '__ZN4core3ptr82drop_in_place$LT$core..result..Result$LT$bool$C$wellen..vcd..VcdParseError$GT$$GT$17hc54639559496627dE', symObjAddr: 0x4764, symBinAddr: 0x7DA4, symSize: 0x44 }
  - { offset: 0xD31D, size: 0x8, addend: 0x0, symName: '__ZN4core3ptr83drop_in_place$LT$alloc..raw_vec..RawVec$LT$wellen..ghw..common..GhwSignalId$GT$$GT$17h1befcf3b254b479cE', symObjAddr: 0x47A8, symBinAddr: 0x7DE8, symSize: 0x24 }
  - { offset: 0xD34C, size: 0x8, addend: 0x0, symName: '__ZN4core3ptr83drop_in_place$LT$alloc..raw_vec..RawVec$LT$wellen..ghw..hierarchy..VhdlType$GT$$GT$17hc81fab7493bd5ee9E', symObjAddr: 0x47CC, symBinAddr: 0x7E0C, symSize: 0x24 }
  - { offset: 0xD37B, size: 0x8, addend: 0x0, symName: '__ZN4core3ptr83drop_in_place$LT$core..result..Result$LT$bool$C$fst_reader..io..ReaderError$GT$$GT$17h807ebdbbb76026a4E', symObjAddr: 0x47F0, symBinAddr: 0x7E30, symSize: 0x4C }
  - { offset: 0xD3AA, size: 0x8, addend: 0x0, symName: '__ZN4core3ptr84drop_in_place$LT$std..sync..poison..mutex..Mutex$LT$wellen..simple..Waveform$GT$$GT$17h043ee1e5b2aa6155E', symObjAddr: 0x483C, symBinAddr: 0x7E7C, symSize: 0x60 }
  - { offset: 0xD3D9, size: 0x8, addend: 0x0, symName: '__ZN4core3ptr85drop_in_place$LT$$LP$alloc..vec..Vec$LT$u8$GT$$C$wellen..hierarchy..SignalRef$RP$$GT$17h04b10fc73fdaa82bE', symObjAddr: 0x489C, symBinAddr: 0x7EDC, symSize: 0x24 }
  - { offset: 0xD408, size: 0x8, addend: 0x0, symName: '__ZN4core3ptr85drop_in_place$LT$$u5b$pyo3..instance..Bound$LT$pyo3..types..dict..PyDict$GT$$u5d$$GT$17heef5e924e7eb3fe8E', symObjAddr: 0x48C0, symBinAddr: 0x7F00, symSize: 0xB4 }
  - { offset: 0xD437, size: 0x8, addend: 0x0, symName: '__ZN4core3ptr85drop_in_place$LT$alloc..raw_vec..RawVec$LT$fst_reader..types..DataSectionInfo$GT$$GT$17h3d8a765a1df89f57E', symObjAddr: 0x4974, symBinAddr: 0x7FB4, symSize: 0x24 }
  - { offset: 0xD466, size: 0x8, addend: 0x0, symName: '__ZN4core3ptr85drop_in_place$LT$alloc..raw_vec..RawVec$LT$fst_reader..types..FstSignalHandle$GT$$GT$17ha28c482eda681898E', symObjAddr: 0x4998, symBinAddr: 0x7FD8, symSize: 0x24 }
  - { offset: 0xD495, size: 0x8, addend: 0x0, symName: '__ZN4core3ptr85drop_in_place$LT$alloc..vec..into_iter..IntoIter$LT$wellen..fst..SignalWriter$GT$$GT$17h10cea3aaa1d4d042E', symObjAddr: 0x49BC, symBinAddr: 0x7FFC, symSize: 0x24 }
  - { offset: 0xD4C4, size: 0x8, addend: 0x0, symName: '__ZN4core3ptr87drop_in_place$LT$alloc..raw_vec..RawVec$LT$wellen..hierarchy..HierarchyStringId$GT$$GT$17h6f2f9ba947ea3c21E', symObjAddr: 0x49E0, symBinAddr: 0x8020, symSize: 0x24 }
  - { offset: 0xD4F3, size: 0x8, addend: 0x0, symName: '__ZN4core3ptr89drop_in_place$LT$std..sync..poison..mutex..MutexGuard$LT$wellen..simple..Waveform$GT$$GT$17haca8a28b0602bd08E', symObjAddr: 0x4A04, symBinAddr: 0x8044, symSize: 0x24 }
  - { offset: 0xD522, size: 0x8, addend: 0x0, symName: '__ZN4core3ptr90drop_in_place$LT$alloc..vec..in_place_drop..InPlaceDrop$LT$wellen..signals..Signal$GT$$GT$17h425ddfecc134cd7bE', symObjAddr: 0x4A28, symBinAddr: 0x8068, symSize: 0x24 }
  - { offset: 0xD551, size: 0x8, addend: 0x0, symName: '__ZN4core3ptr90drop_in_place$LT$hashbrown..raw..RawTable$LT$$LP$alloc..string..String$C$usize$RP$$GT$$GT$17h837b326e685a5c5fE', symObjAddr: 0x4A4C, symBinAddr: 0x808C, symSize: 0x24 }
  - { offset: 0xD580, size: 0x8, addend: 0x0, symName: '__ZN4core3ptr93drop_in_place$LT$alloc..vec..into_iter..IntoIter$LT$wellen..ghw..hierarchy..AliasInfo$GT$$GT$17h327d066f4a3c3f3fE', symObjAddr: 0x4A70, symBinAddr: 0x80B0, symSize: 0x24 }
  - { offset: 0xD5AF, size: 0x8, addend: 0x0, symName: '__ZN4core3ptr93drop_in_place$LT$core..result..Result$LT$core..convert..Infallible$C$pyo3..err..PyErr$GT$$GT$17h8cd516a06a027baeE', symObjAddr: 0x4A94, symBinAddr: 0x80D4, symSize: 0x30 }
  - { offset: 0xD5DE, size: 0x8, addend: 0x0, symName: '__ZN4core3ptr93drop_in_place$LT$hashbrown..map..HashMap$LT$usize$C$usize$C$rustc_hash..FxBuildHasher$GT$$GT$17h4816533bfa1fa36eE', symObjAddr: 0x4AC4, symBinAddr: 0x8104, symSize: 0x24 }
  - { offset: 0xD60D, size: 0x8, addend: 0x0, symName: '__ZN4core3ptr94drop_in_place$LT$std..collections..hash..map..HashMap$LT$alloc..string..String$C$usize$GT$$GT$17h76160aaa21ea0c67E', symObjAddr: 0x4AE8, symBinAddr: 0x8128, symSize: 0x24 }
  - { offset: 0xD63C, size: 0x8, addend: 0x0, symName: '__ZN4core3ptr96drop_in_place$LT$hashbrown..map..HashMap$LT$u64$C$usize$C$std..hash..random..RandomState$GT$$GT$17hc78c0e1e265c718fE', symObjAddr: 0x4B30, symBinAddr: 0x814C, symSize: 0x24 }
  - { offset: 0xD66B, size: 0x8, addend: 0x0, symName: '__ZN4core3ptr96drop_in_place$LT$hashbrown..raw..RawTable$LT$$LP$u64$C$wellen..hierarchy..EnumTypeId$RP$$GT$$GT$17h88d091fea9e3060bE', symObjAddr: 0x4B54, symBinAddr: 0x8170, symSize: 0x24 }
  - { offset: 0xD69A, size: 0x8, addend: 0x0, symName: '__ZN4core3ptr97drop_in_place$LT$core..option..Option$LT$alloc..borrow..Cow$LT$core..ffi..c_str..CStr$GT$$GT$$GT$17h1832feda02b65bfaE', symObjAddr: 0x4B78, symBinAddr: 0x8194, symSize: 0x44 }
  - { offset: 0xD6C9, size: 0x8, addend: 0x0, symName: '__ZN4core3ptr97drop_in_place$LT$pyo3..pyclass_init..PyClassInitializer$LT$_engine..query..WaveformHandle$GT$$GT$17h972e5498b7de4dfbE', symObjAddr: 0x4BBC, symBinAddr: 0x81D8, symSize: 0x24 }
  - { offset: 0xD6F8, size: 0x8, addend: 0x0, symName: '__ZN4core3ptr98drop_in_place$LT$alloc..vec..Vec$LT$pyo3..instance..Bound$LT$pyo3..types..dict..PyDict$GT$$GT$$GT$17hb8186e671a9927b8E', symObjAddr: 0x4BE0, symBinAddr: 0x81FC, symSize: 0x5C }
  - { offset: 0xD727, size: 0x8, addend: 0x0, symName: '__ZN4core3ptr98drop_in_place$LT$core..result..Result$LT$_engine..query..WaveformHandle$C$pyo3..err..PyErr$GT$$GT$17hcea8613828bc1fdaE', symObjAddr: 0x4C3C, symBinAddr: 0x8258, symSize: 0x50 }
  - { offset: 0xEDD3, size: 0x8, addend: 0x0, symName: __ZN4core3ops8function5FnMut8call_mut17h0f40c13809bd6ee2E, symObjAddr: 0x46C, symBinAddr: 0x3CF4, symSize: 0x28 }
  - { offset: 0xEE17, size: 0x8, addend: 0x0, symName: __ZN4core3ops8function5FnMut8call_mut17h1542757cbd21055aE, symObjAddr: 0x494, symBinAddr: 0x3D1C, symSize: 0x28 }
  - { offset: 0xEE5B, size: 0x8, addend: 0x0, symName: __ZN4core3ops8function5FnMut8call_mut17h64cec39d3423138dE, symObjAddr: 0x4BC, symBinAddr: 0x3D44, symSize: 0x30 }
  - { offset: 0xEE9F, size: 0x8, addend: 0x0, symName: __ZN4core3ops8function5FnMut8call_mut17h6d8107c7f2a7436cE, symObjAddr: 0x4EC, symBinAddr: 0x3D74, symSize: 0x30 }
  - { offset: 0xEEE9, size: 0x8, addend: 0x0, symName: '__ZN4core3ops8function6FnOnce40call_once$u7b$$u7b$vtable.shim$u7d$$u7d$17h1104bf91fa9a77fdE', symObjAddr: 0x51C, symBinAddr: 0x3DA4, symSize: 0x38 }
  - { offset: 0xEF2D, size: 0x8, addend: 0x0, symName: '__ZN4core3ops8function6FnOnce40call_once$u7b$$u7b$vtable.shim$u7d$$u7d$17h30126aa74296e123E', symObjAddr: 0x554, symBinAddr: 0x3DDC, symSize: 0x38 }
  - { offset: 0xEF71, size: 0x8, addend: 0x0, symName: '__ZN4core3ops8function6FnOnce40call_once$u7b$$u7b$vtable.shim$u7d$$u7d$17h40dd739d297297e2E', symObjAddr: 0x58C, symBinAddr: 0x3E14, symSize: 0x38 }
  - { offset: 0xEFB5, size: 0x8, addend: 0x0, symName: '__ZN4core3ops8function6FnOnce40call_once$u7b$$u7b$vtable.shim$u7d$$u7d$17h5152f94772084b76E', symObjAddr: 0x5C4, symBinAddr: 0x3E4C, symSize: 0x38 }
  - { offset: 0xEFF9, size: 0x8, addend: 0x0, symName: '__ZN4core3ops8function6FnOnce40call_once$u7b$$u7b$vtable.shim$u7d$$u7d$17h515793b1846685baE', symObjAddr: 0x5FC, symBinAddr: 0x3E84, symSize: 0x38 }
  - { offset: 0xF03D, size: 0x8, addend: 0x0, symName: '__ZN4core3ops8function6FnOnce40call_once$u7b$$u7b$vtable.shim$u7d$$u7d$17h57366233fd422f54E', symObjAddr: 0x634, symBinAddr: 0x3EBC, symSize: 0x38 }
  - { offset: 0xF081, size: 0x8, addend: 0x0, symName: '__ZN4core3ops8function6FnOnce40call_once$u7b$$u7b$vtable.shim$u7d$$u7d$17h66272f60a9fa3ca4E', symObjAddr: 0x66C, symBinAddr: 0x3EF4, symSize: 0x38 }
  - { offset: 0xF0C5, size: 0x8, addend: 0x0, symName: '__ZN4core3ops8function6FnOnce40call_once$u7b$$u7b$vtable.shim$u7d$$u7d$17h6bc322caf735dddfE', symObjAddr: 0x6A4, symBinAddr: 0x3F2C, symSize: 0x38 }
  - { offset: 0xF109, size: 0x8, addend: 0x0, symName: '__ZN4core3ops8function6FnOnce40call_once$u7b$$u7b$vtable.shim$u7d$$u7d$17h6cf13fa6aeee2798E', symObjAddr: 0x6DC, symBinAddr: 0x3F64, symSize: 0x38 }
  - { offset: 0xF14D, size: 0x8, addend: 0x0, symName: '__ZN4core3ops8function6FnOnce40call_once$u7b$$u7b$vtable.shim$u7d$$u7d$17h92b0b9a801117abfE', symObjAddr: 0x714, symBinAddr: 0x3F9C, symSize: 0x38 }
  - { offset: 0xF191, size: 0x8, addend: 0x0, symName: '__ZN4core3ops8function6FnOnce40call_once$u7b$$u7b$vtable.shim$u7d$$u7d$17h93a1bf2a082d966bE', symObjAddr: 0x74C, symBinAddr: 0x3FD4, symSize: 0x38 }
  - { offset: 0xF1D5, size: 0x8, addend: 0x0, symName: '__ZN4core3ops8function6FnOnce40call_once$u7b$$u7b$vtable.shim$u7d$$u7d$17hcfcb3c16ce7f029dE', symObjAddr: 0x784, symBinAddr: 0x400C, symSize: 0x38 }
  - { offset: 0xF219, size: 0x8, addend: 0x0, symName: '__ZN4core3ops8function6FnOnce40call_once$u7b$$u7b$vtable.shim$u7d$$u7d$17hd36c15c229fae147E', symObjAddr: 0x7BC, symBinAddr: 0x4044, symSize: 0x38 }
  - { offset: 0xF25D, size: 0x8, addend: 0x0, symName: '__ZN4core3ops8function6FnOnce40call_once$u7b$$u7b$vtable.shim$u7d$$u7d$17hebb98e1b5eeb739bE', symObjAddr: 0x7F4, symBinAddr: 0x407C, symSize: 0x30 }
  - { offset: 0xF29D, size: 0x8, addend: 0x0, symName: '__ZN4core3ops8function6FnOnce40call_once$u7b$$u7b$vtable.shim$u7d$$u7d$17hf21cf70dfe085cd5E', symObjAddr: 0x824, symBinAddr: 0x40AC, symSize: 0x38 }
  - { offset: 0xF2E1, size: 0x8, addend: 0x0, symName: '__ZN4core3ops8function6FnOnce40call_once$u7b$$u7b$vtable.shim$u7d$$u7d$17hf56f4f3c50c1c833E', symObjAddr: 0x85C, symBinAddr: 0x40E4, symSize: 0x38 }
  - { offset: 0xF325, size: 0x8, addend: 0x0, symName: '__ZN4core3ops8function6FnOnce40call_once$u7b$$u7b$vtable.shim$u7d$$u7d$17hf8283acd7443eb45E', symObjAddr: 0x894, symBinAddr: 0x411C, symSize: 0x38 }
  - { offset: 0xF369, size: 0x8, addend: 0x0, symName: '__ZN4core3ops8function6FnOnce40call_once$u7b$$u7b$vtable.shim$u7d$$u7d$17hfa9bcc3f5abb53aaE', symObjAddr: 0x8CC, symBinAddr: 0x4154, symSize: 0x38 }
  - { offset: 0xF3AD, size: 0x8, addend: 0x0, symName: __ZN4core3ops8function6FnOnce9call_once17h02024973fc0b6c6bE, symObjAddr: 0x904, symBinAddr: 0x418C, symSize: 0x5C }
  - { offset: 0xF3F1, size: 0x8, addend: 0x0, symName: __ZN4core3ops8function6FnOnce9call_once17h048374a679b1fd03E, symObjAddr: 0x960, symBinAddr: 0x41E8, symSize: 0x58 }
  - { offset: 0xF435, size: 0x8, addend: 0x0, symName: __ZN4core3ops8function6FnOnce9call_once17h06f31cec66775000E, symObjAddr: 0x9B8, symBinAddr: 0x4240, symSize: 0x4C }
  - { offset: 0xF479, size: 0x8, addend: 0x0, symName: __ZN4core3ops8function6FnOnce9call_once17h0f4a1bed3bcd7b82E, symObjAddr: 0xA04, symBinAddr: 0x428C, symSize: 0x3C }
  - { offset: 0xF4BD, size: 0x8, addend: 0x0, symName: __ZN4core3ops8function6FnOnce9call_once17h15e48c91c4bfd733E, symObjAddr: 0xA40, symBinAddr: 0x42C8, symSize: 0x58 }
  - { offset: 0xF501, size: 0x8, addend: 0x0, symName: __ZN4core3ops8function6FnOnce9call_once17h18bd277b75d4462fE, symObjAddr: 0xA98, symBinAddr: 0x4320, symSize: 0x5C }
  - { offset: 0xF545, size: 0x8, addend: 0x0, symName: __ZN4core3ops8function6FnOnce9call_once17h1954d2bec6b2a988E, symObjAddr: 0xAF4, symBinAddr: 0x437C, symSize: 0x24 }
  - { offset: 0xF589, size: 0x8, addend: 0x0, symName: __ZN4core3ops8function6FnOnce9call_once17h2026db0f397d41ebE, symObjAddr: 0xB18, symBinAddr: 0x43A0, symSize: 0x44 }
  - { offset: 0xF5CD, size: 0x8, addend: 0x0, symName: __ZN4core3ops8function6FnOnce9call_once17h216dc2c0f2d9d3b2E, symObjAddr: 0xB5C, symBinAddr: 0x43E4, symSize: 0x24 }
  - { offset: 0xF611, size: 0x8, addend: 0x0, symName: __ZN4core3ops8function6FnOnce9call_once17h253f17eec74f670eE, symObjAddr: 0xB80, symBinAddr: 0x4408, symSize: 0x4C }
  - { offset: 0xF655, size: 0x8, addend: 0x0, symName: __ZN4core3ops8function6FnOnce9call_once17h276bf813776f7291E, symObjAddr: 0xBCC, symBinAddr: 0x4454, symSize: 0x58 }
  - { offset: 0xF699, size: 0x8, addend: 0x0, symName: __ZN4core3ops8function6FnOnce9call_once17h29110bdddc17a93eE, symObjAddr: 0xC24, symBinAddr: 0x44AC, symSize: 0x5C }
  - { offset: 0xF6DD, size: 0x8, addend: 0x0, symName: __ZN4core3ops8function6FnOnce9call_once17h2e8eea6a4c4a3158E, symObjAddr: 0xC80, symBinAddr: 0x4508, symSize: 0x58 }
  - { offset: 0xF721, size: 0x8, addend: 0x0, symName: __ZN4core3ops8function6FnOnce9call_once17h37a226b5bed14748E, symObjAddr: 0xCD8, symBinAddr: 0x4560, symSize: 0x24 }
  - { offset: 0xF765, size: 0x8, addend: 0x0, symName: __ZN4core3ops8function6FnOnce9call_once17h3acd306f3d9efac3E, symObjAddr: 0xCFC, symBinAddr: 0x4584, symSize: 0x4C }
  - { offset: 0xF7A5, size: 0x8, addend: 0x0, symName: __ZN4core3ops8function6FnOnce9call_once17h3c9637704a57e464E, symObjAddr: 0xD48, symBinAddr: 0x45D0, symSize: 0x5C }
  - { offset: 0xF7E9, size: 0x8, addend: 0x0, symName: __ZN4core3ops8function6FnOnce9call_once17h3d5cf4ec7f854121E, symObjAddr: 0xDA4, symBinAddr: 0x462C, symSize: 0x44 }
  - { offset: 0xF829, size: 0x8, addend: 0x0, symName: __ZN4core3ops8function6FnOnce9call_once17h487c77df79273ccbE, symObjAddr: 0xDE8, symBinAddr: 0x4670, symSize: 0x4C }
  - { offset: 0xF86D, size: 0x8, addend: 0x0, symName: __ZN4core3ops8function6FnOnce9call_once17h4d87110c7918acbeE, symObjAddr: 0xE34, symBinAddr: 0x46BC, symSize: 0x48 }
  - { offset: 0xF8B1, size: 0x8, addend: 0x0, symName: __ZN4core3ops8function6FnOnce9call_once17h57de7c06186aa233E, symObjAddr: 0xE7C, symBinAddr: 0x4704, symSize: 0x5C }
  - { offset: 0xF8F5, size: 0x8, addend: 0x0, symName: __ZN4core3ops8function6FnOnce9call_once17h58253895e269f5f8E, symObjAddr: 0xED8, symBinAddr: 0x4760, symSize: 0x44 }
  - { offset: 0xF935, size: 0x8, addend: 0x0, symName: __ZN4core3ops8function6FnOnce9call_once17h5b75f4cc5053179bE, symObjAddr: 0xF1C, symBinAddr: 0x47A4, symSize: 0x24 }
  - { offset: 0xF979, size: 0x8, addend: 0x0, symName: __ZN4core3ops8function6FnOnce9call_once17h6123f6944acba838E, symObjAddr: 0xF40, symBinAddr: 0x47C8, symSize: 0x24 }
  - { offset: 0xF9BD, size: 0x8, addend: 0x0, symName: __ZN4core3ops8function6FnOnce9call_once17h778a8832a0f91370E, symObjAddr: 0xF64, symBinAddr: 0x47EC, symSize: 0x24 }
  - { offset: 0xFA01, size: 0x8, addend: 0x0, symName: __ZN4core3ops8function6FnOnce9call_once17h7922d627904b8198E, symObjAddr: 0xF88, symBinAddr: 0x4810, symSize: 0x58 }
  - { offset: 0xFA45, size: 0x8, addend: 0x0, symName: __ZN4core3ops8function6FnOnce9call_once17h95b078ae8b1620eeE, symObjAddr: 0xFE0, symBinAddr: 0x4868, symSize: 0x58 }
  - { offset: 0xFA89, size: 0x8, addend: 0x0, symName: __ZN4core3ops8function6FnOnce9call_once17h98b02805ff4cc216E, symObjAddr: 0x1038, symBinAddr: 0x48C0, symSize: 0x3C }
  - { offset: 0xFACD, size: 0x8, addend: 0x0, symName: __ZN4core3ops8function6FnOnce9call_once17ha24e59edb67a457fE, symObjAddr: 0x1074, symBinAddr: 0x48FC, symSize: 0x44 }
  - { offset: 0xFB0D, size: 0x8, addend: 0x0, symName: __ZN4core3ops8function6FnOnce9call_once17ha2ad7e4d5918bb6bE, symObjAddr: 0x10B8, symBinAddr: 0x4940, symSize: 0x58 }
  - { offset: 0xFB51, size: 0x8, addend: 0x0, symName: __ZN4core3ops8function6FnOnce9call_once17ha2b7e1c5853fa374E, symObjAddr: 0x1110, symBinAddr: 0x4998, symSize: 0x58 }
  - { offset: 0xFB95, size: 0x8, addend: 0x0, symName: __ZN4core3ops8function6FnOnce9call_once17hc873361bb9a00ef9E, symObjAddr: 0x1168, symBinAddr: 0x49F0, symSize: 0x58 }
  - { offset: 0xFBD9, size: 0x8, addend: 0x0, symName: __ZN4core3ops8function6FnOnce9call_once17hc9093eb704ce1973E, symObjAddr: 0x11C0, symBinAddr: 0x4A48, symSize: 0x5C }
  - { offset: 0xFC1D, size: 0x8, addend: 0x0, symName: __ZN4core3ops8function6FnOnce9call_once17hcb9e80f541f974c7E, symObjAddr: 0x121C, symBinAddr: 0x4AA4, symSize: 0x3C }
  - { offset: 0xFC61, size: 0x8, addend: 0x0, symName: __ZN4core3ops8function6FnOnce9call_once17hcc01aac0fb1a1b77E, symObjAddr: 0x1258, symBinAddr: 0x4AE0, symSize: 0x58 }
  - { offset: 0xFCA5, size: 0x8, addend: 0x0, symName: __ZN4core3ops8function6FnOnce9call_once17hd28ef8e5eb026045E, symObjAddr: 0x12B0, symBinAddr: 0x4B38, symSize: 0x4C }
  - { offset: 0xFCE9, size: 0x8, addend: 0x0, symName: __ZN4core3ops8function6FnOnce9call_once17hd561164818e36d4fE, symObjAddr: 0x12FC, symBinAddr: 0x4B84, symSize: 0x24 }
  - { offset: 0xFD2D, size: 0x8, addend: 0x0, symName: __ZN4core3ops8function6FnOnce9call_once17hda15d000c02ea445E, symObjAddr: 0x1320, symBinAddr: 0x4BA8, symSize: 0x24 }
  - { offset: 0xFD71, size: 0x8, addend: 0x0, symName: __ZN4core3ops8function6FnOnce9call_once17hde525180160900dcE, symObjAddr: 0x1344, symBinAddr: 0x4BCC, symSize: 0x44 }
  - { offset: 0xFDB1, size: 0x8, addend: 0x0, symName: __ZN4core3ops8function6FnOnce9call_once17he604665f1320ed0cE, symObjAddr: 0x1388, symBinAddr: 0x4C10, symSize: 0x5C }
  - { offset: 0x11703, size: 0x8, addend: 0x0, symName: '__ZN69_$LT$std..os..fd..owned..OwnedFd$u20$as$u20$core..ops..drop..Drop$GT$4drop17h442047a5d484d94fE', symObjAddr: 0x4CD0, symBinAddr: 0x82EC, symSize: 0x40 }
  - { offset: 0x117AA, size: 0x8, addend: 0x0, symName: '__ZN87_$LT$std..sync..poison..mutex..MutexGuard$LT$T$GT$$u20$as$u20$core..ops..drop..Drop$GT$4drop17hd58c6bf4524a1da3E', symObjAddr: 0x61CC, symBinAddr: 0x96CC, symSize: 0x68 }
  - { offset: 0x11D1D, size: 0x8, addend: 0x0, symName: '__ZN111_$LT$alloc..vec..Vec$LT$T$GT$$u20$as$u20$alloc..vec..spec_from_iter_nested..SpecFromIterNested$LT$T$C$I$GT$$GT$39from_iter$u7b$$u7b$reify.shim$u7d$$u7d$17h08af37cdf350a568E', symObjAddr: 0x0, symBinAddr: 0x3888, symSize: 0x1C }
  - { offset: 0x11DFD, size: 0x8, addend: 0x0, symName: '__ZN111_$LT$alloc..vec..in_place_drop..InPlaceDstDataSrcBufDrop$LT$Src$C$Dest$GT$$u20$as$u20$core..ops..drop..Drop$GT$4drop17h10286bf5211db2ceE', symObjAddr: 0x1C, symBinAddr: 0x38A4, symSize: 0xB8 }
  - { offset: 0x11F51, size: 0x8, addend: 0x0, symName: '__ZN89_$LT$alloc..vec..in_place_drop..InPlaceDrop$LT$T$GT$$u20$as$u20$core..ops..drop..Drop$GT$4drop17h17b56949c2403ee0E', symObjAddr: 0x6234, symBinAddr: 0x9734, symSize: 0x70 }
  - { offset: 0x12032, size: 0x8, addend: 0x0, symName: '__ZN157_$LT$$LT$alloc..vec..into_iter..IntoIter$LT$T$C$A$GT$$u20$as$u20$core..ops..drop..Drop$GT$..drop..DropGuard$LT$T$C$A$GT$$u20$as$u20$core..ops..drop..Drop$GT$4drop17h4029b11683b7ed8fE', symObjAddr: 0xD4, symBinAddr: 0x395C, symSize: 0x7C }
  - { offset: 0x12147, size: 0x8, addend: 0x0, symName: '__ZN157_$LT$$LT$alloc..vec..into_iter..IntoIter$LT$T$C$A$GT$$u20$as$u20$core..ops..drop..Drop$GT$..drop..DropGuard$LT$T$C$A$GT$$u20$as$u20$core..ops..drop..Drop$GT$4drop17h5702633721c8533cE', symObjAddr: 0x150, symBinAddr: 0x39D8, symSize: 0x7C }
  - { offset: 0x1225C, size: 0x8, addend: 0x0, symName: '__ZN157_$LT$$LT$alloc..vec..into_iter..IntoIter$LT$T$C$A$GT$$u20$as$u20$core..ops..drop..Drop$GT$..drop..DropGuard$LT$T$C$A$GT$$u20$as$u20$core..ops..drop..Drop$GT$4drop17h79ffabb51395340bE', symObjAddr: 0x1CC, symBinAddr: 0x3A54, symSize: 0x7C }
  - { offset: 0x12371, size: 0x8, addend: 0x0, symName: '__ZN157_$LT$$LT$alloc..vec..into_iter..IntoIter$LT$T$C$A$GT$$u20$as$u20$core..ops..drop..Drop$GT$..drop..DropGuard$LT$T$C$A$GT$$u20$as$u20$core..ops..drop..Drop$GT$4drop17h96160eea7bdc05bdE', symObjAddr: 0x248, symBinAddr: 0x3AD0, symSize: 0x7C }
  - { offset: 0x12486, size: 0x8, addend: 0x0, symName: '__ZN157_$LT$$LT$alloc..vec..into_iter..IntoIter$LT$T$C$A$GT$$u20$as$u20$core..ops..drop..Drop$GT$..drop..DropGuard$LT$T$C$A$GT$$u20$as$u20$core..ops..drop..Drop$GT$4drop17h9cd268b0497c329aE', symObjAddr: 0x2C4, symBinAddr: 0x3B4C, symSize: 0x7C }
  - { offset: 0x1259B, size: 0x8, addend: 0x0, symName: '__ZN157_$LT$$LT$alloc..vec..into_iter..IntoIter$LT$T$C$A$GT$$u20$as$u20$core..ops..drop..Drop$GT$..drop..DropGuard$LT$T$C$A$GT$$u20$as$u20$core..ops..drop..Drop$GT$4drop17hd9734dce273c4ea5E', symObjAddr: 0x340, symBinAddr: 0x3BC8, symSize: 0x7C }
  - { offset: 0x1279C, size: 0x8, addend: 0x0, symName: '__ZN86_$LT$alloc..vec..into_iter..IntoIter$LT$T$C$A$GT$$u20$as$u20$core..ops..drop..Drop$GT$4drop17h17265717a7998ed9E', symObjAddr: 0x5E60, symBinAddr: 0x9360, symSize: 0x98 }
  - { offset: 0x12836, size: 0x8, addend: 0x0, symName: '__ZN86_$LT$alloc..vec..into_iter..IntoIter$LT$T$C$A$GT$$u20$as$u20$core..ops..drop..Drop$GT$4drop17h51c02a9f8c8168ecE', symObjAddr: 0x5EF8, symBinAddr: 0x93F8, symSize: 0x8C }
  - { offset: 0x128D0, size: 0x8, addend: 0x0, symName: '__ZN86_$LT$alloc..vec..into_iter..IntoIter$LT$T$C$A$GT$$u20$as$u20$core..ops..drop..Drop$GT$4drop17hc001f8d0e9be4eb2E', symObjAddr: 0x5F84, symBinAddr: 0x9484, symSize: 0x8C }
  - { offset: 0x1296A, size: 0x8, addend: 0x0, symName: '__ZN86_$LT$alloc..vec..into_iter..IntoIter$LT$T$C$A$GT$$u20$as$u20$core..ops..drop..Drop$GT$4drop17hc070111379301757E', symObjAddr: 0x6010, symBinAddr: 0x9510, symSize: 0x8C }
  - { offset: 0x12A04, size: 0x8, addend: 0x0, symName: '__ZN86_$LT$alloc..vec..into_iter..IntoIter$LT$T$C$A$GT$$u20$as$u20$core..ops..drop..Drop$GT$4drop17hdbc1569a1049f6c1E', symObjAddr: 0x609C, symBinAddr: 0x959C, symSize: 0x98 }
  - { offset: 0x12A9E, size: 0x8, addend: 0x0, symName: '__ZN86_$LT$alloc..vec..into_iter..IntoIter$LT$T$C$A$GT$$u20$as$u20$core..ops..drop..Drop$GT$4drop17he52c6a2ebb144602E', symObjAddr: 0x6134, symBinAddr: 0x9634, symSize: 0x98 }
  - { offset: 0x12E7B, size: 0x8, addend: 0x0, symName: '__ZN5alloc3vec16in_place_collect48from_iter_in_place$u7b$$u7b$reify.shim$u7d$$u7d$17h3701252282ac8db1E', symObjAddr: 0x4C8C, symBinAddr: 0x82A8, symSize: 0x1C }
  - { offset: 0x12F17, size: 0x8, addend: 0x0, symName: '__ZN70_$LT$alloc..vec..Vec$LT$T$C$A$GT$$u20$as$u20$core..ops..drop..Drop$GT$4drop17h0adee9dee92df0dbE', symObjAddr: 0x4D10, symBinAddr: 0x832C, symSize: 0x38 }
  - { offset: 0x12FC7, size: 0x8, addend: 0x0, symName: '__ZN70_$LT$alloc..vec..Vec$LT$T$C$A$GT$$u20$as$u20$core..ops..drop..Drop$GT$4drop17h0eca06d8c8309af2E', symObjAddr: 0x4D48, symBinAddr: 0x8364, symSize: 0x24 }
  - { offset: 0x13077, size: 0x8, addend: 0x0, symName: '__ZN70_$LT$alloc..vec..Vec$LT$T$C$A$GT$$u20$as$u20$core..ops..drop..Drop$GT$4drop17h3fb2ebf5634cd593E', symObjAddr: 0x4D6C, symBinAddr: 0x8388, symSize: 0x38 }
  - { offset: 0x13127, size: 0x8, addend: 0x0, symName: '__ZN70_$LT$alloc..vec..Vec$LT$T$C$A$GT$$u20$as$u20$core..ops..drop..Drop$GT$4drop17h5ef02bd8957f7e4eE', symObjAddr: 0x4DA4, symBinAddr: 0x83C0, symSize: 0x38 }
  - { offset: 0x131D7, size: 0x8, addend: 0x0, symName: '__ZN70_$LT$alloc..vec..Vec$LT$T$C$A$GT$$u20$as$u20$core..ops..drop..Drop$GT$4drop17h69c4d6f7f70c581dE', symObjAddr: 0x4DDC, symBinAddr: 0x83F8, symSize: 0x24 }
  - { offset: 0x13287, size: 0x8, addend: 0x0, symName: '__ZN70_$LT$alloc..vec..Vec$LT$T$C$A$GT$$u20$as$u20$core..ops..drop..Drop$GT$4drop17h70a2d2ef743ae82dE', symObjAddr: 0x4E00, symBinAddr: 0x841C, symSize: 0x24 }
  - { offset: 0x13337, size: 0x8, addend: 0x0, symName: '__ZN70_$LT$alloc..vec..Vec$LT$T$C$A$GT$$u20$as$u20$core..ops..drop..Drop$GT$4drop17h74007aa6a82c050eE', symObjAddr: 0x4E24, symBinAddr: 0x8440, symSize: 0x24 }
  - { offset: 0x133E7, size: 0x8, addend: 0x0, symName: '__ZN70_$LT$alloc..vec..Vec$LT$T$C$A$GT$$u20$as$u20$core..ops..drop..Drop$GT$4drop17h7afa662f473b7299E', symObjAddr: 0x4E48, symBinAddr: 0x8464, symSize: 0x24 }
  - { offset: 0x13497, size: 0x8, addend: 0x0, symName: '__ZN70_$LT$alloc..vec..Vec$LT$T$C$A$GT$$u20$as$u20$core..ops..drop..Drop$GT$4drop17h832e1e8e9bcde181E', symObjAddr: 0x4E6C, symBinAddr: 0x8488, symSize: 0x24 }
  - { offset: 0x13547, size: 0x8, addend: 0x0, symName: '__ZN70_$LT$alloc..vec..Vec$LT$T$C$A$GT$$u20$as$u20$core..ops..drop..Drop$GT$4drop17h8cbd1a5f56abfd40E', symObjAddr: 0x4E90, symBinAddr: 0x84AC, symSize: 0x24 }
  - { offset: 0x135F7, size: 0x8, addend: 0x0, symName: '__ZN70_$LT$alloc..vec..Vec$LT$T$C$A$GT$$u20$as$u20$core..ops..drop..Drop$GT$4drop17ha71e10e5ce0bf752E', symObjAddr: 0x4EB4, symBinAddr: 0x84D0, symSize: 0x38 }
  - { offset: 0x136A7, size: 0x8, addend: 0x0, symName: '__ZN70_$LT$alloc..vec..Vec$LT$T$C$A$GT$$u20$as$u20$core..ops..drop..Drop$GT$4drop17hb5fd467c7c92cca7E', symObjAddr: 0x4EEC, symBinAddr: 0x8508, symSize: 0x24 }
  - { offset: 0x13757, size: 0x8, addend: 0x0, symName: '__ZN70_$LT$alloc..vec..Vec$LT$T$C$A$GT$$u20$as$u20$core..ops..drop..Drop$GT$4drop17hd32e45d055f8a3a5E', symObjAddr: 0x4F34, symBinAddr: 0x852C, symSize: 0x38 }
  - { offset: 0x13807, size: 0x8, addend: 0x0, symName: '__ZN70_$LT$alloc..vec..Vec$LT$T$C$A$GT$$u20$as$u20$core..ops..drop..Drop$GT$4drop17hd6afd7d33755f925E', symObjAddr: 0x4F6C, symBinAddr: 0x8564, symSize: 0x24 }
  - { offset: 0x138B7, size: 0x8, addend: 0x0, symName: '__ZN70_$LT$alloc..vec..Vec$LT$T$C$A$GT$$u20$as$u20$core..ops..drop..Drop$GT$4drop17he34bb4725f69a8e7E', symObjAddr: 0x4F90, symBinAddr: 0x8588, symSize: 0x38 }
  - { offset: 0x13967, size: 0x8, addend: 0x0, symName: '__ZN70_$LT$alloc..vec..Vec$LT$T$C$A$GT$$u20$as$u20$core..ops..drop..Drop$GT$4drop17hef87778643abcfbdE', symObjAddr: 0x4FC8, symBinAddr: 0x85C0, symSize: 0x24 }
  - { offset: 0x15558, size: 0x8, addend: 0x0, symName: '__ZN77_$LT$alloc..raw_vec..RawVec$LT$T$C$A$GT$$u20$as$u20$core..ops..drop..Drop$GT$4drop17h267ba3622a37d1a0E', symObjAddr: 0x583C, symBinAddr: 0x8D6C, symSize: 0x30 }
  - { offset: 0x15594, size: 0x8, addend: 0x0, symName: '__ZN77_$LT$alloc..raw_vec..RawVec$LT$T$C$A$GT$$u20$as$u20$core..ops..drop..Drop$GT$4drop17h4981cd901b54cd7dE', symObjAddr: 0x586C, symBinAddr: 0x8D9C, symSize: 0x34 }
  - { offset: 0x155D0, size: 0x8, addend: 0x0, symName: '__ZN77_$LT$alloc..raw_vec..RawVec$LT$T$C$A$GT$$u20$as$u20$core..ops..drop..Drop$GT$4drop17h4dabced1ae7ead39E', symObjAddr: 0x58A0, symBinAddr: 0x8DD0, symSize: 0x30 }
  - { offset: 0x1560C, size: 0x8, addend: 0x0, symName: '__ZN77_$LT$alloc..raw_vec..RawVec$LT$T$C$A$GT$$u20$as$u20$core..ops..drop..Drop$GT$4drop17h62efebbf0d695d55E', symObjAddr: 0x58D0, symBinAddr: 0x8E00, symSize: 0x30 }
  - { offset: 0x15648, size: 0x8, addend: 0x0, symName: '__ZN77_$LT$alloc..raw_vec..RawVec$LT$T$C$A$GT$$u20$as$u20$core..ops..drop..Drop$GT$4drop17h6b568a28fac4d222E', symObjAddr: 0x5900, symBinAddr: 0x8E30, symSize: 0x34 }
  - { offset: 0x15684, size: 0x8, addend: 0x0, symName: '__ZN77_$LT$alloc..raw_vec..RawVec$LT$T$C$A$GT$$u20$as$u20$core..ops..drop..Drop$GT$4drop17h700b87f5917dbd1eE', symObjAddr: 0x5934, symBinAddr: 0x8E64, symSize: 0x30 }
  - { offset: 0x156C0, size: 0x8, addend: 0x0, symName: '__ZN77_$LT$alloc..raw_vec..RawVec$LT$T$C$A$GT$$u20$as$u20$core..ops..drop..Drop$GT$4drop17h74a36dfa23370b67E', symObjAddr: 0x5964, symBinAddr: 0x8E94, symSize: 0x34 }
  - { offset: 0x156FC, size: 0x8, addend: 0x0, symName: '__ZN77_$LT$alloc..raw_vec..RawVec$LT$T$C$A$GT$$u20$as$u20$core..ops..drop..Drop$GT$4drop17h7635e534f94f58bdE', symObjAddr: 0x5998, symBinAddr: 0x8EC8, symSize: 0x34 }
  - { offset: 0x15738, size: 0x8, addend: 0x0, symName: '__ZN77_$LT$alloc..raw_vec..RawVec$LT$T$C$A$GT$$u20$as$u20$core..ops..drop..Drop$GT$4drop17h7e0a3b41a88d1e47E', symObjAddr: 0x59CC, symBinAddr: 0x8EFC, symSize: 0x34 }
  - { offset: 0x15774, size: 0x8, addend: 0x0, symName: '__ZN77_$LT$alloc..raw_vec..RawVec$LT$T$C$A$GT$$u20$as$u20$core..ops..drop..Drop$GT$4drop17h8a8ef3705a96c7edE', symObjAddr: 0x5A00, symBinAddr: 0x8F30, symSize: 0x34 }
  - { offset: 0x157B0, size: 0x8, addend: 0x0, symName: '__ZN77_$LT$alloc..raw_vec..RawVec$LT$T$C$A$GT$$u20$as$u20$core..ops..drop..Drop$GT$4drop17hbe37265bb7573525E', symObjAddr: 0x5A34, symBinAddr: 0x8F64, symSize: 0x30 }
  - { offset: 0x157EC, size: 0x8, addend: 0x0, symName: '__ZN77_$LT$alloc..raw_vec..RawVec$LT$T$C$A$GT$$u20$as$u20$core..ops..drop..Drop$GT$4drop17hcbfdb5ef1cdb2e70E', symObjAddr: 0x5A94, symBinAddr: 0x8F94, symSize: 0x30 }
  - { offset: 0x15828, size: 0x8, addend: 0x0, symName: '__ZN77_$LT$alloc..raw_vec..RawVec$LT$T$C$A$GT$$u20$as$u20$core..ops..drop..Drop$GT$4drop17hd40717dd9f359601E', symObjAddr: 0x5AC4, symBinAddr: 0x8FC4, symSize: 0x34 }
  - { offset: 0x15864, size: 0x8, addend: 0x0, symName: '__ZN77_$LT$alloc..raw_vec..RawVec$LT$T$C$A$GT$$u20$as$u20$core..ops..drop..Drop$GT$4drop17hd60f0e1d6398b429E', symObjAddr: 0x5AF8, symBinAddr: 0x8FF8, symSize: 0x34 }
  - { offset: 0x158A0, size: 0x8, addend: 0x0, symName: '__ZN77_$LT$alloc..raw_vec..RawVec$LT$T$C$A$GT$$u20$as$u20$core..ops..drop..Drop$GT$4drop17hf16ca1404e410145E', symObjAddr: 0x5B2C, symBinAddr: 0x902C, symSize: 0x34 }
  - { offset: 0x158DC, size: 0x8, addend: 0x0, symName: '__ZN77_$LT$alloc..raw_vec..RawVec$LT$T$C$A$GT$$u20$as$u20$core..ops..drop..Drop$GT$4drop17hf7abeb3073fb3f37E', symObjAddr: 0x5B60, symBinAddr: 0x9060, symSize: 0x34 }
  - { offset: 0x15AD9, size: 0x8, addend: 0x0, symName: '__ZN160_$LT$$LT$T$u20$as$u20$alloc..slice..$LT$impl$u20$$u5b$T$u5d$$GT$..to_vec_in..ConvertVec$GT$..to_vec..DropGuard$LT$T$C$A$GT$$u20$as$u20$core..ops..drop..Drop$GT$4drop17h9d408946d7758d4dE', symObjAddr: 0x3BC, symBinAddr: 0x3C44, symSize: 0x30 }
  - { offset: 0x15B6C, size: 0x8, addend: 0x0, symName: '__ZN174_$LT$$LT$alloc..collections..btree..map..IntoIter$LT$K$C$V$C$A$GT$$u20$as$u20$core..ops..drop..Drop$GT$..drop..DropGuard$LT$K$C$V$C$A$GT$$u20$as$u20$core..ops..drop..Drop$GT$4drop17h322e913d79329947E', symObjAddr: 0x3EC, symBinAddr: 0x3C74, symSize: 0x64 }
  - { offset: 0x15C01, size: 0x8, addend: 0x0, symName: '__ZN99_$LT$alloc..collections..btree..map..IntoIter$LT$K$C$V$C$A$GT$$u20$as$u20$core..ops..drop..Drop$GT$4drop17haaa4249ca20db3bbE', symObjAddr: 0x62FC, symBinAddr: 0x97FC, symSize: 0x9C }
  - { offset: 0x15D14, size: 0x8, addend: 0x0, symName: '__ZN99_$LT$alloc..collections..btree..map..BTreeMap$LT$K$C$V$C$A$GT$$u20$as$u20$core..ops..drop..Drop$GT$4drop17hca4fafba7c7fae04E', symObjAddr: 0x62B0, symBinAddr: 0x97B0, symSize: 0x4C }
  - { offset: 0x15DA7, size: 0x8, addend: 0x0, symName: '__ZN280_$LT$alloc..collections..btree..node..Handle$LT$alloc..collections..btree..node..NodeRef$LT$alloc..collections..btree..node..marker..Dying$C$K$C$V$C$NodeType$GT$$C$alloc..collections..btree..node..marker..KV$GT$..drop_key_val..Dropper$LT$T$GT$$u20$as$u20$core..ops..drop..Drop$GT$4drop17hb8294026fb9b862fE', symObjAddr: 0x450, symBinAddr: 0x3CD8, symSize: 0x1C }
  - { offset: 0x16056, size: 0x8, addend: 0x0, symName: '__ZN93_$LT$alloc..collections..btree..mem..replace..PanicGuard$u20$as$u20$core..ops..drop..Drop$GT$4drop17h957bad3784e8ad82E', symObjAddr: 0x62A4, symBinAddr: 0x97A4, symSize: 0xC }
  - { offset: 0x1625A, size: 0x8, addend: 0x0, symName: '__ZN71_$LT$alloc..sync..Arc$LT$T$C$A$GT$$u20$as$u20$core..ops..drop..Drop$GT$4drop17hb8cfdde7bd01a4b8E', symObjAddr: 0x5018, symBinAddr: 0x8610, symSize: 0xA8 }
  - { offset: 0x16406, size: 0x8, addend: 0x0, symName: '__ZN72_$LT$alloc..sync..Weak$LT$T$C$A$GT$$u20$as$u20$core..ops..drop..Drop$GT$4drop17hc4acb75e55acba27E', symObjAddr: 0x55D4, symBinAddr: 0x8BCC, symSize: 0x170 }
  - { offset: 0x166AD, size: 0x8, addend: 0x0, symName: '__ZN72_$LT$alloc..boxed..Box$LT$T$C$A$GT$$u20$as$u20$core..ops..drop..Drop$GT$4drop17h14460f9d3359a0e4E', symObjAddr: 0x50C0, symBinAddr: 0x86B8, symSize: 0xB8 }
  - { offset: 0x167E8, size: 0x8, addend: 0x0, symName: '__ZN72_$LT$alloc..boxed..Box$LT$T$C$A$GT$$u20$as$u20$core..ops..drop..Drop$GT$4drop17h222a139cc3991d37E', symObjAddr: 0x5178, symBinAddr: 0x8770, symSize: 0xB8 }
  - { offset: 0x16923, size: 0x8, addend: 0x0, symName: '__ZN72_$LT$alloc..boxed..Box$LT$T$C$A$GT$$u20$as$u20$core..ops..drop..Drop$GT$4drop17h60d2a585f3f77b3cE', symObjAddr: 0x5230, symBinAddr: 0x8828, symSize: 0xB8 }
  - { offset: 0x16A5E, size: 0x8, addend: 0x0, symName: '__ZN72_$LT$alloc..boxed..Box$LT$T$C$A$GT$$u20$as$u20$core..ops..drop..Drop$GT$4drop17h6c7c39835302e615E', symObjAddr: 0x52E8, symBinAddr: 0x88E0, symSize: 0xB8 }
  - { offset: 0x16B99, size: 0x8, addend: 0x0, symName: '__ZN72_$LT$alloc..boxed..Box$LT$T$C$A$GT$$u20$as$u20$core..ops..drop..Drop$GT$4drop17h9d49d94c2621af7cE', symObjAddr: 0x53A0, symBinAddr: 0x8998, symSize: 0xB8 }
  - { offset: 0x16CD4, size: 0x8, addend: 0x0, symName: '__ZN72_$LT$alloc..boxed..Box$LT$T$C$A$GT$$u20$as$u20$core..ops..drop..Drop$GT$4drop17hac14e8056a33cde6E', symObjAddr: 0x5458, symBinAddr: 0x8A50, symSize: 0xC4 }
  - { offset: 0x16E0F, size: 0x8, addend: 0x0, symName: '__ZN72_$LT$alloc..boxed..Box$LT$T$C$A$GT$$u20$as$u20$core..ops..drop..Drop$GT$4drop17hb7f254c8ac3f8e49E', symObjAddr: 0x551C, symBinAddr: 0x8B14, symSize: 0xB8 }
  - { offset: 0x1750E, size: 0x8, addend: 0x0, symName: '__ZN69_$LT$pyo3..instance..Py$LT$T$GT$$u20$as$u20$core..ops..drop..Drop$GT$4drop17ha0aa254ec5b94b19E', symObjAddr: 0x4CA8, symBinAddr: 0x82C4, symSize: 0x28 }
  - { offset: 0x1759B, size: 0x8, addend: 0x0, symName: '__ZN72_$LT$pyo3..instance..Bound$LT$T$GT$$u20$as$u20$core..ops..drop..Drop$GT$4drop17h73ded388af0365d5E', symObjAddr: 0x5744, symBinAddr: 0x8D3C, symSize: 0x30 }
  - { offset: 0x178DD, size: 0x8, addend: 0x0, symName: '__ZN70_$LT$pyo3..pycell..PyRef$LT$T$GT$$u20$as$u20$core..ops..drop..Drop$GT$4drop17h7573f2d5cced28aaE', symObjAddr: 0x4FEC, symBinAddr: 0x85E4, symSize: 0x2C }
  - { offset: 0x1922E, size: 0x8, addend: 0x0, symName: '__ZN79_$LT$hashbrown..raw..RawTable$LT$T$C$A$GT$$u20$as$u20$core..ops..drop..Drop$GT$4drop17h2b93dc8ee62e2340E', symObjAddr: 0x5B94, symBinAddr: 0x9094, symSize: 0x3C }
  - { offset: 0x1926A, size: 0x8, addend: 0x0, symName: '__ZN79_$LT$hashbrown..raw..RawTable$LT$T$C$A$GT$$u20$as$u20$core..ops..drop..Drop$GT$4drop17h367c2c5c450416a4E', symObjAddr: 0x5BD0, symBinAddr: 0x90D0, symSize: 0x3C }
  - { offset: 0x192A6, size: 0x8, addend: 0x0, symName: '__ZN79_$LT$hashbrown..raw..RawTable$LT$T$C$A$GT$$u20$as$u20$core..ops..drop..Drop$GT$4drop17h5b60ad45d39d2ad8E', symObjAddr: 0x5C0C, symBinAddr: 0x910C, symSize: 0x3C }
  - { offset: 0x192E2, size: 0x8, addend: 0x0, symName: '__ZN79_$LT$hashbrown..raw..RawTable$LT$T$C$A$GT$$u20$as$u20$core..ops..drop..Drop$GT$4drop17h92dc451cc6bc0104E', symObjAddr: 0x5C48, symBinAddr: 0x9148, symSize: 0x3C }
  - { offset: 0x1931E, size: 0x8, addend: 0x0, symName: '__ZN79_$LT$hashbrown..raw..RawTable$LT$T$C$A$GT$$u20$as$u20$core..ops..drop..Drop$GT$4drop17ha4d8dd11f9bf2bb6E', symObjAddr: 0x5C84, symBinAddr: 0x9184, symSize: 0x3C }
  - { offset: 0x1935A, size: 0x8, addend: 0x0, symName: '__ZN79_$LT$hashbrown..raw..RawTable$LT$T$C$A$GT$$u20$as$u20$core..ops..drop..Drop$GT$4drop17hb1bedc2383f7b12bE', symObjAddr: 0x5CC0, symBinAddr: 0x91C0, symSize: 0x3C }
  - { offset: 0x19396, size: 0x8, addend: 0x0, symName: '__ZN79_$LT$hashbrown..raw..RawTable$LT$T$C$A$GT$$u20$as$u20$core..ops..drop..Drop$GT$4drop17hb37aceafbd387779E', symObjAddr: 0x5CFC, symBinAddr: 0x91FC, symSize: 0x3C }
  - { offset: 0x193D2, size: 0x8, addend: 0x0, symName: '__ZN79_$LT$hashbrown..raw..RawTable$LT$T$C$A$GT$$u20$as$u20$core..ops..drop..Drop$GT$4drop17hc98c2384a72ec379E', symObjAddr: 0x5D38, symBinAddr: 0x9238, symSize: 0x3C }
  - { offset: 0x1940E, size: 0x8, addend: 0x0, symName: '__ZN79_$LT$hashbrown..raw..RawTable$LT$T$C$A$GT$$u20$as$u20$core..ops..drop..Drop$GT$4drop17he74b5b7a683ab467E', symObjAddr: 0x5D74, symBinAddr: 0x9274, symSize: 0x3C }
  - { offset: 0x1944A, size: 0x8, addend: 0x0, symName: '__ZN79_$LT$hashbrown..raw..RawTable$LT$T$C$A$GT$$u20$as$u20$core..ops..drop..Drop$GT$4drop17hfb52e7f893cc6024E', symObjAddr: 0x5DB0, symBinAddr: 0x92B0, symSize: 0x3C }
  - { offset: 0x1948C, size: 0x8, addend: 0x0, symName: '__ZN82_$LT$hashbrown..raw..RawIntoIter$LT$T$C$A$GT$$u20$as$u20$core..ops..drop..Drop$GT$4drop17he9adc5b8afb9fe03E', symObjAddr: 0x5DEC, symBinAddr: 0x92EC, symSize: 0x74 }
  - { offset: 0x1BFAE, size: 0x8, addend: 0x0, symName: '__ZN4core5slice29_$LT$impl$u20$$u5b$T$u5d$$GT$18split_at_unchecked18precondition_check17h6b6162efb5a08a97E', symObjAddr: 0x0, symBinAddr: 0x9898, symSize: 0xAC }
  - { offset: 0x1C2D5, size: 0x8, addend: 0x0, symName: '__ZN4core5slice29_$LT$impl$u20$$u5b$T$u5d$$GT$18split_at_unchecked18precondition_check17h6b6162efb5a08a97E', symObjAddr: 0x0, symBinAddr: 0x9898, symSize: 0xAC }
  - { offset: 0x1C4E4, size: 0x8, addend: 0x0, symName: '__ZN108_$LT$alloc..collections..btree..map..Iter$LT$K$C$V$GT$$u20$as$u20$core..iter..traits..iterator..Iterator$GT$4next17h52c1cb47290aa556E', symObjAddr: 0x0, symBinAddr: 0x9944, symSize: 0xB0 }
  - { offset: 0x1CC57, size: 0x8, addend: 0x0, symName: '__ZN108_$LT$alloc..collections..btree..map..Iter$LT$K$C$V$GT$$u20$as$u20$core..iter..traits..iterator..Iterator$GT$4next17h52c1cb47290aa556E', symObjAddr: 0x0, symBinAddr: 0x9944, symSize: 0xB0 }
  - { offset: 0x1CD2B, size: 0x8, addend: 0x0, symName: '__ZN116_$LT$alloc..collections..btree..map..IntoIter$LT$K$C$V$C$A$GT$$u20$as$u20$core..iter..traits..iterator..Iterator$GT$4next17h35257906229782aaE', symObjAddr: 0xB0, symBinAddr: 0x99F4, symSize: 0x74 }
  - { offset: 0x1CE9D, size: 0x8, addend: 0x0, symName: '__ZN119_$LT$alloc..collections..btree..map..BTreeMap$LT$K$C$V$C$A$GT$$u20$as$u20$core..iter..traits..collect..IntoIterator$GT$9into_iter17he2ce5bd8adfdd868E', symObjAddr: 0x124, symBinAddr: 0x9A68, symSize: 0x190 }
  - { offset: 0x1DF01, size: 0x8, addend: 0x0, symName: '__ZN5alloc11collections5btree3map25BTreeMap$LT$K$C$V$C$A$GT$5entry17h9ae5dc2a649e7dfeE', symObjAddr: 0x2B4, symBinAddr: 0x9BF8, symSize: 0x25C }
  - { offset: 0x1E0A1, size: 0x8, addend: 0x0, symName: '__ZN5alloc11collections5btree3map25BTreeMap$LT$K$C$V$C$A$GT$6insert17h52091aeebe0ba8e8E', symObjAddr: 0x510, symBinAddr: 0x9E54, symSize: 0x11C }
  - { offset: 0x1E167, size: 0x8, addend: 0x0, symName: '__ZN5alloc11collections5btree3map25IntoIter$LT$K$C$V$C$A$GT$10dying_next17hec151f8894730a8bE', symObjAddr: 0x62C, symBinAddr: 0x9F70, symSize: 0x90 }
  - { offset: 0x1E1D0, size: 0x8, addend: 0x0, symName: '__ZN4core3f6421_$LT$impl$u20$f64$GT$13from_be_bytes17h7c493c224d9fb889E', symObjAddr: 0x0, symBinAddr: 0xA000, symSize: 0x30 }
  - { offset: 0x1E270, size: 0x8, addend: 0x0, symName: '__ZN4core3f6421_$LT$impl$u20$f64$GT$13from_be_bytes17h7c493c224d9fb889E', symObjAddr: 0x0, symBinAddr: 0xA000, symSize: 0x30 }
  - { offset: 0x1E327, size: 0x8, addend: 0x0, symName: '__ZN4core3f6421_$LT$impl$u20$f64$GT$13from_le_bytes17h01319468df3841e1E', symObjAddr: 0x30, symBinAddr: 0xA030, symSize: 0x1C }
  - { offset: 0x1E3B4, size: 0x8, addend: 0x0, symName: '__ZN63_$LT$wellen..vcd..VcdParseError$u20$as$u20$core..fmt..Debug$GT$3fmt17hd34c86b4f947f1e9E', symObjAddr: 0x0, symBinAddr: 0xA04C, symSize: 0x39C }
  - { offset: 0x201F7, size: 0x8, addend: 0x0, symName: '__ZN63_$LT$wellen..vcd..VcdParseError$u20$as$u20$core..fmt..Debug$GT$3fmt17hd34c86b4f947f1e9E', symObjAddr: 0x0, symBinAddr: 0xA04C, symSize: 0x39C }
  - { offset: 0x203D4, size: 0x8, addend: 0x0, symName: '__ZN65_$LT$wellen..vcd..IdTracker$u20$as$u20$core..default..Default$GT$7default17h9c528dfd779ba7adE', symObjAddr: 0x39C, symBinAddr: 0xA3E8, symSize: 0x40 }
  - { offset: 0x20461, size: 0x8, addend: 0x0, symName: __ZN6wellen3vcd11find_tokens17hb4b1b7ccc965e533E, symObjAddr: 0x47C, symBinAddr: 0xA4C8, symSize: 0x50 }
  - { offset: 0x2048F, size: 0x8, addend: 0x0, symName: __ZN6wellen3vcd11right_strip17h6c22b9100db821c6E, symObjAddr: 0x4CC, symBinAddr: 0xA518, symSize: 0xBC }
  - { offset: 0x2053B, size: 0x8, addend: 0x0, symName: __ZN6wellen3vcd19unexpected_n_tokens17he8974f58813903d4E, symObjAddr: 0x6F4, symBinAddr: 0xA740, symSize: 0xC0 }
  - { offset: 0x20578, size: 0x8, addend: 0x0, symName: __ZN6wellen3vcd9id_to_int17h1a1a8f3eb1b4dfe5E, symObjAddr: 0x7B4, symBinAddr: 0xA800, symSize: 0x1A4 }
  - { offset: 0x20623, size: 0x8, addend: 0x0, symName: '__ZN72_$LT$wellen..vcd..VcdEncoder$u20$as$u20$wellen..vcd..ParseBodyOutput$GT$4time17h0958685cfe9f8aafE', symObjAddr: 0x958, symBinAddr: 0xA9A4, symSize: 0x40 }
  - { offset: 0x20660, size: 0x8, addend: 0x0, symName: '__ZN72_$LT$wellen..vcd..VcdEncoder$u20$as$u20$wellen..vcd..ParseBodyOutput$GT$5value17hf2b0410cd84e6f44E', symObjAddr: 0x998, symBinAddr: 0xA9E4, symSize: 0x1D0 }
  - { offset: 0x20B1A, size: 0x8, addend: 0x0, symName: __ZN6wellen3vcd10VcdEncoder10into_inner17h4a72c0fd264ec82cE, symObjAddr: 0x3DC, symBinAddr: 0xA428, symSize: 0x30 }
  - { offset: 0x20B95, size: 0x8, addend: 0x0, symName: __ZN6wellen3vcd10VcdEncoder3new17ha19e5e979bfe30b8E, symObjAddr: 0x40C, symBinAddr: 0xA458, symSize: 0x70 }
  - { offset: 0x20C64, size: 0x8, addend: 0x0, symName: __ZN6wellen3vcd16ProgressReporter3new17he11398d2956a03e5E, symObjAddr: 0x588, symBinAddr: 0xA5D4, symSize: 0x94 }
  - { offset: 0x20CD7, size: 0x8, addend: 0x0, symName: __ZN6wellen3vcd16ProgressReporter6report17hedcc913cb7c92c82E, symObjAddr: 0x61C, symBinAddr: 0xA668, symSize: 0xD8 }
  - { offset: 0x20E5B, size: 0x8, addend: 0x0, symName: '__ZN96_$LT$pyo3..pycell..impl_..BorrowChecker$u20$as$u20$pyo3..pycell..impl_..PyClassBorrowChecker$GT$3new17hfa28f564172ed329E', symObjAddr: 0x0, symBinAddr: 0xABB4, symSize: 0x40 }
  - { offset: 0x20E7C, size: 0x8, addend: 0x0, symName: '__ZN96_$LT$pyo3..pycell..impl_..BorrowChecker$u20$as$u20$pyo3..pycell..impl_..PyClassBorrowChecker$GT$3new17hfa28f564172ed329E', symObjAddr: 0x0, symBinAddr: 0xABB4, symSize: 0x40 }
  - { offset: 0x20F37, size: 0x8, addend: 0x0, symName: '__ZN4core3cmp5impls69_$LT$impl$u20$core..cmp..PartialEq$LT$$RF$B$GT$$u20$for$u20$$RF$A$GT$2ne17h53a6ebd185e5cf60E', symObjAddr: 0x0, symBinAddr: 0xABF4, symSize: 0x40 }
  - { offset: 0x20F58, size: 0x8, addend: 0x0, symName: '__ZN4core3cmp5impls69_$LT$impl$u20$core..cmp..PartialEq$LT$$RF$B$GT$$u20$for$u20$$RF$A$GT$2ne17h53a6ebd185e5cf60E', symObjAddr: 0x0, symBinAddr: 0xABF4, symSize: 0x40 }
  - { offset: 0x20FA7, size: 0x8, addend: 0x0, symName: '__ZN4core3cmp5impls69_$LT$impl$u20$core..cmp..PartialEq$LT$$RF$B$GT$$u20$for$u20$$RF$A$GT$2ne17h6eed5955a8d542c4E', symObjAddr: 0x40, symBinAddr: 0xAC34, symSize: 0x34 }
  - { offset: 0x2108F, size: 0x8, addend: 0x0, symName: '__ZN4pyo35impl_7pyclass16lazy_type_object23LazyTypeObject$LT$T$GT$11get_or_init17h2e5c7685bde94e47E', symObjAddr: 0x0, symBinAddr: 0xAC68, symSize: 0x40 }
  - { offset: 0x2192A, size: 0x8, addend: 0x0, symName: '__ZN4pyo35impl_7pyclass16lazy_type_object23LazyTypeObject$LT$T$GT$11get_or_init28_$u7b$$u7b$closure$u7d$$u7d$17h5ca8c8d7d03f6fe3E', symObjAddr: 0x40, symBinAddr: 0xACA8, symSize: 0x98 }
  - { offset: 0x235A4, size: 0x8, addend: 0x0, symName: '__ZN4pyo35impl_7pyclass16lazy_type_object23LazyTypeObject$LT$T$GT$11get_or_init17h2e5c7685bde94e47E', symObjAddr: 0x0, symBinAddr: 0xAC68, symSize: 0x40 }
  - { offset: 0x235E8, size: 0x8, addend: 0x0, symName: '__ZN4pyo35impl_7pyclass16lazy_type_object23LazyTypeObject$LT$T$GT$15get_or_try_init17h6d92bdcbf88cf259E', symObjAddr: 0xD8, symBinAddr: 0xAD40, symSize: 0x58 }
  - { offset: 0x236F0, size: 0x8, addend: 0x0, symName: '__ZN4pyo311conversions3std6option90_$LT$impl$u20$pyo3..conversion..IntoPyObject$u20$for$u20$core..option..Option$LT$T$GT$$GT$13into_pyobject28_$u7b$$u7b$closure$u7d$$u7d$17h1128f1686e7d955bE', symObjAddr: 0x0, symBinAddr: 0xAD98, symSize: 0x34 }
  - { offset: 0x237A0, size: 0x8, addend: 0x0, symName: '__ZN4pyo311conversions3std6option90_$LT$impl$u20$pyo3..conversion..IntoPyObject$u20$for$u20$core..option..Option$LT$T$GT$$GT$13into_pyobject28_$u7b$$u7b$closure$u7d$$u7d$17h1128f1686e7d955bE', symObjAddr: 0x0, symBinAddr: 0xAD98, symSize: 0x34 }
  - { offset: 0x237EE, size: 0x8, addend: 0x0, symName: '__ZN4pyo311conversions3std6option90_$LT$impl$u20$pyo3..conversion..IntoPyObject$u20$for$u20$core..option..Option$LT$T$GT$$GT$13into_pyobject28_$u7b$$u7b$closure$u7d$$u7d$17h6d59862dbb08f922E', symObjAddr: 0x34, symBinAddr: 0xADCC, symSize: 0x24 }
  - { offset: 0x2382E, size: 0x8, addend: 0x0, symName: '__ZN4pyo311conversions3std6option90_$LT$impl$u20$pyo3..conversion..IntoPyObject$u20$for$u20$core..option..Option$LT$T$GT$$GT$13into_pyobject28_$u7b$$u7b$closure$u7d$$u7d$17hc786d799f1cde06aE', symObjAddr: 0x58, symBinAddr: 0xADF0, symSize: 0x24 }
  - { offset: 0x2386E, size: 0x8, addend: 0x0, symName: '__ZN4pyo311conversions3std6option90_$LT$impl$u20$pyo3..conversion..IntoPyObject$u20$for$u20$core..option..Option$LT$T$GT$$GT$13into_pyobject28_$u7b$$u7b$closure$u7d$$u7d$17he358971ce0af7dd5E', symObjAddr: 0x7C, symBinAddr: 0xAE14, symSize: 0x2C }
  - { offset: 0x23C16, size: 0x8, addend: 0x0, symName: '__ZN106_$LT$core..ops..range..Range$LT$usize$GT$$u20$as$u20$core..slice..index..SliceIndex$LT$$u5b$T$u5d$$GT$$GT$13get_unchecked18precondition_check17h4e01c00261c5b77aE', symObjAddr: 0x0, symBinAddr: 0xAE40, symSize: 0xCC }
  - { offset: 0x23F42, size: 0x8, addend: 0x0, symName: '__ZN106_$LT$core..ops..range..Range$LT$usize$GT$$u20$as$u20$core..slice..index..SliceIndex$LT$$u5b$T$u5d$$GT$$GT$13get_unchecked18precondition_check17h4e01c00261c5b77aE', symObjAddr: 0x0, symBinAddr: 0xAE40, symSize: 0xCC }
  - { offset: 0x23FBE, size: 0x8, addend: 0x0, symName: '__ZN106_$LT$core..ops..range..Range$LT$usize$GT$$u20$as$u20$core..slice..index..SliceIndex$LT$$u5b$T$u5d$$GT$$GT$17get_unchecked_mut18precondition_check17hc070008aa886b33fE', symObjAddr: 0xCC, symBinAddr: 0xAF0C, symSize: 0xCC }
  - { offset: 0x24040, size: 0x8, addend: 0x0, symName: '__ZN75_$LT$usize$u20$as$u20$core..slice..index..SliceIndex$LT$$u5b$T$u5d$$GT$$GT$13get_unchecked18precondition_check17h909759156f538280E', symObjAddr: 0x198, symBinAddr: 0xAFD8, symSize: 0xAC }
  - { offset: 0x240AE, size: 0x8, addend: 0x0, symName: '__ZN75_$LT$usize$u20$as$u20$core..slice..index..SliceIndex$LT$$u5b$T$u5d$$GT$$GT$17get_unchecked_mut18precondition_check17hbfa95ecf34598e14E', symObjAddr: 0x244, symBinAddr: 0xB084, symSize: 0xAC }
  - { offset: 0x242F4, size: 0x8, addend: 0x0, symName: __ZN4pyo35types4list17try_new_from_iter17h35a85babdd763f7aE, symObjAddr: 0x0, symBinAddr: 0xB130, symSize: 0x2A0 }
  - { offset: 0x24C1D, size: 0x8, addend: 0x0, symName: __ZN4pyo35types4list17try_new_from_iter17h35a85babdd763f7aE, symObjAddr: 0x0, symBinAddr: 0xB130, symSize: 0x2A0 }
  - { offset: 0x24D3A, size: 0x8, addend: 0x0, symName: __ZN4pyo35types4list17try_new_from_iter17h92a23f5e2a53abdcE, symObjAddr: 0x2A0, symBinAddr: 0xB3D0, symSize: 0x2A0 }
  - { offset: 0x24E57, size: 0x8, addend: 0x0, symName: __ZN4pyo35types4list17try_new_from_iter17hc9fdf38b1ed6f372E, symObjAddr: 0x540, symBinAddr: 0xB670, symSize: 0x2A0 }
  - { offset: 0x24F79, size: 0x8, addend: 0x0, symName: '__ZN4pyo35types4list17try_new_from_iter28_$u7b$$u7b$closure$u7d$$u7d$17h02d08380bec4ae3fE', symObjAddr: 0x7E0, symBinAddr: 0xB910, symSize: 0xDC }
  - { offset: 0x24FEC, size: 0x8, addend: 0x0, symName: '__ZN4pyo35types4list17try_new_from_iter28_$u7b$$u7b$closure$u7d$$u7d$17h0ade9f3bf42e8062E', symObjAddr: 0x8BC, symBinAddr: 0xB9EC, symSize: 0xDC }
  - { offset: 0x2505F, size: 0x8, addend: 0x0, symName: '__ZN4pyo35types4list17try_new_from_iter28_$u7b$$u7b$closure$u7d$$u7d$17hfa1608aa3f06b8efE', symObjAddr: 0x998, symBinAddr: 0xBAC8, symSize: 0xDC }
  - { offset: 0x251A0, size: 0x8, addend: 0x0, symName: '__ZN4pyo35types4list6PyList3new28_$u7b$$u7b$closure$u7d$$u7d$17hb0d134b9a538a147E', symObjAddr: 0xB58, symBinAddr: 0xBC88, symSize: 0x30 }
  - { offset: 0x25200, size: 0x8, addend: 0x0, symName: '__ZN4pyo35types4list6PyList3new28_$u7b$$u7b$closure$u7d$$u7d$17hdf7183d2151e6353E', symObjAddr: 0xB88, symBinAddr: 0xBCB8, symSize: 0x30 }
  - { offset: 0x25260, size: 0x8, addend: 0x0, symName: '__ZN4pyo35types4list6PyList3new28_$u7b$$u7b$closure$u7d$$u7d$17hea84301356d349faE', symObjAddr: 0xBB8, symBinAddr: 0xBCE8, symSize: 0x30 }
  - { offset: 0x25ACE, size: 0x8, addend: 0x0, symName: __ZN4pyo35types4list6PyList3new17h6c3e4df5944c8743E, symObjAddr: 0xA74, symBinAddr: 0xBBA4, symSize: 0x4C }
  - { offset: 0x25B68, size: 0x8, addend: 0x0, symName: __ZN4pyo35types4list6PyList3new17h71edf1b75df86f2cE, symObjAddr: 0xAC0, symBinAddr: 0xBBF0, symSize: 0x4C }
  - { offset: 0x25C02, size: 0x8, addend: 0x0, symName: __ZN4pyo35types4list6PyList3new17hfd91037c82eee1cdE, symObjAddr: 0xB0C, symBinAddr: 0xBC3C, symSize: 0x4C }
  - { offset: 0x25CE1, size: 0x8, addend: 0x0, symName: '__ZN3std2io5impls60_$LT$impl$u20$std..io..Read$u20$for$u20$$RF$$u5b$u8$u5d$$GT$10read_exact17h438c55166b4d035eE', symObjAddr: 0x0, symBinAddr: 0xBD18, symSize: 0x220 }
  - { offset: 0x25F54, size: 0x8, addend: 0x0, symName: '__ZN3std2io5impls60_$LT$impl$u20$std..io..Read$u20$for$u20$$RF$$u5b$u8$u5d$$GT$10read_exact17h438c55166b4d035eE', symObjAddr: 0x0, symBinAddr: 0xBD18, symSize: 0x220 }
  - { offset: 0x2603F, size: 0x8, addend: 0x0, symName: '__ZN3std2io5impls60_$LT$impl$u20$std..io..Read$u20$for$u20$$RF$$u5b$u8$u5d$$GT$4read17h0debf820b38d87bdE', symObjAddr: 0x220, symBinAddr: 0xBF38, symSize: 0x23C }
  - { offset: 0x261F9, size: 0x8, addend: 0x0, symName: '__ZN3std2io5impls60_$LT$impl$u20$std..io..Read$u20$for$u20$$RF$$u5b$u8$u5d$$GT$8read_buf17h28309fa132416587E', symObjAddr: 0x45C, symBinAddr: 0xC174, symSize: 0x148 }
  - { offset: 0x26FBF, size: 0x8, addend: 0x0, symName: __ZN4pyo35types4none6PyNone3get17h8769904f38dd2ccfE, symObjAddr: 0x0, symBinAddr: 0xC2BC, symSize: 0x2C }
  - { offset: 0x272CE, size: 0x8, addend: 0x0, symName: __ZN4pyo35types4none6PyNone3get17h8769904f38dd2ccfE, symObjAddr: 0x0, symBinAddr: 0xC2BC, symSize: 0x2C }
  - { offset: 0x27319, size: 0x8, addend: 0x0, symName: '__ZN59_$LT$std..fs..File$u20$as$u20$std..os..fd..raw..AsRawFd$GT$9as_raw_fd17h46d52f47fc73d063E', symObjAddr: 0x0, symBinAddr: 0xC2E8, symSize: 0x18 }
  - { offset: 0x27370, size: 0x8, addend: 0x0, symName: '__ZN59_$LT$std..fs..File$u20$as$u20$std..os..fd..raw..AsRawFd$GT$9as_raw_fd17h46d52f47fc73d063E', symObjAddr: 0x0, symBinAddr: 0xC2E8, symSize: 0x18 }
  - { offset: 0x274CB, size: 0x8, addend: 0x0, symName: '__ZN47_$LT$i64$u20$as$u20$core..iter..range..Step$GT$17forward_unchecked17h1176b80d7e7f41abE', symObjAddr: 0x0, symBinAddr: 0xC300, symSize: 0x94 }
  - { offset: 0x276C2, size: 0x8, addend: 0x0, symName: '__ZN47_$LT$i64$u20$as$u20$core..iter..range..Step$GT$17forward_unchecked17h1176b80d7e7f41abE', symObjAddr: 0x0, symBinAddr: 0xC300, symSize: 0x94 }
  - { offset: 0x2789D, size: 0x8, addend: 0x0, symName: '__ZN58_$LT$u64$u20$as$u20$core..ops..bit..Shr$LT$$RF$u32$GT$$GT$3shr17he47626e1da4febf7E', symObjAddr: 0x0, symBinAddr: 0xC394, symSize: 0x5C }
  - { offset: 0x278EE, size: 0x8, addend: 0x0, symName: '__ZN58_$LT$u64$u20$as$u20$core..ops..bit..Shr$LT$$RF$u32$GT$$GT$3shr17he47626e1da4febf7E', symObjAddr: 0x0, symBinAddr: 0xC394, symSize: 0x5C }
  - { offset: 0x27982, size: 0x8, addend: 0x0, symName: __ZN4core5alloc6layout6Layout25from_size_align_unchecked18precondition_check17h94b748abeb5f03e0E, symObjAddr: 0x0, symBinAddr: 0xC3F0, symSize: 0xBC }
  - { offset: 0x27CAE, size: 0x8, addend: 0x0, symName: __ZN4core5alloc6layout6Layout25from_size_align_unchecked18precondition_check17h94b748abeb5f03e0E, symObjAddr: 0x0, symBinAddr: 0xC3F0, symSize: 0xBC }
  - { offset: 0x27EBE, size: 0x8, addend: 0x0, symName: __ZN4core4char7methods15encode_utf8_raw17h6f101b2d975e6189E, symObjAddr: 0x0, symBinAddr: 0xC4AC, symSize: 0x110 }
  - { offset: 0x27F2C, size: 0x8, addend: 0x0, symName: __ZN4core4char7methods15encode_utf8_raw17h6f101b2d975e6189E, symObjAddr: 0x0, symBinAddr: 0xC4AC, symSize: 0x110 }
  - { offset: 0x28013, size: 0x8, addend: 0x0, symName: '__ZN4core4char7methods22_$LT$impl$u20$char$GT$10from_digit17hd5533dbec402148eE', symObjAddr: 0x110, symBinAddr: 0xC5BC, symSize: 0x24 }
  - { offset: 0x28050, size: 0x8, addend: 0x0, symName: '__ZN4core4char7methods22_$LT$impl$u20$char$GT$13is_whitespace17h37ac98cd08be9fbaE', symObjAddr: 0x134, symBinAddr: 0xC5E0, symSize: 0x90 }
  - { offset: 0x28094, size: 0x8, addend: 0x0, symName: '__ZN4core4char7methods22_$LT$impl$u20$char$GT$8to_digit17h89630bc1a6dd3cb9E', symObjAddr: 0x1C4, symBinAddr: 0xC670, symSize: 0x14C }
  - { offset: 0x28160, size: 0x8, addend: 0x0, symName: __ZN4core4char7methods25encode_utf8_raw_unchecked17h63e08f47298f3ebaE, symObjAddr: 0x310, symBinAddr: 0xC7BC, symSize: 0x188 }
  - { offset: 0x28996, size: 0x8, addend: 0x0, symName: __ZN3std2fs11OpenOptions4open17hb04d73ada1cd6006E, symObjAddr: 0x0, symBinAddr: 0xC944, symSize: 0x74 }
  - { offset: 0x28C09, size: 0x8, addend: 0x0, symName: '__ZN3std2io5impls57_$LT$impl$u20$std..io..Read$u20$for$u20$$RF$mut$u20$R$GT$8read_buf17h6900dec2a202cc96E', symObjAddr: 0x1DC, symBinAddr: 0xCB20, symSize: 0x30 }
  - { offset: 0x2917E, size: 0x8, addend: 0x0, symName: __ZN3std2fs11OpenOptions4open17hb04d73ada1cd6006E, symObjAddr: 0x0, symBinAddr: 0xC944, symSize: 0x74 }
  - { offset: 0x29205, size: 0x8, addend: 0x0, symName: __ZN3std2fs4File4open17ha266f2a90c59dde1E, symObjAddr: 0x74, symBinAddr: 0xC9B8, symSize: 0xB4 }
  - { offset: 0x292C1, size: 0x8, addend: 0x0, symName: __ZN3std2fs4File4open17hbb0f20dece513211E, symObjAddr: 0x128, symBinAddr: 0xCA6C, symSize: 0xB4 }
  - { offset: 0x29355, size: 0x8, addend: 0x0, symName: '__ZN48_$LT$$RF$T$u20$as$u20$memmap2..MmapAsRawDesc$GT$11as_raw_desc17h98d1130fbe138bc0E', symObjAddr: 0x20C, symBinAddr: 0xCB50, symSize: 0x28 }
  - { offset: 0x2942E, size: 0x8, addend: 0x0, symName: __ZN4core5slice3raw14from_raw_parts17h264d60500ec74bc3E, symObjAddr: 0x0, symBinAddr: 0xCB78, symSize: 0x58 }
  - { offset: 0x294CF, size: 0x8, addend: 0x0, symName: __ZN4core5slice3raw14from_raw_parts17h264d60500ec74bc3E, symObjAddr: 0x0, symBinAddr: 0xCB78, symSize: 0x58 }
  - { offset: 0x29512, size: 0x8, addend: 0x0, symName: __ZN4core5slice3raw14from_raw_parts17he940410290c56744E, symObjAddr: 0x58, symBinAddr: 0xCBD0, symSize: 0x58 }
  - { offset: 0x2989A, size: 0x8, addend: 0x0, symName: '__ZN4core3str6traits112_$LT$impl$u20$core..slice..index..SliceIndex$LT$str$GT$$u20$for$u20$core..ops..range..RangeFrom$LT$usize$GT$$GT$3get17h41839d61cfddd896E', symObjAddr: 0x0, symBinAddr: 0xCC28, symSize: 0x150 }
  - { offset: 0x29925, size: 0x8, addend: 0x0, symName: '__ZN4core3str6traits112_$LT$impl$u20$core..slice..index..SliceIndex$LT$str$GT$$u20$for$u20$core..ops..range..RangeFrom$LT$usize$GT$$GT$3get17h41839d61cfddd896E', symObjAddr: 0x0, symBinAddr: 0xCC28, symSize: 0x150 }
  - { offset: 0x29D41, size: 0x8, addend: 0x0, symName: __ZN4core3fmt2rt8Argument10from_usize17h96fab5d9370a15e8E, symObjAddr: 0x0, symBinAddr: 0xCD78, symSize: 0xA8 }
  - { offset: 0x2A2A7, size: 0x8, addend: 0x0, symName: __ZN4core3fmt2rt8Argument10from_usize17h96fab5d9370a15e8E, symObjAddr: 0x0, symBinAddr: 0xCD78, symSize: 0xA8 }
  - { offset: 0x2A2FC, size: 0x8, addend: 0x0, symName: __ZN4core3fmt8builders9DebugList7entries17h6edc3fb3bcde4405E, symObjAddr: 0x0, symBinAddr: 0xCE20, symSize: 0xD0 }
  - { offset: 0x2A984, size: 0x8, addend: 0x0, symName: __ZN4core3fmt8builders9DebugList7entries17h6edc3fb3bcde4405E, symObjAddr: 0x0, symBinAddr: 0xCE20, symSize: 0xD0 }
  - { offset: 0x2AA09, size: 0x8, addend: 0x0, symName: __ZN4core3fmt8builders9DebugList7entries17h72e4a9dd9c9224f3E, symObjAddr: 0xD0, symBinAddr: 0xCEF0, symSize: 0xD0 }
  - { offset: 0x2AA8E, size: 0x8, addend: 0x0, symName: __ZN4core3fmt8builders9DebugList7entries17ha29899ecb86f94faE, symObjAddr: 0x1A0, symBinAddr: 0xCFC0, symSize: 0xD0 }
  - { offset: 0x2AB24, size: 0x8, addend: 0x0, symName: '__ZN42_$LT$$RF$T$u20$as$u20$core..fmt..Debug$GT$3fmt17h52b2dd70f7fc55f5E', symObjAddr: 0x0, symBinAddr: 0xD090, symSize: 0x30 }
  - { offset: 0x2AB8B, size: 0x8, addend: 0x0, symName: '__ZN42_$LT$$RF$T$u20$as$u20$core..fmt..Debug$GT$3fmt17h52b2dd70f7fc55f5E', symObjAddr: 0x0, symBinAddr: 0xD090, symSize: 0x30 }
  - { offset: 0x2AD67, size: 0x8, addend: 0x0, symName: '__ZN5alloc3vec13in_place_drop20InPlaceDrop$LT$T$GT$3len17h32bbd1c813370201E', symObjAddr: 0x0, symBinAddr: 0xD0C0, symSize: 0x84 }
  - { offset: 0x2B2B9, size: 0x8, addend: 0x0, symName: '__ZN5alloc3vec13in_place_drop20InPlaceDrop$LT$T$GT$3len17h32bbd1c813370201E', symObjAddr: 0x0, symBinAddr: 0xD0C0, symSize: 0x84 }
  - { offset: 0x2B37C, size: 0x8, addend: 0x0, symName: '__ZN75_$LT$_engine..predicate..Expr$u20$as$u20$pyo3..conversion..FromPyObject$GT$13extract_bound17h78080546ed1331cfE', symObjAddr: 0x0, symBinAddr: 0xD144, symSize: 0x42FC }
  - { offset: 0x2DA86, size: 0x8, addend: 0x0, symName: '__ZN75_$LT$_engine..predicate..Expr$u20$as$u20$pyo3..conversion..FromPyObject$GT$13extract_bound17h78080546ed1331cfE', symObjAddr: 0x0, symBinAddr: 0xD144, symSize: 0x42FC }
  - { offset: 0x2EB4C, size: 0x8, addend: 0x0, symName: __ZN7_engine9predicate10find_first17h010fa74fdfcf5912E, symObjAddr: 0x42FC, symBinAddr: 0x11440, symSize: 0x7C }
  - { offset: 0x2EBB4, size: 0x8, addend: 0x0, symName: __ZN7_engine9predicate11is_temporal17hf3f857979c73abf6E, symObjAddr: 0x4378, symBinAddr: 0x114BC, symSize: 0x264 }
  - { offset: 0x2EC19, size: 0x8, addend: 0x0, symName: __ZN7_engine9predicate13eval_temporal17h0110021ddfce9592E, symObjAddr: 0x45DC, symBinAddr: 0x11720, symSize: 0xFEC }
  - { offset: 0x2F055, size: 0x8, addend: 0x0, symName: __ZN7_engine9predicate15collect_signals17habc4445b63dafde5E, symObjAddr: 0x55C8, symBinAddr: 0x1270C, symSize: 0x384 }
  - { offset: 0x2F105, size: 0x8, addend: 0x0, symName: __ZN7_engine9predicate17__pyfunction_scan17hd3075be204633d72E, symObjAddr: 0x594C, symBinAddr: 0x12A90, symSize: 0x648 }
  - { offset: 0x2F342, size: 0x8, addend: 0x0, symName: __ZN7_engine9predicate21__pyfunction_find_all17h70a94e83cdae66b1E, symObjAddr: 0x5F94, symBinAddr: 0x130D8, symSize: 0x648 }
  - { offset: 0x2F57F, size: 0x8, addend: 0x0, symName: __ZN7_engine9predicate23__pyfunction_find_first17h1078144573cac4d1E, symObjAddr: 0x65DC, symBinAddr: 0x13720, symSize: 0x56C }
  - { offset: 0x2F786, size: 0x8, addend: 0x0, symName: __ZN7_engine9predicate4scan17hbc3e2499421e48b7E, symObjAddr: 0x6B48, symBinAddr: 0x13C8C, symSize: 0x88 }
  - { offset: 0x2F807, size: 0x8, addend: 0x0, symName: '__ZN7_engine9predicate51_$LT$impl$u20$_engine..predicate..scan..MakeDef$GT$9_PYO3_DEF10trampoline17hd80a1af23c90b1e1E', symObjAddr: 0x6BD0, symBinAddr: 0x13D14, symSize: 0x50 }
  - { offset: 0x2F86E, size: 0x8, addend: 0x0, symName: '__ZN7_engine9predicate55_$LT$impl$u20$_engine..predicate..find_all..MakeDef$GT$9_PYO3_DEF10trampoline17h1490231cf4e2c575E', symObjAddr: 0x6C20, symBinAddr: 0x13D64, symSize: 0x50 }
  - { offset: 0x2F8D5, size: 0x8, addend: 0x0, symName: '__ZN7_engine9predicate57_$LT$impl$u20$_engine..predicate..find_first..MakeDef$GT$9_PYO3_DEF10trampoline17hfe8bdf608e5afaa4E', symObjAddr: 0x6C70, symBinAddr: 0x13DB4, symSize: 0x50 }
  - { offset: 0x2F932, size: 0x8, addend: 0x0, symName: __ZN7_engine9predicate7eval_at17h5bb4ae65191ac891E, symObjAddr: 0x6CC0, symBinAddr: 0x13E04, symSize: 0x1080 }
  - { offset: 0x30090, size: 0x8, addend: 0x0, symName: __ZN7_engine9predicate8find_all17h79b8b6ee501f168bE, symObjAddr: 0x7D40, symBinAddr: 0x14E84, symSize: 0x88 }
  - { offset: 0x30107, size: 0x8, addend: 0x0, symName: __ZN7_engine9predicate9scan_expr17h2d5311963d6b20fdE, symObjAddr: 0x7DC8, symBinAddr: 0x14F0C, symSize: 0xD78 }
  - { offset: 0x31235, size: 0x8, addend: 0x0, symName: '__ZN65_$LT$wellen..ghw..common..GhwRtik$u20$as$u20$core..fmt..Debug$GT$3fmt17h247bd4579320c84cE', symObjAddr: 0x0, symBinAddr: 0x15C84, symSize: 0x27C }
  - { offset: 0x3149E, size: 0x8, addend: 0x0, symName: '__ZN65_$LT$wellen..ghw..common..GhwRtik$u20$as$u20$core..fmt..Debug$GT$3fmt17h247bd4579320c84cE', symObjAddr: 0x0, symBinAddr: 0x15C84, symSize: 0x27C }
  - { offset: 0x314E1, size: 0x8, addend: 0x0, symName: '__ZN68_$LT$wellen..ghw..common..GhwSignals$u20$as$u20$core..fmt..Debug$GT$3fmt17h4396a03e78158266E', symObjAddr: 0x27C, symBinAddr: 0x15F00, symSize: 0x64 }
  - { offset: 0x31521, size: 0x8, addend: 0x0, symName: '__ZN68_$LT$wellen..ghw..common..GhwVecInfo$u20$as$u20$core..fmt..Debug$GT$3fmt17ha89ef42b7f711c1cE', symObjAddr: 0x2E0, symBinAddr: 0x15F64, symSize: 0x104 }
  - { offset: 0x31564, size: 0x8, addend: 0x0, symName: '__ZN68_$LT$wellen..ghw..common..HeaderData$u20$as$u20$core..fmt..Debug$GT$3fmt17hd4bdb07e680b5c22E', symObjAddr: 0x3E4, symBinAddr: 0x16068, symSize: 0xD8 }
  - { offset: 0x315A4, size: 0x8, addend: 0x0, symName: '__ZN69_$LT$wellen..ghw..common..GhwSignalId$u20$as$u20$core..fmt..Debug$GT$3fmt17hc467d0382433ed62E', symObjAddr: 0x4BC, symBinAddr: 0x16140, symSize: 0x54 }
  - { offset: 0x315E7, size: 0x8, addend: 0x0, symName: '__ZN71_$LT$wellen..ghw..common..GhwSignalInfo$u20$as$u20$core..fmt..Debug$GT$3fmt17hb424faa19310150aE', symObjAddr: 0x564, symBinAddr: 0x161E8, symSize: 0x8C }
  - { offset: 0x31627, size: 0x8, addend: 0x0, symName: '__ZN72_$LT$wellen..ghw..common..SignalType$u20$as$u20$core..cmp..PartialEq$GT$2eq17h0e2aa5b622fb21bcE', symObjAddr: 0x5F0, symBinAddr: 0x16274, symSize: 0x34 }
  - { offset: 0x316A6, size: 0x8, addend: 0x0, symName: '__ZN78_$LT$wellen..ghw..common..GhwHierarchyKind$u20$as$u20$core..cmp..PartialEq$GT$2eq17ha69bb522c6d57db0E', symObjAddr: 0x624, symBinAddr: 0x162A8, symSize: 0x34 }
  - { offset: 0x31A2D, size: 0x8, addend: 0x0, symName: __ZN6wellen3ghw6common11GhwSignalId5index17h7840cfa9d33ecfe2E, symObjAddr: 0x510, symBinAddr: 0x16194, symSize: 0x54 }
  - { offset: 0x31B2C, size: 0x8, addend: 0x0, symName: __ZN4core5slice6memchr6memchr17h79d89bc729504f2cE, symObjAddr: 0x0, symBinAddr: 0x162DC, symSize: 0x114 }
  - { offset: 0x31B7D, size: 0x8, addend: 0x0, symName: __ZN4core5slice6memchr6memchr17h79d89bc729504f2cE, symObjAddr: 0x0, symBinAddr: 0x162DC, symSize: 0x114 }
  - { offset: 0x31CAB, size: 0x8, addend: 0x0, symName: __ZN4pyo311type_object10PyTypeInfo11type_object17h9e945dadcd613390E, symObjAddr: 0x0, symBinAddr: 0x163F0, symSize: 0x30 }
  - { offset: 0x31D4C, size: 0x8, addend: 0x0, symName: __ZN4pyo311type_object10PyTypeInfo11type_object17h9e945dadcd613390E, symObjAddr: 0x0, symBinAddr: 0x163F0, symSize: 0x30 }
  - { offset: 0x31DA2, size: 0x8, addend: 0x0, symName: '__ZN73_$LT$pyo3..types..any..PyAny$u20$as$u20$pyo3..type_object..PyTypeInfo$GT$15type_object_raw28_$u7b$$u7b$closure$u7d$$u7d$17h93baf39afe03f4aeE', symObjAddr: 0x30, symBinAddr: 0x16420, symSize: 0x18 }
  - { offset: 0x3206F, size: 0x8, addend: 0x0, symName: '__ZN42_$LT$$RF$T$u20$as$u20$core..fmt..Debug$GT$3fmt17hf313b579aedec168E', symObjAddr: 0x0, symBinAddr: 0x16438, symSize: 0x30 }
  - { offset: 0x322F2, size: 0x8, addend: 0x0, symName: '__ZN6wellen9hierarchy9Hierarchy21lookup_var_with_index28_$u7b$$u7b$closure$u7d$$u7d$17hc05bbf27688c35c7E', symObjAddr: 0xC2C, symBinAddr: 0x17064, symSize: 0xDC }
  - { offset: 0x32379, size: 0x8, addend: 0x0, symName: '__ZN6wellen9hierarchy9Hierarchy21lookup_var_with_index28_$u7b$$u7b$closure$u7d$$u7d$17heb066f6ac0506b58E', symObjAddr: 0xD08, symBinAddr: 0x17140, symSize: 0xDC }
  - { offset: 0x32406, size: 0x8, addend: 0x0, symName: '__ZN6wellen9hierarchy9Hierarchy12lookup_scope28_$u7b$$u7b$closure$u7d$$u7d$17h037daa9b1a6fe251E', symObjAddr: 0xA20, symBinAddr: 0x16E58, symSize: 0x60 }
  - { offset: 0x32463, size: 0x8, addend: 0x0, symName: '__ZN6wellen9hierarchy9Hierarchy12lookup_scope28_$u7b$$u7b$closure$u7d$$u7d$17h3b3c41c35a762c39E', symObjAddr: 0xA80, symBinAddr: 0x16EB8, symSize: 0x80 }
  - { offset: 0x32983, size: 0x8, addend: 0x0, symName: '__ZN42_$LT$$RF$T$u20$as$u20$core..fmt..Debug$GT$3fmt17hf313b579aedec168E', symObjAddr: 0x0, symBinAddr: 0x16438, symSize: 0x30 }
  - { offset: 0x33096, size: 0x8, addend: 0x0, symName: __ZN4core4iter6traits8iterator8Iterator4find17h24202b226503cd41E, symObjAddr: 0x30, symBinAddr: 0x16468, symSize: 0x80 }
  - { offset: 0x331CD, size: 0x8, addend: 0x0, symName: __ZN4core4iter6traits8iterator8Iterator4find17h42ecc2f137df6ef3E, symObjAddr: 0xB0, symBinAddr: 0x164E8, symSize: 0x88 }
  - { offset: 0x3326C, size: 0x8, addend: 0x0, symName: __ZN4core4iter6traits8iterator8Iterator4find17h7645d628942a592fE, symObjAddr: 0x138, symBinAddr: 0x16570, symSize: 0x88 }
  - { offset: 0x3330B, size: 0x8, addend: 0x0, symName: __ZN4core4iter6traits8iterator8Iterator4find17ha25c3430373570faE, symObjAddr: 0x1C0, symBinAddr: 0x165F8, symSize: 0x80 }
  - { offset: 0x3338A, size: 0x8, addend: 0x0, symName: __ZN4core4iter6traits8iterator8Iterator8try_fold17h3114b9c6165e9b3dE, symObjAddr: 0x240, symBinAddr: 0x16678, symSize: 0x13C }
  - { offset: 0x3343D, size: 0x8, addend: 0x0, symName: __ZN4core4iter6traits8iterator8Iterator8try_fold17h666928b2428c0cbaE, symObjAddr: 0x37C, symBinAddr: 0x167B4, symSize: 0x140 }
  - { offset: 0x334EF, size: 0x8, addend: 0x0, symName: __ZN4core4iter6traits8iterator8Iterator8try_fold17hb20e2ecea269b98fE, symObjAddr: 0x4BC, symBinAddr: 0x168F4, symSize: 0x140 }
  - { offset: 0x335A1, size: 0x8, addend: 0x0, symName: __ZN4core4iter6traits8iterator8Iterator8try_fold17hbb3e9a4a8f306a90E, symObjAddr: 0x5FC, symBinAddr: 0x16A34, symSize: 0x13C }
  - { offset: 0x338BD, size: 0x8, addend: 0x0, symName: '__ZN4core5slice29_$LT$impl$u20$$u5b$T$u5d$$GT$8contains17h8a43b75966ea52e8E', symObjAddr: 0x738, symBinAddr: 0x16B70, symSize: 0x48 }
  - { offset: 0x339C5, size: 0x8, addend: 0x0, symName: '__ZN53_$LT$T$u20$as$u20$core..slice..cmp..SliceContains$GT$14slice_contains17h8c4575bc65366b65E', symObjAddr: 0x780, symBinAddr: 0x16BB8, symSize: 0x78 }
  - { offset: 0x34317, size: 0x8, addend: 0x0, symName: __ZN6wellen9hierarchy9Hierarchy10lookup_var17had97da654639a19dE, symObjAddr: 0x7F8, symBinAddr: 0x16C30, symSize: 0x40 }
  - { offset: 0x34361, size: 0x8, addend: 0x0, symName: __ZN6wellen9hierarchy9Hierarchy12lookup_scope17hc37b0e2d4a30f2e6E, symObjAddr: 0x838, symBinAddr: 0x16C70, symSize: 0x1E8 }
  - { offset: 0x34471, size: 0x8, addend: 0x0, symName: __ZN6wellen9hierarchy9Hierarchy21lookup_var_with_index17h053bcdaf0a972cbdE, symObjAddr: 0xB00, symBinAddr: 0x16F38, symSize: 0x12C }
  - { offset: 0x34633, size: 0x8, addend: 0x0, symName: '__ZN5alloc4sync12Arc$LT$T$GT$3new17h617e9f4afb911006E', symObjAddr: 0x0, symBinAddr: 0x1721C, symSize: 0xD0 }
  - { offset: 0x35611, size: 0x8, addend: 0x0, symName: '__ZN73_$LT$alloc..sync..Arc$LT$T$C$A$GT$$u20$as$u20$core..ops..deref..Deref$GT$5deref17hd4c15eeda08dede2E', symObjAddr: 0x144, symBinAddr: 0x17360, symSize: 0x1C }
  - { offset: 0x35F77, size: 0x8, addend: 0x0, symName: '__ZN5alloc4sync12Arc$LT$T$GT$3new17h617e9f4afb911006E', symObjAddr: 0x0, symBinAddr: 0x1721C, symSize: 0xD0 }
  - { offset: 0x360B0, size: 0x8, addend: 0x0, symName: '__ZN5alloc4sync16Arc$LT$T$C$A$GT$9drop_slow17h8e55bfde88533470E', symObjAddr: 0xD0, symBinAddr: 0x172EC, symSize: 0x74 }
  - { offset: 0x36197, size: 0x8, addend: 0x0, symName: '__ZN42_$LT$$RF$T$u20$as$u20$core..fmt..Debug$GT$3fmt17h5f2d7c1d1fbd148eE', symObjAddr: 0x0, symBinAddr: 0x1737C, symSize: 0x30 }
  - { offset: 0x36216, size: 0x8, addend: 0x0, symName: '__ZN42_$LT$$RF$T$u20$as$u20$core..fmt..Debug$GT$3fmt17h5f2d7c1d1fbd148eE', symObjAddr: 0x0, symBinAddr: 0x1737C, symSize: 0x30 }
  - { offset: 0x3625C, size: 0x8, addend: 0x0, symName: '__ZN42_$LT$$RF$T$u20$as$u20$core..fmt..Debug$GT$3fmt17h8a66ccae5edea402E', symObjAddr: 0x30, symBinAddr: 0x173AC, symSize: 0x30 }
  - { offset: 0x36452, size: 0x8, addend: 0x0, symName: __ZN4core4iter6traits8iterator8Iterator3map17h0c87c45ba1dae6d2E, symObjAddr: 0x0, symBinAddr: 0x173DC, symSize: 0x1C }
  - { offset: 0x37003, size: 0x8, addend: 0x0, symName: __ZN4core4iter6traits8iterator8Iterator3map17h0c87c45ba1dae6d2E, symObjAddr: 0x0, symBinAddr: 0x173DC, symSize: 0x1C }
  - { offset: 0x3705B, size: 0x8, addend: 0x0, symName: __ZN4core4iter6traits8iterator8Iterator3map17h3ebec57aeaefd364E, symObjAddr: 0x1C, symBinAddr: 0x173F8, symSize: 0x1C }
  - { offset: 0x370B3, size: 0x8, addend: 0x0, symName: __ZN4core4iter6traits8iterator8Iterator3map17h3f7942d4fb02acaaE, symObjAddr: 0x38, symBinAddr: 0x17414, symSize: 0x30 }
  - { offset: 0x37120, size: 0x8, addend: 0x0, symName: __ZN4core4iter6traits8iterator8Iterator3map17h46a7cd461a62885eE, symObjAddr: 0x68, symBinAddr: 0x17444, symSize: 0x1C }
  - { offset: 0x37178, size: 0x8, addend: 0x0, symName: __ZN4core4iter6traits8iterator8Iterator3map17h4b1790b153929624E, symObjAddr: 0x84, symBinAddr: 0x17460, symSize: 0x30 }
  - { offset: 0x371E5, size: 0x8, addend: 0x0, symName: __ZN4core4iter6traits8iterator8Iterator3map17h60b786f59c72e0ecE, symObjAddr: 0xB4, symBinAddr: 0x17490, symSize: 0x34 }
  - { offset: 0x37252, size: 0x8, addend: 0x0, symName: __ZN4core4iter6traits8iterator8Iterator3map17h61bced569417c9bcE, symObjAddr: 0xE8, symBinAddr: 0x174C4, symSize: 0x30 }
  - { offset: 0x372BF, size: 0x8, addend: 0x0, symName: __ZN4core4iter6traits8iterator8Iterator3map17h79987a93a7184728E, symObjAddr: 0x118, symBinAddr: 0x174F4, symSize: 0x30 }
  - { offset: 0x3732C, size: 0x8, addend: 0x0, symName: __ZN4core4iter6traits8iterator8Iterator3map17h8398f0d13cc71b6eE, symObjAddr: 0x148, symBinAddr: 0x17524, symSize: 0x1C }
  - { offset: 0x37384, size: 0x8, addend: 0x0, symName: __ZN4core4iter6traits8iterator8Iterator3map17h9b4d7154f251617aE, symObjAddr: 0x164, symBinAddr: 0x17540, symSize: 0x1C }
  - { offset: 0x373DC, size: 0x8, addend: 0x0, symName: __ZN4core4iter6traits8iterator8Iterator3map17h9e786622c97b4ed6E, symObjAddr: 0x180, symBinAddr: 0x1755C, symSize: 0x1C }
  - { offset: 0x37434, size: 0x8, addend: 0x0, symName: __ZN4core4iter6traits8iterator8Iterator3map17hb066a0737a065d3aE, symObjAddr: 0x19C, symBinAddr: 0x17578, symSize: 0x30 }
  - { offset: 0x374A1, size: 0x8, addend: 0x0, symName: __ZN4core4iter6traits8iterator8Iterator3map17hcd7917d813828837E, symObjAddr: 0x1CC, symBinAddr: 0x175A8, symSize: 0x30 }
  - { offset: 0x3750E, size: 0x8, addend: 0x0, symName: __ZN4core4iter6traits8iterator8Iterator4find17hd265a4a73371252fE, symObjAddr: 0x1FC, symBinAddr: 0x175D8, symSize: 0x8C }
  - { offset: 0x3758D, size: 0x8, addend: 0x0, symName: __ZN4core4iter6traits8iterator8Iterator4skip17h019ef7bd6ccc2913E, symObjAddr: 0x288, symBinAddr: 0x17664, symSize: 0x2C }
  - { offset: 0x375E8, size: 0x8, addend: 0x0, symName: __ZN4core4iter6traits8iterator8Iterator4skip17h16b0ae5e7f96b9a5E, symObjAddr: 0x2B4, symBinAddr: 0x17690, symSize: 0x2C }
  - { offset: 0x37643, size: 0x8, addend: 0x0, symName: __ZN4core4iter6traits8iterator8Iterator4take17hfd859731e5f023ddE, symObjAddr: 0x2E0, symBinAddr: 0x176BC, symSize: 0x2C }
  - { offset: 0x3769E, size: 0x8, addend: 0x0, symName: __ZN4core4iter6traits8iterator8Iterator6cloned17h9e81ef1f86941658E, symObjAddr: 0x30C, symBinAddr: 0x176E8, symSize: 0x1C }
  - { offset: 0x376DE, size: 0x8, addend: 0x0, symName: __ZN4core4iter6traits8iterator8Iterator6copied17h8312fbd0adf06876E, symObjAddr: 0x328, symBinAddr: 0x17704, symSize: 0x1C }
  - { offset: 0x3771E, size: 0x8, addend: 0x0, symName: __ZN4core4iter6traits8iterator8Iterator6filter17h2a93c5d697bfa8e5E, symObjAddr: 0x344, symBinAddr: 0x17720, symSize: 0x34 }
  - { offset: 0x37782, size: 0x8, addend: 0x0, symName: __ZN4core4iter6traits8iterator8Iterator6filter17ha34715139d17f1f9E, symObjAddr: 0x378, symBinAddr: 0x17754, symSize: 0x30 }
  - { offset: 0x377E6, size: 0x8, addend: 0x0, symName: __ZN4core4iter6traits8iterator8Iterator6filter17he964fc020c31a653E, symObjAddr: 0x3A8, symBinAddr: 0x17784, symSize: 0x30 }
  - { offset: 0x3784A, size: 0x8, addend: 0x0, symName: __ZN4core4iter6traits8iterator8Iterator6filter17hf1fd739688e5730fE, symObjAddr: 0x3D8, symBinAddr: 0x177B4, symSize: 0x20 }
  - { offset: 0x378AE, size: 0x8, addend: 0x0, symName: __ZN4core4iter6traits8iterator8Iterator8try_fold17h5a1c54f05b98fe11E, symObjAddr: 0x3F8, symBinAddr: 0x177D4, symSize: 0x190 }
  - { offset: 0x37964, size: 0x8, addend: 0x0, symName: __ZN4core4iter6traits8iterator8Iterator8try_fold17h5f7ddbd50fba402fE, symObjAddr: 0x588, symBinAddr: 0x17964, symSize: 0x164 }
  - { offset: 0x37A17, size: 0x8, addend: 0x0, symName: __ZN4core4iter6traits8iterator8Iterator8try_fold17ha301b32e8ed7925cE, symObjAddr: 0x6EC, symBinAddr: 0x17AC8, symSize: 0x164 }
  - { offset: 0x37ACA, size: 0x8, addend: 0x0, symName: __ZN4core4iter6traits8iterator8Iterator8try_fold17hc99c56b44bd5522aE, symObjAddr: 0x850, symBinAddr: 0x17C2C, symSize: 0x15C }
  - { offset: 0x37B86, size: 0x8, addend: 0x0, symName: __ZN4core4iter6traits8iterator8Iterator8try_fold17hdfc075fcfeb2e2d7E, symObjAddr: 0x9AC, symBinAddr: 0x17D88, symSize: 0x15C }
  - { offset: 0x37C42, size: 0x8, addend: 0x0, symName: __ZN4core4iter6traits8iterator8Iterator8try_fold17he9db81adfbb0bc0bE, symObjAddr: 0xB08, symBinAddr: 0x17EE4, symSize: 0x164 }
  - { offset: 0x37CF5, size: 0x8, addend: 0x0, symName: __ZN4core4iter6traits8iterator8Iterator8try_fold17hf3261cec7f2a693cE, symObjAddr: 0xC6C, symBinAddr: 0x18048, symSize: 0x15C }
  - { offset: 0x37DB1, size: 0x8, addend: 0x0, symName: __ZN4core4iter6traits8iterator8Iterator9enumerate17h284795ebb7a5b408E, symObjAddr: 0xDC8, symBinAddr: 0x181A4, symSize: 0x28 }
  - { offset: 0x37DFD, size: 0x8, addend: 0x0, symName: __ZN4core4iter6traits8iterator8Iterator9enumerate17h511b2c215019db7aE, symObjAddr: 0xDF0, symBinAddr: 0x181CC, symSize: 0x28 }
  - { offset: 0x37E49, size: 0x8, addend: 0x0, symName: __ZN4core4iter6traits8iterator8Iterator9enumerate17h8c30f8e7e76fd9e9E, symObjAddr: 0xE18, symBinAddr: 0x181F4, symSize: 0x28 }
  - { offset: 0x37E95, size: 0x8, addend: 0x0, symName: __ZN4core4iter6traits8iterator8Iterator9enumerate17hac2c1fb68ced8651E, symObjAddr: 0xE40, symBinAddr: 0x1821C, symSize: 0x28 }
  - { offset: 0x37FA9, size: 0x8, addend: 0x0, symName: '__ZN63_$LT$I$u20$as$u20$core..iter..traits..collect..IntoIterator$GT$9into_iter17h029d77f66de3797bE', symObjAddr: 0x1198, symBinAddr: 0x18574, symSize: 0x1C }
  - { offset: 0x37FE0, size: 0x8, addend: 0x0, symName: '__ZN63_$LT$I$u20$as$u20$core..iter..traits..collect..IntoIterator$GT$9into_iter17h456fca6b4f0abdceE', symObjAddr: 0x11B4, symBinAddr: 0x18590, symSize: 0x1C }
  - { offset: 0x38017, size: 0x8, addend: 0x0, symName: '__ZN63_$LT$I$u20$as$u20$core..iter..traits..collect..IntoIterator$GT$9into_iter17h8e2eb89f6e06bbc7E', symObjAddr: 0x11D0, symBinAddr: 0x185AC, symSize: 0x1C }
  - { offset: 0x3804E, size: 0x8, addend: 0x0, symName: '__ZN63_$LT$I$u20$as$u20$core..iter..traits..collect..IntoIterator$GT$9into_iter17h9f57e7814de8888bE', symObjAddr: 0x11EC, symBinAddr: 0x185C8, symSize: 0x1C }
  - { offset: 0x38085, size: 0x8, addend: 0x0, symName: '__ZN63_$LT$I$u20$as$u20$core..iter..traits..collect..IntoIterator$GT$9into_iter17ha3e2ad3bfd8dda6aE', symObjAddr: 0x1208, symBinAddr: 0x185E4, symSize: 0x1C }
  - { offset: 0x38FB8, size: 0x8, addend: 0x0, symName: '__ZN4core5slice4iter87_$LT$impl$u20$core..iter..traits..collect..IntoIterator$u20$for$u20$$RF$$u5b$T$u5d$$GT$9into_iter17ha7d0178f94923d2fE', symObjAddr: 0x10F8, symBinAddr: 0x184D4, symSize: 0x50 }
  - { offset: 0x390F5, size: 0x8, addend: 0x0, symName: '__ZN4core5slice4iter87_$LT$impl$u20$core..iter..traits..collect..IntoIterator$u20$for$u20$$RF$$u5b$T$u5d$$GT$9into_iter17hfff56265b6aae2b1E', symObjAddr: 0x1148, symBinAddr: 0x18524, symSize: 0x50 }
  - { offset: 0x39238, size: 0x8, addend: 0x0, symName: '__ZN91_$LT$core..slice..iter..Iter$LT$T$GT$$u20$as$u20$core..iter..traits..iterator..Iterator$GT$3all17h5feb89fe85c14cafE', symObjAddr: 0x1224, symBinAddr: 0x18600, symSize: 0xAC }
  - { offset: 0x3929D, size: 0x8, addend: 0x0, symName: '__ZN91_$LT$core..slice..iter..Iter$LT$T$GT$$u20$as$u20$core..iter..traits..iterator..Iterator$GT$3any17h0cc06581f2e4a55eE', symObjAddr: 0x12D0, symBinAddr: 0x186AC, symSize: 0xB0 }
  - { offset: 0x39302, size: 0x8, addend: 0x0, symName: '__ZN91_$LT$core..slice..iter..Iter$LT$T$GT$$u20$as$u20$core..iter..traits..iterator..Iterator$GT$3any17hdb914119247dd184E', symObjAddr: 0x1380, symBinAddr: 0x1875C, symSize: 0xB0 }
  - { offset: 0x39367, size: 0x8, addend: 0x0, symName: '__ZN91_$LT$core..slice..iter..Iter$LT$T$GT$$u20$as$u20$core..iter..traits..iterator..Iterator$GT$3nth17h1b47feacac4d6bb0E', symObjAddr: 0x1430, symBinAddr: 0x1880C, symSize: 0x120 }
  - { offset: 0x39557, size: 0x8, addend: 0x0, symName: '__ZN91_$LT$core..slice..iter..Iter$LT$T$GT$$u20$as$u20$core..iter..traits..iterator..Iterator$GT$3nth17hb91b1d4fa960136dE', symObjAddr: 0x1550, symBinAddr: 0x1892C, symSize: 0x128 }
  - { offset: 0x39747, size: 0x8, addend: 0x0, symName: '__ZN91_$LT$core..slice..iter..Iter$LT$T$GT$$u20$as$u20$core..iter..traits..iterator..Iterator$GT$4find17h91e54c8acd3d5c5cE', symObjAddr: 0x1678, symBinAddr: 0x18A54, symSize: 0xB0 }
  - { offset: 0x397AC, size: 0x8, addend: 0x0, symName: '__ZN91_$LT$core..slice..iter..Iter$LT$T$GT$$u20$as$u20$core..iter..traits..iterator..Iterator$GT$4find17hfcbb9bfa9b7472d3E', symObjAddr: 0x1728, symBinAddr: 0x18B04, symSize: 0xB0 }
  - { offset: 0x39811, size: 0x8, addend: 0x0, symName: '__ZN91_$LT$core..slice..iter..Iter$LT$T$GT$$u20$as$u20$core..iter..traits..iterator..Iterator$GT$4fold17h0c806b5e1ef8567fE', symObjAddr: 0x17D8, symBinAddr: 0x18BB4, symSize: 0x1C0 }
  - { offset: 0x39966, size: 0x8, addend: 0x0, symName: '__ZN91_$LT$core..slice..iter..Iter$LT$T$GT$$u20$as$u20$core..iter..traits..iterator..Iterator$GT$4fold17h34a483c49b0e3acaE', symObjAddr: 0x1998, symBinAddr: 0x18D74, symSize: 0x1B8 }
  - { offset: 0x39ABB, size: 0x8, addend: 0x0, symName: '__ZN91_$LT$core..slice..iter..Iter$LT$T$GT$$u20$as$u20$core..iter..traits..iterator..Iterator$GT$4fold17h688fc9de60932bb4E', symObjAddr: 0x1B50, symBinAddr: 0x18F2C, symSize: 0x1C0 }
  - { offset: 0x39C15, size: 0x8, addend: 0x0, symName: '__ZN91_$LT$core..slice..iter..Iter$LT$T$GT$$u20$as$u20$core..iter..traits..iterator..Iterator$GT$4fold17h69082a5776cb0043E', symObjAddr: 0x1D10, symBinAddr: 0x190EC, symSize: 0x1B8 }
  - { offset: 0x39D6A, size: 0x8, addend: 0x0, symName: '__ZN91_$LT$core..slice..iter..Iter$LT$T$GT$$u20$as$u20$core..iter..traits..iterator..Iterator$GT$4fold17h700cfb2a2f54d7e7E', symObjAddr: 0x1EC8, symBinAddr: 0x192A4, symSize: 0x1B8 }
  - { offset: 0x39EBF, size: 0x8, addend: 0x0, symName: '__ZN91_$LT$core..slice..iter..Iter$LT$T$GT$$u20$as$u20$core..iter..traits..iterator..Iterator$GT$4fold17h8fb4da2e5929f8f7E', symObjAddr: 0x2080, symBinAddr: 0x1945C, symSize: 0x1B8 }
  - { offset: 0x3A014, size: 0x8, addend: 0x0, symName: '__ZN91_$LT$core..slice..iter..Iter$LT$T$GT$$u20$as$u20$core..iter..traits..iterator..Iterator$GT$4fold17ha0a9b6f8850556aaE', symObjAddr: 0x2238, symBinAddr: 0x19614, symSize: 0x1B8 }
  - { offset: 0x3A169, size: 0x8, addend: 0x0, symName: '__ZN91_$LT$core..slice..iter..Iter$LT$T$GT$$u20$as$u20$core..iter..traits..iterator..Iterator$GT$4fold17hf5c1aa1188a2a38fE', symObjAddr: 0x23F0, symBinAddr: 0x197CC, symSize: 0x1BC }
  - { offset: 0x3A2C2, size: 0x8, addend: 0x0, symName: '__ZN91_$LT$core..slice..iter..Iter$LT$T$GT$$u20$as$u20$core..iter..traits..iterator..Iterator$GT$4next17h16fc1a1d7020a683E', symObjAddr: 0x25AC, symBinAddr: 0x19988, symSize: 0xA8 }
  - { offset: 0x3A3FC, size: 0x8, addend: 0x0, symName: '__ZN91_$LT$core..slice..iter..Iter$LT$T$GT$$u20$as$u20$core..iter..traits..iterator..Iterator$GT$4next17h1e56ecba01e36cefE', symObjAddr: 0x2654, symBinAddr: 0x19A30, symSize: 0xA8 }
  - { offset: 0x3A536, size: 0x8, addend: 0x0, symName: '__ZN91_$LT$core..slice..iter..Iter$LT$T$GT$$u20$as$u20$core..iter..traits..iterator..Iterator$GT$4next17h25a1cfb18c273254E', symObjAddr: 0x26FC, symBinAddr: 0x19AD8, symSize: 0xA8 }
  - { offset: 0x3A670, size: 0x8, addend: 0x0, symName: '__ZN91_$LT$core..slice..iter..Iter$LT$T$GT$$u20$as$u20$core..iter..traits..iterator..Iterator$GT$4next17h35757f32ae548e3eE', symObjAddr: 0x27A4, symBinAddr: 0x19B80, symSize: 0xA8 }
  - { offset: 0x3A7AA, size: 0x8, addend: 0x0, symName: '__ZN91_$LT$core..slice..iter..Iter$LT$T$GT$$u20$as$u20$core..iter..traits..iterator..Iterator$GT$4next17h38caeaefa9c71b56E', symObjAddr: 0x284C, symBinAddr: 0x19C28, symSize: 0xA8 }
  - { offset: 0x3A8E4, size: 0x8, addend: 0x0, symName: '__ZN91_$LT$core..slice..iter..Iter$LT$T$GT$$u20$as$u20$core..iter..traits..iterator..Iterator$GT$4next17h48642cb20e12470eE', symObjAddr: 0x28F4, symBinAddr: 0x19CD0, symSize: 0xA8 }
  - { offset: 0x3AA1E, size: 0x8, addend: 0x0, symName: '__ZN91_$LT$core..slice..iter..Iter$LT$T$GT$$u20$as$u20$core..iter..traits..iterator..Iterator$GT$4next17h628eec12dc8bb8e7E', symObjAddr: 0x299C, symBinAddr: 0x19D78, symSize: 0xA8 }
  - { offset: 0x3AB58, size: 0x8, addend: 0x0, symName: '__ZN91_$LT$core..slice..iter..Iter$LT$T$GT$$u20$as$u20$core..iter..traits..iterator..Iterator$GT$4next17h7806a1ff1d3d45a5E', symObjAddr: 0x2A44, symBinAddr: 0x19E20, symSize: 0xA8 }
  - { offset: 0x3AC92, size: 0x8, addend: 0x0, symName: '__ZN91_$LT$core..slice..iter..Iter$LT$T$GT$$u20$as$u20$core..iter..traits..iterator..Iterator$GT$4next17h827dcad316d8124bE', symObjAddr: 0x2AEC, symBinAddr: 0x19EC8, symSize: 0xA8 }
  - { offset: 0x3ADCC, size: 0x8, addend: 0x0, symName: '__ZN91_$LT$core..slice..iter..Iter$LT$T$GT$$u20$as$u20$core..iter..traits..iterator..Iterator$GT$4next17h84972377ac53f710E', symObjAddr: 0x2B94, symBinAddr: 0x19F70, symSize: 0xA8 }
  - { offset: 0x3AF06, size: 0x8, addend: 0x0, symName: '__ZN91_$LT$core..slice..iter..Iter$LT$T$GT$$u20$as$u20$core..iter..traits..iterator..Iterator$GT$4next17h9ce3c1dc1e64c105E', symObjAddr: 0x2C3C, symBinAddr: 0x1A018, symSize: 0xA8 }
  - { offset: 0x3B040, size: 0x8, addend: 0x0, symName: '__ZN91_$LT$core..slice..iter..Iter$LT$T$GT$$u20$as$u20$core..iter..traits..iterator..Iterator$GT$4next17hbc48cd8690176268E', symObjAddr: 0x2CE4, symBinAddr: 0x1A0C0, symSize: 0xA8 }
  - { offset: 0x3B17A, size: 0x8, addend: 0x0, symName: '__ZN91_$LT$core..slice..iter..Iter$LT$T$GT$$u20$as$u20$core..iter..traits..iterator..Iterator$GT$4next17hbcf1aa83a1d84d02E', symObjAddr: 0x2D8C, symBinAddr: 0x1A168, symSize: 0xA8 }
  - { offset: 0x3B2B4, size: 0x8, addend: 0x0, symName: '__ZN91_$LT$core..slice..iter..Iter$LT$T$GT$$u20$as$u20$core..iter..traits..iterator..Iterator$GT$4next17hd35e468541ad7ab0E', symObjAddr: 0x2E34, symBinAddr: 0x1A210, symSize: 0xA8 }
  - { offset: 0x3B3EE, size: 0x8, addend: 0x0, symName: '__ZN91_$LT$core..slice..iter..Iter$LT$T$GT$$u20$as$u20$core..iter..traits..iterator..Iterator$GT$4next17hdc45c2f5e210e652E', symObjAddr: 0x2EDC, symBinAddr: 0x1A2B8, symSize: 0xA8 }
  - { offset: 0x3B528, size: 0x8, addend: 0x0, symName: '__ZN91_$LT$core..slice..iter..Iter$LT$T$GT$$u20$as$u20$core..iter..traits..iterator..Iterator$GT$8position17h251338b24ec5cb5dE', symObjAddr: 0x2F84, symBinAddr: 0x1A360, symSize: 0x188 }
  - { offset: 0x3B5E6, size: 0x8, addend: 0x0, symName: '__ZN91_$LT$core..slice..iter..Iter$LT$T$GT$$u20$as$u20$core..iter..traits..iterator..Iterator$GT$8position17h2dcfda1a41afbb38E', symObjAddr: 0x310C, symBinAddr: 0x1A4E8, symSize: 0x188 }
  - { offset: 0x3B6A4, size: 0x8, addend: 0x0, symName: '__ZN91_$LT$core..slice..iter..Iter$LT$T$GT$$u20$as$u20$core..iter..traits..iterator..Iterator$GT$8position17h4cb80be84d19416eE', symObjAddr: 0x3294, symBinAddr: 0x1A670, symSize: 0x184 }
  - { offset: 0x3B762, size: 0x8, addend: 0x0, symName: '__ZN91_$LT$core..slice..iter..Iter$LT$T$GT$$u20$as$u20$core..iter..traits..iterator..Iterator$GT$8position17h61e1a3a7d8275035E', symObjAddr: 0x3418, symBinAddr: 0x1A7F4, symSize: 0x184 }
  - { offset: 0x3B820, size: 0x8, addend: 0x0, symName: '__ZN91_$LT$core..slice..iter..Iter$LT$T$GT$$u20$as$u20$core..iter..traits..iterator..Iterator$GT$8position17h9a7a79f809523040E', symObjAddr: 0x359C, symBinAddr: 0x1A978, symSize: 0x188 }
  - { offset: 0x3B8DE, size: 0x8, addend: 0x0, symName: '__ZN91_$LT$core..slice..iter..Iter$LT$T$GT$$u20$as$u20$core..iter..traits..iterator..Iterator$GT$8position17hae1c3937c9cb1264E', symObjAddr: 0x3724, symBinAddr: 0x1AB00, symSize: 0x184 }
  - { offset: 0x3B99C, size: 0x8, addend: 0x0, symName: '__ZN91_$LT$core..slice..iter..Iter$LT$T$GT$$u20$as$u20$core..iter..traits..iterator..Iterator$GT$9size_hint17h3e6ce360dda70ccaE', symObjAddr: 0x38A8, symBinAddr: 0x1AC84, symSize: 0x60 }
  - { offset: 0x3BA0B, size: 0x8, addend: 0x0, symName: '__ZN91_$LT$core..slice..iter..Iter$LT$T$GT$$u20$as$u20$core..iter..traits..iterator..Iterator$GT$9size_hint17h78ed543a729c1062E', symObjAddr: 0x3908, symBinAddr: 0x1ACE4, symSize: 0x60 }
  - { offset: 0x3BA7A, size: 0x8, addend: 0x0, symName: '__ZN91_$LT$core..slice..iter..Iter$LT$T$GT$$u20$as$u20$core..iter..traits..iterator..Iterator$GT$9size_hint17hd33f9084d91f28b4E', symObjAddr: 0x3968, symBinAddr: 0x1AD44, symSize: 0x60 }
  - { offset: 0x3BAE9, size: 0x8, addend: 0x0, symName: '__ZN91_$LT$core..slice..iter..Iter$LT$T$GT$$u20$as$u20$core..iter..traits..iterator..Iterator$GT$9size_hint17hf17050364d603ac0E', symObjAddr: 0x39C8, symBinAddr: 0x1ADA4, symSize: 0x60 }
  - { offset: 0x3BC3C, size: 0x8, addend: 0x0, symName: '__ZN96_$LT$core..slice..iter..Split$LT$T$C$P$GT$$u20$as$u20$core..iter..traits..iterator..Iterator$GT$4next17hb69f81b0a3087f91E', symObjAddr: 0x3A28, symBinAddr: 0x1AE04, symSize: 0x248 }
  - { offset: 0x3BFB3, size: 0x8, addend: 0x0, symName: '__ZN96_$LT$core..slice..iter..Split$LT$T$C$P$GT$$u20$as$u20$core..iter..traits..iterator..Iterator$GT$4next28_$u7b$$u7b$closure$u7d$$u7d$17h1e1dc32cc2adf331E', symObjAddr: 0x3C70, symBinAddr: 0x1B04C, symSize: 0x30 }
  - { offset: 0x3C019, size: 0x8, addend: 0x0, symName: '__ZN96_$LT$core..slice..iter..Split$LT$T$C$P$GT$$u20$as$u20$core..iter..traits..iterator..Iterator$GT$9size_hint17h29aa90758d1862d5E', symObjAddr: 0x3CA0, symBinAddr: 0x1B07C, symSize: 0x74 }
  - { offset: 0x40727, size: 0x8, addend: 0x0, symName: '__ZN4core5slice4iter13Iter$LT$T$GT$3new17h2bf45c7c7a6ee1a7E', symObjAddr: 0xE68, symBinAddr: 0x18244, symSize: 0x50 }
  - { offset: 0x408D7, size: 0x8, addend: 0x0, symName: '__ZN4core5slice4iter13Iter$LT$T$GT$3new17h5e058b475dd9d5a8E', symObjAddr: 0xEB8, symBinAddr: 0x18294, symSize: 0x50 }
  - { offset: 0x40A87, size: 0x8, addend: 0x0, symName: '__ZN4core5slice4iter13Iter$LT$T$GT$3new17h6771d7e5316942f5E', symObjAddr: 0xF08, symBinAddr: 0x182E4, symSize: 0x58 }
  - { offset: 0x40C37, size: 0x8, addend: 0x0, symName: '__ZN4core5slice4iter13Iter$LT$T$GT$3new17h7fa716e672922a86E', symObjAddr: 0xF60, symBinAddr: 0x1833C, symSize: 0x50 }
  - { offset: 0x40DE7, size: 0x8, addend: 0x0, symName: '__ZN4core5slice4iter13Iter$LT$T$GT$3new17ha19f9fd92381f858E', symObjAddr: 0xFB0, symBinAddr: 0x1838C, symSize: 0x50 }
  - { offset: 0x40F97, size: 0x8, addend: 0x0, symName: '__ZN4core5slice4iter13Iter$LT$T$GT$3new17ha5294476a06b47d8E', symObjAddr: 0x1000, symBinAddr: 0x183DC, symSize: 0x58 }
  - { offset: 0x4118A, size: 0x8, addend: 0x0, symName: '__ZN4core5slice4iter13Iter$LT$T$GT$3new17he233b48fa08333c1E', symObjAddr: 0x1058, symBinAddr: 0x18434, symSize: 0x50 }
  - { offset: 0x41372, size: 0x8, addend: 0x0, symName: '__ZN4core5slice4iter13Iter$LT$T$GT$3new17he2c9cfd1c514fd58E', symObjAddr: 0x10A8, symBinAddr: 0x18484, symSize: 0x50 }
  - { offset: 0x42874, size: 0x8, addend: 0x0, symName: __ZN4core3ptr5write17h189cc0eaef1b98a5E, symObjAddr: 0x0, symBinAddr: 0x1B0F0, symSize: 0x1C }
  - { offset: 0x42FD9, size: 0x8, addend: 0x0, symName: __ZN4core3ptr5write17h189cc0eaef1b98a5E, symObjAddr: 0x0, symBinAddr: 0x1B0F0, symSize: 0x1C }
  - { offset: 0x44085, size: 0x8, addend: 0x0, symName: '__ZN4pyo35impl_4wrap62IntoPyObjectConverter$LT$core..result..Result$LT$T$C$E$GT$$GT$12map_into_ptr17h13a7863559edf76dE', symObjAddr: 0x0, symBinAddr: 0x1B10C, symSize: 0x44 }
  - { offset: 0x44A28, size: 0x8, addend: 0x0, symName: '__ZN4pyo35impl_4wrap62IntoPyObjectConverter$LT$core..result..Result$LT$T$C$E$GT$$GT$12map_into_ptr28_$u7b$$u7b$closure$u7d$$u7d$17he5cd714b32a9a4f6E', symObjAddr: 0x88, symBinAddr: 0x1B194, symSize: 0x30 }
  - { offset: 0x44A7F, size: 0x8, addend: 0x0, symName: '__ZN4pyo35impl_4wrap62IntoPyObjectConverter$LT$core..result..Result$LT$T$C$E$GT$$GT$12map_into_ptr28_$u7b$$u7b$closure$u7d$$u7d$17hfcce05b680cdf9ccE', symObjAddr: 0xB8, symBinAddr: 0x1B1C4, symSize: 0x30 }
  - { offset: 0x44AFE, size: 0x8, addend: 0x0, symName: __ZN4pyo35impl_4wrap9converter17h1f2d590ca63b7b2bE, symObjAddr: 0x150, symBinAddr: 0x1B25C, symSize: 0x10 }
  - { offset: 0x44B2B, size: 0x8, addend: 0x0, symName: __ZN4pyo35impl_4wrap9converter17h919b8dc19b3a83dfE, symObjAddr: 0x160, symBinAddr: 0x1B26C, symSize: 0x10 }
  - { offset: 0x44B5D, size: 0x8, addend: 0x0, symName: '__ZN81_$LT$pyo3..impl_..wrap..Converter$LT$T$GT$$u20$as$u20$core..ops..deref..Deref$GT$5deref17h2ac16a4771a8f864E', symObjAddr: 0x170, symBinAddr: 0x1B27C, symSize: 0x14 }
  - { offset: 0x44B92, size: 0x8, addend: 0x0, symName: '__ZN81_$LT$pyo3..impl_..wrap..Converter$LT$T$GT$$u20$as$u20$core..ops..deref..Deref$GT$5deref17hbaabf020bf561ec8E', symObjAddr: 0x184, symBinAddr: 0x1B290, symSize: 0x14 }
  - { offset: 0x44BCD, size: 0x8, addend: 0x0, symName: '__ZN91_$LT$pyo3..impl_..wrap..EmptyTupleConverter$LT$T$GT$$u20$as$u20$core..ops..deref..Deref$GT$5deref17h9e5041afed31c100E', symObjAddr: 0x198, symBinAddr: 0x1B2A4, symSize: 0x14 }
  - { offset: 0x44C02, size: 0x8, addend: 0x0, symName: '__ZN91_$LT$pyo3..impl_..wrap..EmptyTupleConverter$LT$T$GT$$u20$as$u20$core..ops..deref..Deref$GT$5deref17hb654bf5b960cf259E', symObjAddr: 0x1AC, symBinAddr: 0x1B2B8, symSize: 0x14 }
  - { offset: 0x463A3, size: 0x8, addend: 0x0, symName: '__ZN4pyo35impl_4wrap62IntoPyObjectConverter$LT$core..result..Result$LT$T$C$E$GT$$GT$12map_into_ptr17h13a7863559edf76dE', symObjAddr: 0x0, symBinAddr: 0x1B10C, symSize: 0x44 }
  - { offset: 0x4640C, size: 0x8, addend: 0x0, symName: '__ZN4pyo35impl_4wrap62IntoPyObjectConverter$LT$core..result..Result$LT$T$C$E$GT$$GT$12map_into_ptr17he86c16da5e4bda5aE', symObjAddr: 0x44, symBinAddr: 0x1B150, symSize: 0x44 }
  - { offset: 0x46468, size: 0x8, addend: 0x0, symName: '__ZN4pyo35impl_4wrap62IntoPyObjectConverter$LT$core..result..Result$LT$T$C$E$GT$$GT$4wrap17h1696b6fb743d10d5E', symObjAddr: 0xE8, symBinAddr: 0x1B1F4, symSize: 0x34 }
  - { offset: 0x464AB, size: 0x8, addend: 0x0, symName: '__ZN4pyo35impl_4wrap62IntoPyObjectConverter$LT$core..result..Result$LT$T$C$E$GT$$GT$4wrap17hdfe1c2c2cbb8a136E', symObjAddr: 0x11C, symBinAddr: 0x1B228, symSize: 0x34 }
  - { offset: 0x46567, size: 0x8, addend: 0x0, symName: '__ZN136_$LT$core..result..Result$LT$V$C$E$GT$$u20$as$u20$core..iter..traits..collect..FromIterator$LT$core..result..Result$LT$A$C$E$GT$$GT$$GT$9from_iter17h2ff7fb834980b61bE', symObjAddr: 0x0, symBinAddr: 0x1B2CC, symSize: 0x34 }
  - { offset: 0x4721A, size: 0x8, addend: 0x0, symName: '__ZN136_$LT$core..result..Result$LT$V$C$E$GT$$u20$as$u20$core..iter..traits..collect..FromIterator$LT$core..result..Result$LT$A$C$E$GT$$GT$$GT$9from_iter17h2ff7fb834980b61bE', symObjAddr: 0x0, symBinAddr: 0x1B2CC, symSize: 0x34 }
  - { offset: 0x4726D, size: 0x8, addend: 0x0, symName: '__ZN136_$LT$core..result..Result$LT$V$C$E$GT$$u20$as$u20$core..iter..traits..collect..FromIterator$LT$core..result..Result$LT$A$C$E$GT$$GT$$GT$9from_iter17h895b68bef510baa7E', symObjAddr: 0x34, symBinAddr: 0x1B300, symSize: 0x34 }
  - { offset: 0x472C0, size: 0x8, addend: 0x0, symName: '__ZN136_$LT$core..result..Result$LT$V$C$E$GT$$u20$as$u20$core..iter..traits..collect..FromIterator$LT$core..result..Result$LT$A$C$E$GT$$GT$$GT$9from_iter17hc533cc1d4b2f0e21E', symObjAddr: 0x68, symBinAddr: 0x1B334, symSize: 0x34 }
  - { offset: 0x47318, size: 0x8, addend: 0x0, symName: '__ZN136_$LT$core..result..Result$LT$V$C$E$GT$$u20$as$u20$core..iter..traits..collect..FromIterator$LT$core..result..Result$LT$A$C$E$GT$$GT$$GT$9from_iter28_$u7b$$u7b$closure$u7d$$u7d$17h2bef4d648223fabdE', symObjAddr: 0x9C, symBinAddr: 0x1B368, symSize: 0x28 }
  - { offset: 0x47376, size: 0x8, addend: 0x0, symName: '__ZN136_$LT$core..result..Result$LT$V$C$E$GT$$u20$as$u20$core..iter..traits..collect..FromIterator$LT$core..result..Result$LT$A$C$E$GT$$GT$$GT$9from_iter28_$u7b$$u7b$closure$u7d$$u7d$17h815623054ce3c665E', symObjAddr: 0xC4, symBinAddr: 0x1B390, symSize: 0x28 }
  - { offset: 0x473D4, size: 0x8, addend: 0x0, symName: '__ZN136_$LT$core..result..Result$LT$V$C$E$GT$$u20$as$u20$core..iter..traits..collect..FromIterator$LT$core..result..Result$LT$A$C$E$GT$$GT$$GT$9from_iter28_$u7b$$u7b$closure$u7d$$u7d$17h901fd3ac4f113891E', symObjAddr: 0xEC, symBinAddr: 0x1B3B8, symSize: 0x28 }
  - { offset: 0x4744E, size: 0x8, addend: 0x0, symName: '__ZN153_$LT$core..result..Result$LT$T$C$F$GT$$u20$as$u20$core..ops..try_trait..FromResidual$LT$core..result..Result$LT$core..convert..Infallible$C$E$GT$$GT$$GT$13from_residual17h079e57995a604a15E', symObjAddr: 0x114, symBinAddr: 0x1B3E0, symSize: 0x4C }
  - { offset: 0x474B5, size: 0x8, addend: 0x0, symName: '__ZN153_$LT$core..result..Result$LT$T$C$F$GT$$u20$as$u20$core..ops..try_trait..FromResidual$LT$core..result..Result$LT$core..convert..Infallible$C$E$GT$$GT$$GT$13from_residual17h0a789c27c1e5256dE', symObjAddr: 0x160, symBinAddr: 0x1B42C, symSize: 0x6C }
  - { offset: 0x4753B, size: 0x8, addend: 0x0, symName: '__ZN153_$LT$core..result..Result$LT$T$C$F$GT$$u20$as$u20$core..ops..try_trait..FromResidual$LT$core..result..Result$LT$core..convert..Infallible$C$E$GT$$GT$$GT$13from_residual17h0abdfdf42a191ab5E', symObjAddr: 0x1CC, symBinAddr: 0x1B498, symSize: 0x5C }
  - { offset: 0x475C1, size: 0x8, addend: 0x0, symName: '__ZN153_$LT$core..result..Result$LT$T$C$F$GT$$u20$as$u20$core..ops..try_trait..FromResidual$LT$core..result..Result$LT$core..convert..Infallible$C$E$GT$$GT$$GT$13from_residual17h11a2d0b0b64e53b5E', symObjAddr: 0x228, symBinAddr: 0x1B4F4, symSize: 0x54 }
  - { offset: 0x47628, size: 0x8, addend: 0x0, symName: '__ZN153_$LT$core..result..Result$LT$T$C$F$GT$$u20$as$u20$core..ops..try_trait..FromResidual$LT$core..result..Result$LT$core..convert..Infallible$C$E$GT$$GT$$GT$13from_residual17h11b3eaa64d3d787aE', symObjAddr: 0x27C, symBinAddr: 0x1B548, symSize: 0x58 }
  - { offset: 0x47690, size: 0x8, addend: 0x0, symName: '__ZN153_$LT$core..result..Result$LT$T$C$F$GT$$u20$as$u20$core..ops..try_trait..FromResidual$LT$core..result..Result$LT$core..convert..Infallible$C$E$GT$$GT$$GT$13from_residual17h15529d24c3ee28c2E', symObjAddr: 0x2D4, symBinAddr: 0x1B5A0, symSize: 0x5C }
  - { offset: 0x476F8, size: 0x8, addend: 0x0, symName: '__ZN153_$LT$core..result..Result$LT$T$C$F$GT$$u20$as$u20$core..ops..try_trait..FromResidual$LT$core..result..Result$LT$core..convert..Infallible$C$E$GT$$GT$$GT$13from_residual17h185770e0922e6dfdE', symObjAddr: 0x330, symBinAddr: 0x1B5FC, symSize: 0x44 }
  - { offset: 0x4775F, size: 0x8, addend: 0x0, symName: '__ZN153_$LT$core..result..Result$LT$T$C$F$GT$$u20$as$u20$core..ops..try_trait..FromResidual$LT$core..result..Result$LT$core..convert..Infallible$C$E$GT$$GT$$GT$13from_residual17h18f52dcd5f612113E', symObjAddr: 0x374, symBinAddr: 0x1B640, symSize: 0x4C }
  - { offset: 0x477C6, size: 0x8, addend: 0x0, symName: '__ZN153_$LT$core..result..Result$LT$T$C$F$GT$$u20$as$u20$core..ops..try_trait..FromResidual$LT$core..result..Result$LT$core..convert..Infallible$C$E$GT$$GT$$GT$13from_residual17h192fd32f46e627daE', symObjAddr: 0x3C0, symBinAddr: 0x1B68C, symSize: 0x6C }
  - { offset: 0x4784C, size: 0x8, addend: 0x0, symName: '__ZN153_$LT$core..result..Result$LT$T$C$F$GT$$u20$as$u20$core..ops..try_trait..FromResidual$LT$core..result..Result$LT$core..convert..Infallible$C$E$GT$$GT$$GT$13from_residual17h1b4ff904f6ccb742E', symObjAddr: 0x42C, symBinAddr: 0x1B6F8, symSize: 0x6C }
  - { offset: 0x478D2, size: 0x8, addend: 0x0, symName: '__ZN153_$LT$core..result..Result$LT$T$C$F$GT$$u20$as$u20$core..ops..try_trait..FromResidual$LT$core..result..Result$LT$core..convert..Infallible$C$E$GT$$GT$$GT$13from_residual17h1cbb5588be7cb24dE', symObjAddr: 0x498, symBinAddr: 0x1B764, symSize: 0x5C }
  - { offset: 0x47958, size: 0x8, addend: 0x0, symName: '__ZN153_$LT$core..result..Result$LT$T$C$F$GT$$u20$as$u20$core..ops..try_trait..FromResidual$LT$core..result..Result$LT$core..convert..Infallible$C$E$GT$$GT$$GT$13from_residual17h1d41a6915d3e1441E', symObjAddr: 0x4F4, symBinAddr: 0x1B7C0, symSize: 0x5C }
  - { offset: 0x479BF, size: 0x8, addend: 0x0, symName: '__ZN153_$LT$core..result..Result$LT$T$C$F$GT$$u20$as$u20$core..ops..try_trait..FromResidual$LT$core..result..Result$LT$core..convert..Infallible$C$E$GT$$GT$$GT$13from_residual17h1f991e2182538093E', symObjAddr: 0x550, symBinAddr: 0x1B81C, symSize: 0x6C }
  - { offset: 0x47A45, size: 0x8, addend: 0x0, symName: '__ZN153_$LT$core..result..Result$LT$T$C$F$GT$$u20$as$u20$core..ops..try_trait..FromResidual$LT$core..result..Result$LT$core..convert..Infallible$C$E$GT$$GT$$GT$13from_residual17h1faa793bd2cbbac3E', symObjAddr: 0x5BC, symBinAddr: 0x1B888, symSize: 0x5C }
  - { offset: 0x47AAC, size: 0x8, addend: 0x0, symName: '__ZN153_$LT$core..result..Result$LT$T$C$F$GT$$u20$as$u20$core..ops..try_trait..FromResidual$LT$core..result..Result$LT$core..convert..Infallible$C$E$GT$$GT$$GT$13from_residual17h2688c7b643d7333fE', symObjAddr: 0x618, symBinAddr: 0x1B8E4, symSize: 0x4C }
  - { offset: 0x47B13, size: 0x8, addend: 0x0, symName: '__ZN153_$LT$core..result..Result$LT$T$C$F$GT$$u20$as$u20$core..ops..try_trait..FromResidual$LT$core..result..Result$LT$core..convert..Infallible$C$E$GT$$GT$$GT$13from_residual17h26c7c52073248a44E', symObjAddr: 0x664, symBinAddr: 0x1B930, symSize: 0x48 }
  - { offset: 0x47B98, size: 0x8, addend: 0x0, symName: '__ZN153_$LT$core..result..Result$LT$T$C$F$GT$$u20$as$u20$core..ops..try_trait..FromResidual$LT$core..result..Result$LT$core..convert..Infallible$C$E$GT$$GT$$GT$13from_residual17h2851b406d0a7cea5E', symObjAddr: 0x6AC, symBinAddr: 0x1B978, symSize: 0x5C }
  - { offset: 0x47C00, size: 0x8, addend: 0x0, symName: '__ZN153_$LT$core..result..Result$LT$T$C$F$GT$$u20$as$u20$core..ops..try_trait..FromResidual$LT$core..result..Result$LT$core..convert..Infallible$C$E$GT$$GT$$GT$13from_residual17h2ca1eab00017919cE', symObjAddr: 0x708, symBinAddr: 0x1B9D4, symSize: 0x4C }
  - { offset: 0x47C67, size: 0x8, addend: 0x0, symName: '__ZN153_$LT$core..result..Result$LT$T$C$F$GT$$u20$as$u20$core..ops..try_trait..FromResidual$LT$core..result..Result$LT$core..convert..Infallible$C$E$GT$$GT$$GT$13from_residual17h305e032bae22903dE', symObjAddr: 0x754, symBinAddr: 0x1BA20, symSize: 0x6C }
  - { offset: 0x47CED, size: 0x8, addend: 0x0, symName: '__ZN153_$LT$core..result..Result$LT$T$C$F$GT$$u20$as$u20$core..ops..try_trait..FromResidual$LT$core..result..Result$LT$core..convert..Infallible$C$E$GT$$GT$$GT$13from_residual17h33710c294ee531edE', symObjAddr: 0x7C0, symBinAddr: 0x1BA8C, symSize: 0x5C }
  - { offset: 0x47D73, size: 0x8, addend: 0x0, symName: '__ZN153_$LT$core..result..Result$LT$T$C$F$GT$$u20$as$u20$core..ops..try_trait..FromResidual$LT$core..result..Result$LT$core..convert..Infallible$C$E$GT$$GT$$GT$13from_residual17h337e9d450391554dE', symObjAddr: 0x81C, symBinAddr: 0x1BAE8, symSize: 0x4C }
  - { offset: 0x47DDA, size: 0x8, addend: 0x0, symName: '__ZN153_$LT$core..result..Result$LT$T$C$F$GT$$u20$as$u20$core..ops..try_trait..FromResidual$LT$core..result..Result$LT$core..convert..Infallible$C$E$GT$$GT$$GT$13from_residual17h3c273c1ee5321369E', symObjAddr: 0x868, symBinAddr: 0x1BB34, symSize: 0x4C }
  - { offset: 0x47E41, size: 0x8, addend: 0x0, symName: '__ZN153_$LT$core..result..Result$LT$T$C$F$GT$$u20$as$u20$core..ops..try_trait..FromResidual$LT$core..result..Result$LT$core..convert..Infallible$C$E$GT$$GT$$GT$13from_residual17h3ce4dfa550e11da5E', symObjAddr: 0x8B4, symBinAddr: 0x1BB80, symSize: 0x4C }
  - { offset: 0x47EA8, size: 0x8, addend: 0x0, symName: '__ZN153_$LT$core..result..Result$LT$T$C$F$GT$$u20$as$u20$core..ops..try_trait..FromResidual$LT$core..result..Result$LT$core..convert..Infallible$C$E$GT$$GT$$GT$13from_residual17h3d5bef8bb4845606E', symObjAddr: 0x900, symBinAddr: 0x1BBCC, symSize: 0x4C }
  - { offset: 0x47F0F, size: 0x8, addend: 0x0, symName: '__ZN153_$LT$core..result..Result$LT$T$C$F$GT$$u20$as$u20$core..ops..try_trait..FromResidual$LT$core..result..Result$LT$core..convert..Infallible$C$E$GT$$GT$$GT$13from_residual17h3f958c391de608faE', symObjAddr: 0x94C, symBinAddr: 0x1BC18, symSize: 0x58 }
  - { offset: 0x47F76, size: 0x8, addend: 0x0, symName: '__ZN153_$LT$core..result..Result$LT$T$C$F$GT$$u20$as$u20$core..ops..try_trait..FromResidual$LT$core..result..Result$LT$core..convert..Infallible$C$E$GT$$GT$$GT$13from_residual17h4079f5cae3fd75f8E', symObjAddr: 0x9A4, symBinAddr: 0x1BC70, symSize: 0x5C }
  - { offset: 0x47FFC, size: 0x8, addend: 0x0, symName: '__ZN153_$LT$core..result..Result$LT$T$C$F$GT$$u20$as$u20$core..ops..try_trait..FromResidual$LT$core..result..Result$LT$core..convert..Infallible$C$E$GT$$GT$$GT$13from_residual17h40ab83bd9431898bE', symObjAddr: 0xA00, symBinAddr: 0x1BCCC, symSize: 0x5C }
  - { offset: 0x48082, size: 0x8, addend: 0x0, symName: '__ZN153_$LT$core..result..Result$LT$T$C$F$GT$$u20$as$u20$core..ops..try_trait..FromResidual$LT$core..result..Result$LT$core..convert..Infallible$C$E$GT$$GT$$GT$13from_residual17h40cf0332ae3e1745E', symObjAddr: 0xA5C, symBinAddr: 0x1BD28, symSize: 0x4C }
  - { offset: 0x480E9, size: 0x8, addend: 0x0, symName: '__ZN153_$LT$core..result..Result$LT$T$C$F$GT$$u20$as$u20$core..ops..try_trait..FromResidual$LT$core..result..Result$LT$core..convert..Infallible$C$E$GT$$GT$$GT$13from_residual17h415ef6f674e380c2E', symObjAddr: 0xAA8, symBinAddr: 0x1BD74, symSize: 0x6C }
  - { offset: 0x4816F, size: 0x8, addend: 0x0, symName: '__ZN153_$LT$core..result..Result$LT$T$C$F$GT$$u20$as$u20$core..ops..try_trait..FromResidual$LT$core..result..Result$LT$core..convert..Infallible$C$E$GT$$GT$$GT$13from_residual17h419eb39cb3ecf643E', symObjAddr: 0xB14, symBinAddr: 0x1BDE0, symSize: 0x6C }
  - { offset: 0x481F5, size: 0x8, addend: 0x0, symName: '__ZN153_$LT$core..result..Result$LT$T$C$F$GT$$u20$as$u20$core..ops..try_trait..FromResidual$LT$core..result..Result$LT$core..convert..Infallible$C$E$GT$$GT$$GT$13from_residual17h4217887f86ccc6cbE', symObjAddr: 0xB80, symBinAddr: 0x1BE4C, symSize: 0x5C }
  - { offset: 0x4825D, size: 0x8, addend: 0x0, symName: '__ZN153_$LT$core..result..Result$LT$T$C$F$GT$$u20$as$u20$core..ops..try_trait..FromResidual$LT$core..result..Result$LT$core..convert..Infallible$C$E$GT$$GT$$GT$13from_residual17h451702c1cc20f61dE', symObjAddr: 0xBDC, symBinAddr: 0x1BEA8, symSize: 0x6C }
  - { offset: 0x482E3, size: 0x8, addend: 0x0, symName: '__ZN153_$LT$core..result..Result$LT$T$C$F$GT$$u20$as$u20$core..ops..try_trait..FromResidual$LT$core..result..Result$LT$core..convert..Infallible$C$E$GT$$GT$$GT$13from_residual17h456670ea30eee4a0E', symObjAddr: 0xC48, symBinAddr: 0x1BF14, symSize: 0x64 }
  - { offset: 0x4834B, size: 0x8, addend: 0x0, symName: '__ZN153_$LT$core..result..Result$LT$T$C$F$GT$$u20$as$u20$core..ops..try_trait..FromResidual$LT$core..result..Result$LT$core..convert..Infallible$C$E$GT$$GT$$GT$13from_residual17h47ffd922fa80d2fcE', symObjAddr: 0xCAC, symBinAddr: 0x1BF78, symSize: 0x5C }
  - { offset: 0x483D1, size: 0x8, addend: 0x0, symName: '__ZN153_$LT$core..result..Result$LT$T$C$F$GT$$u20$as$u20$core..ops..try_trait..FromResidual$LT$core..result..Result$LT$core..convert..Infallible$C$E$GT$$GT$$GT$13from_residual17h489a864189331eabE', symObjAddr: 0xD08, symBinAddr: 0x1BFD4, symSize: 0x5C }
  - { offset: 0x48457, size: 0x8, addend: 0x0, symName: '__ZN153_$LT$core..result..Result$LT$T$C$F$GT$$u20$as$u20$core..ops..try_trait..FromResidual$LT$core..result..Result$LT$core..convert..Infallible$C$E$GT$$GT$$GT$13from_residual17h4a56aeb4c6332ba5E', symObjAddr: 0xD64, symBinAddr: 0x1C030, symSize: 0x4C }
  - { offset: 0x484BE, size: 0x8, addend: 0x0, symName: '__ZN153_$LT$core..result..Result$LT$T$C$F$GT$$u20$as$u20$core..ops..try_trait..FromResidual$LT$core..result..Result$LT$core..convert..Infallible$C$E$GT$$GT$$GT$13from_residual17h4be54946d6846e07E', symObjAddr: 0xDB0, symBinAddr: 0x1C07C, symSize: 0x5C }
  - { offset: 0x48544, size: 0x8, addend: 0x0, symName: '__ZN153_$LT$core..result..Result$LT$T$C$F$GT$$u20$as$u20$core..ops..try_trait..FromResidual$LT$core..result..Result$LT$core..convert..Infallible$C$E$GT$$GT$$GT$13from_residual17h534184b11dd77bdfE', symObjAddr: 0xE0C, symBinAddr: 0x1C0D8, symSize: 0x4C }
  - { offset: 0x485AB, size: 0x8, addend: 0x0, symName: '__ZN153_$LT$core..result..Result$LT$T$C$F$GT$$u20$as$u20$core..ops..try_trait..FromResidual$LT$core..result..Result$LT$core..convert..Infallible$C$E$GT$$GT$$GT$13from_residual17h536de08fcd80beccE', symObjAddr: 0xE58, symBinAddr: 0x1C124, symSize: 0x4C }
  - { offset: 0x48612, size: 0x8, addend: 0x0, symName: '__ZN153_$LT$core..result..Result$LT$T$C$F$GT$$u20$as$u20$core..ops..try_trait..FromResidual$LT$core..result..Result$LT$core..convert..Infallible$C$E$GT$$GT$$GT$13from_residual17h576f80456bfb860eE', symObjAddr: 0xEA4, symBinAddr: 0x1C170, symSize: 0x54 }
  - { offset: 0x48679, size: 0x8, addend: 0x0, symName: '__ZN153_$LT$core..result..Result$LT$T$C$F$GT$$u20$as$u20$core..ops..try_trait..FromResidual$LT$core..result..Result$LT$core..convert..Infallible$C$E$GT$$GT$$GT$13from_residual17h586ece1054540d4bE', symObjAddr: 0xEF8, symBinAddr: 0x1C1C4, symSize: 0x5C }
  - { offset: 0x486FF, size: 0x8, addend: 0x0, symName: '__ZN153_$LT$core..result..Result$LT$T$C$F$GT$$u20$as$u20$core..ops..try_trait..FromResidual$LT$core..result..Result$LT$core..convert..Infallible$C$E$GT$$GT$$GT$13from_residual17h5a0cc62ed4d423a7E', symObjAddr: 0xF54, symBinAddr: 0x1C220, symSize: 0x44 }
  - { offset: 0x48766, size: 0x8, addend: 0x0, symName: '__ZN153_$LT$core..result..Result$LT$T$C$F$GT$$u20$as$u20$core..ops..try_trait..FromResidual$LT$core..result..Result$LT$core..convert..Infallible$C$E$GT$$GT$$GT$13from_residual17h5c73948b3b9e58d0E', symObjAddr: 0xF98, symBinAddr: 0x1C264, symSize: 0x54 }
  - { offset: 0x487CD, size: 0x8, addend: 0x0, symName: '__ZN153_$LT$core..result..Result$LT$T$C$F$GT$$u20$as$u20$core..ops..try_trait..FromResidual$LT$core..result..Result$LT$core..convert..Infallible$C$E$GT$$GT$$GT$13from_residual17h604d036d257f8a18E', symObjAddr: 0xFEC, symBinAddr: 0x1C2B8, symSize: 0x5C }
  - { offset: 0x48853, size: 0x8, addend: 0x0, symName: '__ZN153_$LT$core..result..Result$LT$T$C$F$GT$$u20$as$u20$core..ops..try_trait..FromResidual$LT$core..result..Result$LT$core..convert..Infallible$C$E$GT$$GT$$GT$13from_residual17h6680d6af4bea6672E', symObjAddr: 0x1048, symBinAddr: 0x1C314, symSize: 0x5C }
  - { offset: 0x488D9, size: 0x8, addend: 0x0, symName: '__ZN153_$LT$core..result..Result$LT$T$C$F$GT$$u20$as$u20$core..ops..try_trait..FromResidual$LT$core..result..Result$LT$core..convert..Infallible$C$E$GT$$GT$$GT$13from_residual17h66ab601a4670e4b2E', symObjAddr: 0x10A4, symBinAddr: 0x1C370, symSize: 0x48 }
  - { offset: 0x4895E, size: 0x8, addend: 0x0, symName: '__ZN153_$LT$core..result..Result$LT$T$C$F$GT$$u20$as$u20$core..ops..try_trait..FromResidual$LT$core..result..Result$LT$core..convert..Infallible$C$E$GT$$GT$$GT$13from_residual17h6796fb18c4033debE', symObjAddr: 0x10EC, symBinAddr: 0x1C3B8, symSize: 0x6C }
  - { offset: 0x489E4, size: 0x8, addend: 0x0, symName: '__ZN153_$LT$core..result..Result$LT$T$C$F$GT$$u20$as$u20$core..ops..try_trait..FromResidual$LT$core..result..Result$LT$core..convert..Infallible$C$E$GT$$GT$$GT$13from_residual17h686a01a45fc1ea31E', symObjAddr: 0x1158, symBinAddr: 0x1C424, symSize: 0x4C }
  - { offset: 0x48A4B, size: 0x8, addend: 0x0, symName: '__ZN153_$LT$core..result..Result$LT$T$C$F$GT$$u20$as$u20$core..ops..try_trait..FromResidual$LT$core..result..Result$LT$core..convert..Infallible$C$E$GT$$GT$$GT$13from_residual17h6a084d702b99b6f9E', symObjAddr: 0x11A4, symBinAddr: 0x1C470, symSize: 0x5C }
  - { offset: 0x48AD1, size: 0x8, addend: 0x0, symName: '__ZN153_$LT$core..result..Result$LT$T$C$F$GT$$u20$as$u20$core..ops..try_trait..FromResidual$LT$core..result..Result$LT$core..convert..Infallible$C$E$GT$$GT$$GT$13from_residual17h6d0466bf0bc2e8ceE', symObjAddr: 0x1200, symBinAddr: 0x1C4CC, symSize: 0x54 }
  - { offset: 0x48B38, size: 0x8, addend: 0x0, symName: '__ZN153_$LT$core..result..Result$LT$T$C$F$GT$$u20$as$u20$core..ops..try_trait..FromResidual$LT$core..result..Result$LT$core..convert..Infallible$C$E$GT$$GT$$GT$13from_residual17h6d64cf9b42c6de23E', symObjAddr: 0x1254, symBinAddr: 0x1C520, symSize: 0x4C }
  - { offset: 0x48B9F, size: 0x8, addend: 0x0, symName: '__ZN153_$LT$core..result..Result$LT$T$C$F$GT$$u20$as$u20$core..ops..try_trait..FromResidual$LT$core..result..Result$LT$core..convert..Infallible$C$E$GT$$GT$$GT$13from_residual17h6f4699eb5099b77eE', symObjAddr: 0x12A0, symBinAddr: 0x1C56C, symSize: 0x4C }
  - { offset: 0x48C06, size: 0x8, addend: 0x0, symName: '__ZN153_$LT$core..result..Result$LT$T$C$F$GT$$u20$as$u20$core..ops..try_trait..FromResidual$LT$core..result..Result$LT$core..convert..Infallible$C$E$GT$$GT$$GT$13from_residual17h703faa57162418a9E', symObjAddr: 0x12EC, symBinAddr: 0x1C5B8, symSize: 0x5C }
  - { offset: 0x48C6E, size: 0x8, addend: 0x0, symName: '__ZN153_$LT$core..result..Result$LT$T$C$F$GT$$u20$as$u20$core..ops..try_trait..FromResidual$LT$core..result..Result$LT$core..convert..Infallible$C$E$GT$$GT$$GT$13from_residual17h7041d997891746beE', symObjAddr: 0x1348, symBinAddr: 0x1C614, symSize: 0x34 }
  - { offset: 0x48CD5, size: 0x8, addend: 0x0, symName: '__ZN153_$LT$core..result..Result$LT$T$C$F$GT$$u20$as$u20$core..ops..try_trait..FromResidual$LT$core..result..Result$LT$core..convert..Infallible$C$E$GT$$GT$$GT$13from_residual17h71b560b7cc7f9b39E', symObjAddr: 0x137C, symBinAddr: 0x1C648, symSize: 0x4C }
  - { offset: 0x48D3C, size: 0x8, addend: 0x0, symName: '__ZN153_$LT$core..result..Result$LT$T$C$F$GT$$u20$as$u20$core..ops..try_trait..FromResidual$LT$core..result..Result$LT$core..convert..Infallible$C$E$GT$$GT$$GT$13from_residual17h8215818cafc04d96E', symObjAddr: 0x13C8, symBinAddr: 0x1C694, symSize: 0x6C }
  - { offset: 0x48DC2, size: 0x8, addend: 0x0, symName: '__ZN153_$LT$core..result..Result$LT$T$C$F$GT$$u20$as$u20$core..ops..try_trait..FromResidual$LT$core..result..Result$LT$core..convert..Infallible$C$E$GT$$GT$$GT$13from_residual17h833179949c23c93dE', symObjAddr: 0x1434, symBinAddr: 0x1C700, symSize: 0x5C }
  - { offset: 0x48E48, size: 0x8, addend: 0x0, symName: '__ZN153_$LT$core..result..Result$LT$T$C$F$GT$$u20$as$u20$core..ops..try_trait..FromResidual$LT$core..result..Result$LT$core..convert..Infallible$C$E$GT$$GT$$GT$13from_residual17h87fa07468ab9b03fE', symObjAddr: 0x1490, symBinAddr: 0x1C75C, symSize: 0x4C }
  - { offset: 0x48EAF, size: 0x8, addend: 0x0, symName: '__ZN153_$LT$core..result..Result$LT$T$C$F$GT$$u20$as$u20$core..ops..try_trait..FromResidual$LT$core..result..Result$LT$core..convert..Infallible$C$E$GT$$GT$$GT$13from_residual17h8ce7dfa80a03c6cfE', symObjAddr: 0x14DC, symBinAddr: 0x1C7A8, symSize: 0x4C }
  - { offset: 0x48F16, size: 0x8, addend: 0x0, symName: '__ZN153_$LT$core..result..Result$LT$T$C$F$GT$$u20$as$u20$core..ops..try_trait..FromResidual$LT$core..result..Result$LT$core..convert..Infallible$C$E$GT$$GT$$GT$13from_residual17h8d28a9071622043cE', symObjAddr: 0x1528, symBinAddr: 0x1C7F4, symSize: 0x4C }
  - { offset: 0x48F7D, size: 0x8, addend: 0x0, symName: '__ZN153_$LT$core..result..Result$LT$T$C$F$GT$$u20$as$u20$core..ops..try_trait..FromResidual$LT$core..result..Result$LT$core..convert..Infallible$C$E$GT$$GT$$GT$13from_residual17h929b9ca80f6aca2bE', symObjAddr: 0x1574, symBinAddr: 0x1C840, symSize: 0x44 }
  - { offset: 0x48FE4, size: 0x8, addend: 0x0, symName: '__ZN153_$LT$core..result..Result$LT$T$C$F$GT$$u20$as$u20$core..ops..try_trait..FromResidual$LT$core..result..Result$LT$core..convert..Infallible$C$E$GT$$GT$$GT$13from_residual17h93b98ef6694168a9E', symObjAddr: 0x15B8, symBinAddr: 0x1C884, symSize: 0x6C }
  - { offset: 0x4906A, size: 0x8, addend: 0x0, symName: '__ZN153_$LT$core..result..Result$LT$T$C$F$GT$$u20$as$u20$core..ops..try_trait..FromResidual$LT$core..result..Result$LT$core..convert..Infallible$C$E$GT$$GT$$GT$13from_residual17h9a3fb2684e9e401dE', symObjAddr: 0x162C, symBinAddr: 0x1C8F0, symSize: 0x5C }
  - { offset: 0x490F0, size: 0x8, addend: 0x0, symName: '__ZN153_$LT$core..result..Result$LT$T$C$F$GT$$u20$as$u20$core..ops..try_trait..FromResidual$LT$core..result..Result$LT$core..convert..Infallible$C$E$GT$$GT$$GT$13from_residual17h9a4b823952aafaf0E', symObjAddr: 0x1688, symBinAddr: 0x1C94C, symSize: 0x54 }
  - { offset: 0x49158, size: 0x8, addend: 0x0, symName: '__ZN153_$LT$core..result..Result$LT$T$C$F$GT$$u20$as$u20$core..ops..try_trait..FromResidual$LT$core..result..Result$LT$core..convert..Infallible$C$E$GT$$GT$$GT$13from_residual17h9c3717f9ac021291E', symObjAddr: 0x16DC, symBinAddr: 0x1C9A0, symSize: 0x4C }
  - { offset: 0x491BF, size: 0x8, addend: 0x0, symName: '__ZN153_$LT$core..result..Result$LT$T$C$F$GT$$u20$as$u20$core..ops..try_trait..FromResidual$LT$core..result..Result$LT$core..convert..Infallible$C$E$GT$$GT$$GT$13from_residual17h9ff2cc3a195f0165E', symObjAddr: 0x1728, symBinAddr: 0x1C9EC, symSize: 0x54 }
  - { offset: 0x49227, size: 0x8, addend: 0x0, symName: '__ZN153_$LT$core..result..Result$LT$T$C$F$GT$$u20$as$u20$core..ops..try_trait..FromResidual$LT$core..result..Result$LT$core..convert..Infallible$C$E$GT$$GT$$GT$13from_residual17ha3b10029fa559e13E', symObjAddr: 0x177C, symBinAddr: 0x1CA40, symSize: 0x4C }
  - { offset: 0x4928E, size: 0x8, addend: 0x0, symName: '__ZN153_$LT$core..result..Result$LT$T$C$F$GT$$u20$as$u20$core..ops..try_trait..FromResidual$LT$core..result..Result$LT$core..convert..Infallible$C$E$GT$$GT$$GT$13from_residual17ha714b02cf8e74786E', symObjAddr: 0x17C8, symBinAddr: 0x1CA8C, symSize: 0x6C }
  - { offset: 0x49314, size: 0x8, addend: 0x0, symName: '__ZN153_$LT$core..result..Result$LT$T$C$F$GT$$u20$as$u20$core..ops..try_trait..FromResidual$LT$core..result..Result$LT$core..convert..Infallible$C$E$GT$$GT$$GT$13from_residual17ha958e542c7d77bc8E', symObjAddr: 0x1834, symBinAddr: 0x1CAF8, symSize: 0x6C }
  - { offset: 0x4939A, size: 0x8, addend: 0x0, symName: '__ZN153_$LT$core..result..Result$LT$T$C$F$GT$$u20$as$u20$core..ops..try_trait..FromResidual$LT$core..result..Result$LT$core..convert..Infallible$C$E$GT$$GT$$GT$13from_residual17haac80130a37a8512E', symObjAddr: 0x18A0, symBinAddr: 0x1CB64, symSize: 0x38 }
  - { offset: 0x49401, size: 0x8, addend: 0x0, symName: '__ZN153_$LT$core..result..Result$LT$T$C$F$GT$$u20$as$u20$core..ops..try_trait..FromResidual$LT$core..result..Result$LT$core..convert..Infallible$C$E$GT$$GT$$GT$13from_residual17hae131f15a6aa735fE', symObjAddr: 0x18D8, symBinAddr: 0x1CB9C, symSize: 0x5C }
  - { offset: 0x49487, size: 0x8, addend: 0x0, symName: '__ZN153_$LT$core..result..Result$LT$T$C$F$GT$$u20$as$u20$core..ops..try_trait..FromResidual$LT$core..result..Result$LT$core..convert..Infallible$C$E$GT$$GT$$GT$13from_residual17haed08bfac291f0caE', symObjAddr: 0x1934, symBinAddr: 0x1CBF8, symSize: 0x4C }
  - { offset: 0x494EE, size: 0x8, addend: 0x0, symName: '__ZN153_$LT$core..result..Result$LT$T$C$F$GT$$u20$as$u20$core..ops..try_trait..FromResidual$LT$core..result..Result$LT$core..convert..Infallible$C$E$GT$$GT$$GT$13from_residual17hb00e011d6755bd69E', symObjAddr: 0x1980, symBinAddr: 0x1CC44, symSize: 0x5C }
  - { offset: 0x49555, size: 0x8, addend: 0x0, symName: '__ZN153_$LT$core..result..Result$LT$T$C$F$GT$$u20$as$u20$core..ops..try_trait..FromResidual$LT$core..result..Result$LT$core..convert..Infallible$C$E$GT$$GT$$GT$13from_residual17hb0acd136db0590b4E', symObjAddr: 0x19DC, symBinAddr: 0x1CCA0, symSize: 0x48 }
  - { offset: 0x495BD, size: 0x8, addend: 0x0, symName: '__ZN153_$LT$core..result..Result$LT$T$C$F$GT$$u20$as$u20$core..ops..try_trait..FromResidual$LT$core..result..Result$LT$core..convert..Infallible$C$E$GT$$GT$$GT$13from_residual17hb1ccb08442eccc32E', symObjAddr: 0x1A24, symBinAddr: 0x1CCE8, symSize: 0x5C }
  - { offset: 0x49643, size: 0x8, addend: 0x0, symName: '__ZN153_$LT$core..result..Result$LT$T$C$F$GT$$u20$as$u20$core..ops..try_trait..FromResidual$LT$core..result..Result$LT$core..convert..Infallible$C$E$GT$$GT$$GT$13from_residual17hb3add0d4f1e2142fE', symObjAddr: 0x1A80, symBinAddr: 0x1CD44, symSize: 0x6C }
  - { offset: 0x496C9, size: 0x8, addend: 0x0, symName: '__ZN153_$LT$core..result..Result$LT$T$C$F$GT$$u20$as$u20$core..ops..try_trait..FromResidual$LT$core..result..Result$LT$core..convert..Infallible$C$E$GT$$GT$$GT$13from_residual17hb638f5a25ec98646E', symObjAddr: 0x1AEC, symBinAddr: 0x1CDB0, symSize: 0x6C }
  - { offset: 0x4974F, size: 0x8, addend: 0x0, symName: '__ZN153_$LT$core..result..Result$LT$T$C$F$GT$$u20$as$u20$core..ops..try_trait..FromResidual$LT$core..result..Result$LT$core..convert..Infallible$C$E$GT$$GT$$GT$13from_residual17hb86edcf0e4dc3812E', symObjAddr: 0x1B58, symBinAddr: 0x1CE1C, symSize: 0x48 }
  - { offset: 0x497D4, size: 0x8, addend: 0x0, symName: '__ZN153_$LT$core..result..Result$LT$T$C$F$GT$$u20$as$u20$core..ops..try_trait..FromResidual$LT$core..result..Result$LT$core..convert..Infallible$C$E$GT$$GT$$GT$13from_residual17hba5724db4509defaE', symObjAddr: 0x1BA0, symBinAddr: 0x1CE64, symSize: 0x5C }
  - { offset: 0x4985A, size: 0x8, addend: 0x0, symName: '__ZN153_$LT$core..result..Result$LT$T$C$F$GT$$u20$as$u20$core..ops..try_trait..FromResidual$LT$core..result..Result$LT$core..convert..Infallible$C$E$GT$$GT$$GT$13from_residual17hbaf4a019ca61b823E', symObjAddr: 0x1BFC, symBinAddr: 0x1CEC0, symSize: 0x4C }
  - { offset: 0x498C1, size: 0x8, addend: 0x0, symName: '__ZN153_$LT$core..result..Result$LT$T$C$F$GT$$u20$as$u20$core..ops..try_trait..FromResidual$LT$core..result..Result$LT$core..convert..Infallible$C$E$GT$$GT$$GT$13from_residual17hbc84b92d372ef0f4E', symObjAddr: 0x1C48, symBinAddr: 0x1CF0C, symSize: 0x5C }
  - { offset: 0x49947, size: 0x8, addend: 0x0, symName: '__ZN153_$LT$core..result..Result$LT$T$C$F$GT$$u20$as$u20$core..ops..try_trait..FromResidual$LT$core..result..Result$LT$core..convert..Infallible$C$E$GT$$GT$$GT$13from_residual17hbce2e144a8b05c15E', symObjAddr: 0x1CA4, symBinAddr: 0x1CF68, symSize: 0x4C }
  - { offset: 0x499AE, size: 0x8, addend: 0x0, symName: '__ZN153_$LT$core..result..Result$LT$T$C$F$GT$$u20$as$u20$core..ops..try_trait..FromResidual$LT$core..result..Result$LT$core..convert..Infallible$C$E$GT$$GT$$GT$13from_residual17hbdcd83590623b54dE', symObjAddr: 0x1CF0, symBinAddr: 0x1CFB4, symSize: 0x4C }
  - { offset: 0x49A15, size: 0x8, addend: 0x0, symName: '__ZN153_$LT$core..result..Result$LT$T$C$F$GT$$u20$as$u20$core..ops..try_trait..FromResidual$LT$core..result..Result$LT$core..convert..Infallible$C$E$GT$$GT$$GT$13from_residual17hc15041d213ac80b3E', symObjAddr: 0x1D3C, symBinAddr: 0x1D000, symSize: 0x5C }
  - { offset: 0x49A7D, size: 0x8, addend: 0x0, symName: '__ZN153_$LT$core..result..Result$LT$T$C$F$GT$$u20$as$u20$core..ops..try_trait..FromResidual$LT$core..result..Result$LT$core..convert..Infallible$C$E$GT$$GT$$GT$13from_residual17hc262f5bfdb9c6ffdE', symObjAddr: 0x1D98, symBinAddr: 0x1D05C, symSize: 0x4C }
  - { offset: 0x49AE4, size: 0x8, addend: 0x0, symName: '__ZN153_$LT$core..result..Result$LT$T$C$F$GT$$u20$as$u20$core..ops..try_trait..FromResidual$LT$core..result..Result$LT$core..convert..Infallible$C$E$GT$$GT$$GT$13from_residual17hc3cf0db044cafc09E', symObjAddr: 0x1DE4, symBinAddr: 0x1D0A8, symSize: 0x48 }
  - { offset: 0x49B69, size: 0x8, addend: 0x0, symName: '__ZN153_$LT$core..result..Result$LT$T$C$F$GT$$u20$as$u20$core..ops..try_trait..FromResidual$LT$core..result..Result$LT$core..convert..Infallible$C$E$GT$$GT$$GT$13from_residual17hc3d8c1abd1685f4fE', symObjAddr: 0x1E2C, symBinAddr: 0x1D0F0, symSize: 0x6C }
  - { offset: 0x49BEF, size: 0x8, addend: 0x0, symName: '__ZN153_$LT$core..result..Result$LT$T$C$F$GT$$u20$as$u20$core..ops..try_trait..FromResidual$LT$core..result..Result$LT$core..convert..Infallible$C$E$GT$$GT$$GT$13from_residual17hc853ad2ad61808f9E', symObjAddr: 0x1E98, symBinAddr: 0x1D15C, symSize: 0x4C }
  - { offset: 0x49C56, size: 0x8, addend: 0x0, symName: '__ZN153_$LT$core..result..Result$LT$T$C$F$GT$$u20$as$u20$core..ops..try_trait..FromResidual$LT$core..result..Result$LT$core..convert..Infallible$C$E$GT$$GT$$GT$13from_residual17hc98a67c4453c0b56E', symObjAddr: 0x1EE4, symBinAddr: 0x1D1A8, symSize: 0x5C }
  - { offset: 0x49CBD, size: 0x8, addend: 0x0, symName: '__ZN153_$LT$core..result..Result$LT$T$C$F$GT$$u20$as$u20$core..ops..try_trait..FromResidual$LT$core..result..Result$LT$core..convert..Infallible$C$E$GT$$GT$$GT$13from_residual17hcaf9bd727e52d167E', symObjAddr: 0x1F40, symBinAddr: 0x1D204, symSize: 0x6C }
  - { offset: 0x49D43, size: 0x8, addend: 0x0, symName: '__ZN153_$LT$core..result..Result$LT$T$C$F$GT$$u20$as$u20$core..ops..try_trait..FromResidual$LT$core..result..Result$LT$core..convert..Infallible$C$E$GT$$GT$$GT$13from_residual17hcc4417d932c227e9E', symObjAddr: 0x1FAC, symBinAddr: 0x1D270, symSize: 0x4C }
  - { offset: 0x49DAA, size: 0x8, addend: 0x0, symName: '__ZN153_$LT$core..result..Result$LT$T$C$F$GT$$u20$as$u20$core..ops..try_trait..FromResidual$LT$core..result..Result$LT$core..convert..Infallible$C$E$GT$$GT$$GT$13from_residual17hcd98708cfdbc3e2bE', symObjAddr: 0x1FF8, symBinAddr: 0x1D2BC, symSize: 0x4C }
  - { offset: 0x49E11, size: 0x8, addend: 0x0, symName: '__ZN153_$LT$core..result..Result$LT$T$C$F$GT$$u20$as$u20$core..ops..try_trait..FromResidual$LT$core..result..Result$LT$core..convert..Infallible$C$E$GT$$GT$$GT$13from_residual17hcdb8048a8c30916cE', symObjAddr: 0x2044, symBinAddr: 0x1D308, symSize: 0x5C }
  - { offset: 0x49E78, size: 0x8, addend: 0x0, symName: '__ZN153_$LT$core..result..Result$LT$T$C$F$GT$$u20$as$u20$core..ops..try_trait..FromResidual$LT$core..result..Result$LT$core..convert..Infallible$C$E$GT$$GT$$GT$13from_residual17hce6e4f9966d09d95E', symObjAddr: 0x20A0, symBinAddr: 0x1D364, symSize: 0x4C }
  - { offset: 0x49EDF, size: 0x8, addend: 0x0, symName: '__ZN153_$LT$core..result..Result$LT$T$C$F$GT$$u20$as$u20$core..ops..try_trait..FromResidual$LT$core..result..Result$LT$core..convert..Infallible$C$E$GT$$GT$$GT$13from_residual17hcecfd5caa82443b7E', symObjAddr: 0x20EC, symBinAddr: 0x1D3B0, symSize: 0x5C }
  - { offset: 0x49F47, size: 0x8, addend: 0x0, symName: '__ZN153_$LT$core..result..Result$LT$T$C$F$GT$$u20$as$u20$core..ops..try_trait..FromResidual$LT$core..result..Result$LT$core..convert..Infallible$C$E$GT$$GT$$GT$13from_residual17hd01775b78619ce10E', symObjAddr: 0x2148, symBinAddr: 0x1D40C, symSize: 0x54 }
  - { offset: 0x49FAE, size: 0x8, addend: 0x0, symName: '__ZN153_$LT$core..result..Result$LT$T$C$F$GT$$u20$as$u20$core..ops..try_trait..FromResidual$LT$core..result..Result$LT$core..convert..Infallible$C$E$GT$$GT$$GT$13from_residual17hd2ea4e984b447405E', symObjAddr: 0x219C, symBinAddr: 0x1D460, symSize: 0x44 }
  - { offset: 0x4A015, size: 0x8, addend: 0x0, symName: '__ZN153_$LT$core..result..Result$LT$T$C$F$GT$$u20$as$u20$core..ops..try_trait..FromResidual$LT$core..result..Result$LT$core..convert..Infallible$C$E$GT$$GT$$GT$13from_residual17hd4d5d2fcd1580806E', symObjAddr: 0x21E0, symBinAddr: 0x1D4A4, symSize: 0x54 }
  - { offset: 0x4A07C, size: 0x8, addend: 0x0, symName: '__ZN153_$LT$core..result..Result$LT$T$C$F$GT$$u20$as$u20$core..ops..try_trait..FromResidual$LT$core..result..Result$LT$core..convert..Infallible$C$E$GT$$GT$$GT$13from_residual17hd7a82a302deac6d5E', symObjAddr: 0x2234, symBinAddr: 0x1D4F8, symSize: 0x44 }
  - { offset: 0x4A0E3, size: 0x8, addend: 0x0, symName: '__ZN153_$LT$core..result..Result$LT$T$C$F$GT$$u20$as$u20$core..ops..try_trait..FromResidual$LT$core..result..Result$LT$core..convert..Infallible$C$E$GT$$GT$$GT$13from_residual17hd86162b8374a7458E', symObjAddr: 0x2278, symBinAddr: 0x1D53C, symSize: 0x4C }
  - { offset: 0x4A14A, size: 0x8, addend: 0x0, symName: '__ZN153_$LT$core..result..Result$LT$T$C$F$GT$$u20$as$u20$core..ops..try_trait..FromResidual$LT$core..result..Result$LT$core..convert..Infallible$C$E$GT$$GT$$GT$13from_residual17hd86f8ab13ee37336E', symObjAddr: 0x22C4, symBinAddr: 0x1D588, symSize: 0x5C }
  - { offset: 0x4A1D0, size: 0x8, addend: 0x0, symName: '__ZN153_$LT$core..result..Result$LT$T$C$F$GT$$u20$as$u20$core..ops..try_trait..FromResidual$LT$core..result..Result$LT$core..convert..Infallible$C$E$GT$$GT$$GT$13from_residual17hdf17b5a07e8aaa58E', symObjAddr: 0x2320, symBinAddr: 0x1D5E4, symSize: 0x5C }
  - { offset: 0x4A256, size: 0x8, addend: 0x0, symName: '__ZN153_$LT$core..result..Result$LT$T$C$F$GT$$u20$as$u20$core..ops..try_trait..FromResidual$LT$core..result..Result$LT$core..convert..Infallible$C$E$GT$$GT$$GT$13from_residual17he0d4f82a0ae128a1E', symObjAddr: 0x237C, symBinAddr: 0x1D640, symSize: 0x6C }
  - { offset: 0x4A2DC, size: 0x8, addend: 0x0, symName: '__ZN153_$LT$core..result..Result$LT$T$C$F$GT$$u20$as$u20$core..ops..try_trait..FromResidual$LT$core..result..Result$LT$core..convert..Infallible$C$E$GT$$GT$$GT$13from_residual17he4d96048de7a10d6E', symObjAddr: 0x23E8, symBinAddr: 0x1D6AC, symSize: 0x5C }
  - { offset: 0x4A362, size: 0x8, addend: 0x0, symName: '__ZN153_$LT$core..result..Result$LT$T$C$F$GT$$u20$as$u20$core..ops..try_trait..FromResidual$LT$core..result..Result$LT$core..convert..Infallible$C$E$GT$$GT$$GT$13from_residual17he5ad241890cf775bE', symObjAddr: 0x2444, symBinAddr: 0x1D708, symSize: 0x54 }
  - { offset: 0x4A3C9, size: 0x8, addend: 0x0, symName: '__ZN153_$LT$core..result..Result$LT$T$C$F$GT$$u20$as$u20$core..ops..try_trait..FromResidual$LT$core..result..Result$LT$core..convert..Infallible$C$E$GT$$GT$$GT$13from_residual17he8296cc0edce6df8E', symObjAddr: 0x2498, symBinAddr: 0x1D75C, symSize: 0x6C }
  - { offset: 0x4A44F, size: 0x8, addend: 0x0, symName: '__ZN153_$LT$core..result..Result$LT$T$C$F$GT$$u20$as$u20$core..ops..try_trait..FromResidual$LT$core..result..Result$LT$core..convert..Infallible$C$E$GT$$GT$$GT$13from_residual17he9b830c4c1b42c0bE', symObjAddr: 0x2504, symBinAddr: 0x1D7C8, symSize: 0x5C }
  - { offset: 0x4A4D5, size: 0x8, addend: 0x0, symName: '__ZN153_$LT$core..result..Result$LT$T$C$F$GT$$u20$as$u20$core..ops..try_trait..FromResidual$LT$core..result..Result$LT$core..convert..Infallible$C$E$GT$$GT$$GT$13from_residual17hec1352f2cddce2c8E', symObjAddr: 0x2560, symBinAddr: 0x1D824, symSize: 0x6C }
  - { offset: 0x4A55B, size: 0x8, addend: 0x0, symName: '__ZN153_$LT$core..result..Result$LT$T$C$F$GT$$u20$as$u20$core..ops..try_trait..FromResidual$LT$core..result..Result$LT$core..convert..Infallible$C$E$GT$$GT$$GT$13from_residual17heca6758007bb6382E', symObjAddr: 0x25CC, symBinAddr: 0x1D890, symSize: 0x4C }
  - { offset: 0x4A5C2, size: 0x8, addend: 0x0, symName: '__ZN153_$LT$core..result..Result$LT$T$C$F$GT$$u20$as$u20$core..ops..try_trait..FromResidual$LT$core..result..Result$LT$core..convert..Infallible$C$E$GT$$GT$$GT$13from_residual17hf58e9c275eb93730E', symObjAddr: 0x2618, symBinAddr: 0x1D8DC, symSize: 0x4C }
  - { offset: 0x4A629, size: 0x8, addend: 0x0, symName: '__ZN153_$LT$core..result..Result$LT$T$C$F$GT$$u20$as$u20$core..ops..try_trait..FromResidual$LT$core..result..Result$LT$core..convert..Infallible$C$E$GT$$GT$$GT$13from_residual17hf7ea67d6c980c84bE', symObjAddr: 0x2664, symBinAddr: 0x1D928, symSize: 0x50 }
  - { offset: 0x4A690, size: 0x8, addend: 0x0, symName: '__ZN153_$LT$core..result..Result$LT$T$C$F$GT$$u20$as$u20$core..ops..try_trait..FromResidual$LT$core..result..Result$LT$core..convert..Infallible$C$E$GT$$GT$$GT$13from_residual17hf94192e1ff97a865E', symObjAddr: 0x26B4, symBinAddr: 0x1D978, symSize: 0x4C }
  - { offset: 0x4A6F7, size: 0x8, addend: 0x0, symName: '__ZN153_$LT$core..result..Result$LT$T$C$F$GT$$u20$as$u20$core..ops..try_trait..FromResidual$LT$core..result..Result$LT$core..convert..Infallible$C$E$GT$$GT$$GT$13from_residual17hf9515cfb5483eea0E', symObjAddr: 0x2700, symBinAddr: 0x1D9C4, symSize: 0x5C }
  - { offset: 0x4BFBA, size: 0x8, addend: 0x0, symName: '__ZN70_$LT$core..result..Result$LT$T$C$E$GT$$u20$as$u20$core..fmt..Debug$GT$3fmt17h384542f3efaa6a94E', symObjAddr: 0x3C24, symBinAddr: 0x1EEE8, symSize: 0xB8 }
  - { offset: 0x4C04B, size: 0x8, addend: 0x0, symName: '__ZN79_$LT$core..result..Result$LT$T$C$E$GT$$u20$as$u20$core..ops..try_trait..Try$GT$11from_output17h884434ee75646a2cE', symObjAddr: 0x3CDC, symBinAddr: 0x1EFA0, symSize: 0x18 }
  - { offset: 0x4C08B, size: 0x8, addend: 0x0, symName: '__ZN79_$LT$core..result..Result$LT$T$C$E$GT$$u20$as$u20$core..ops..try_trait..Try$GT$11from_output17h96a86ddd01150532E', symObjAddr: 0x3CF4, symBinAddr: 0x1EFB8, symSize: 0x1C }
  - { offset: 0x4C0CB, size: 0x8, addend: 0x0, symName: '__ZN79_$LT$core..result..Result$LT$T$C$E$GT$$u20$as$u20$core..ops..try_trait..Try$GT$11from_output17he84dfd4445e67ff8E', symObjAddr: 0x3D10, symBinAddr: 0x1EFD4, symSize: 0x18 }
  - { offset: 0x4C10B, size: 0x8, addend: 0x0, symName: '__ZN79_$LT$core..result..Result$LT$T$C$E$GT$$u20$as$u20$core..ops..try_trait..Try$GT$6branch17h023a4f10d9727178E', symObjAddr: 0x3D28, symBinAddr: 0x1EFEC, symSize: 0x98 }
  - { offset: 0x4C188, size: 0x8, addend: 0x0, symName: '__ZN79_$LT$core..result..Result$LT$T$C$E$GT$$u20$as$u20$core..ops..try_trait..Try$GT$6branch17h0509b8813587df8bE', symObjAddr: 0x3DC0, symBinAddr: 0x1F084, symSize: 0xAC }
  - { offset: 0x4C206, size: 0x8, addend: 0x0, symName: '__ZN79_$LT$core..result..Result$LT$T$C$E$GT$$u20$as$u20$core..ops..try_trait..Try$GT$6branch17h09030df1b5a365adE', symObjAddr: 0x3E6C, symBinAddr: 0x1F130, symSize: 0x58 }
  - { offset: 0x4C282, size: 0x8, addend: 0x0, symName: '__ZN79_$LT$core..result..Result$LT$T$C$E$GT$$u20$as$u20$core..ops..try_trait..Try$GT$6branch17h090ab9a24567e3bbE', symObjAddr: 0x3EC4, symBinAddr: 0x1F188, symSize: 0xBC }
  - { offset: 0x4C300, size: 0x8, addend: 0x0, symName: '__ZN79_$LT$core..result..Result$LT$T$C$E$GT$$u20$as$u20$core..ops..try_trait..Try$GT$6branch17h14f1ab259d3eebfeE', symObjAddr: 0x3F80, symBinAddr: 0x1F244, symSize: 0xB4 }
  - { offset: 0x4C37E, size: 0x8, addend: 0x0, symName: '__ZN79_$LT$core..result..Result$LT$T$C$E$GT$$u20$as$u20$core..ops..try_trait..Try$GT$6branch17h1960da90a526975dE', symObjAddr: 0x4034, symBinAddr: 0x1F2F8, symSize: 0x88 }
  - { offset: 0x4C3FC, size: 0x8, addend: 0x0, symName: '__ZN79_$LT$core..result..Result$LT$T$C$E$GT$$u20$as$u20$core..ops..try_trait..Try$GT$6branch17h1b21f8f357022e16E', symObjAddr: 0x40BC, symBinAddr: 0x1F380, symSize: 0xA0 }
  - { offset: 0x4C479, size: 0x8, addend: 0x0, symName: '__ZN79_$LT$core..result..Result$LT$T$C$E$GT$$u20$as$u20$core..ops..try_trait..Try$GT$6branch17h1b38aa0f938bfb0dE', symObjAddr: 0x415C, symBinAddr: 0x1F420, symSize: 0xCC }
  - { offset: 0x4C4F7, size: 0x8, addend: 0x0, symName: '__ZN79_$LT$core..result..Result$LT$T$C$E$GT$$u20$as$u20$core..ops..try_trait..Try$GT$6branch17h1bb50a7fa21679bbE', symObjAddr: 0x4228, symBinAddr: 0x1F4EC, symSize: 0xB0 }
  - { offset: 0x4C574, size: 0x8, addend: 0x0, symName: '__ZN79_$LT$core..result..Result$LT$T$C$E$GT$$u20$as$u20$core..ops..try_trait..Try$GT$6branch17h1fb907804eed3c00E', symObjAddr: 0x42D8, symBinAddr: 0x1F59C, symSize: 0xA4 }
  - { offset: 0x4C5F1, size: 0x8, addend: 0x0, symName: '__ZN79_$LT$core..result..Result$LT$T$C$E$GT$$u20$as$u20$core..ops..try_trait..Try$GT$6branch17h214733ec133acd0cE', symObjAddr: 0x437C, symBinAddr: 0x1F640, symSize: 0xA4 }
  - { offset: 0x4C66E, size: 0x8, addend: 0x0, symName: '__ZN79_$LT$core..result..Result$LT$T$C$E$GT$$u20$as$u20$core..ops..try_trait..Try$GT$6branch17h242c02e465e9db87E', symObjAddr: 0x4420, symBinAddr: 0x1F6E4, symSize: 0xAC }
  - { offset: 0x4C6EC, size: 0x8, addend: 0x0, symName: '__ZN79_$LT$core..result..Result$LT$T$C$E$GT$$u20$as$u20$core..ops..try_trait..Try$GT$6branch17h253c84811c2612adE', symObjAddr: 0x44CC, symBinAddr: 0x1F790, symSize: 0xCC }
  - { offset: 0x4C76B, size: 0x8, addend: 0x0, symName: '__ZN79_$LT$core..result..Result$LT$T$C$E$GT$$u20$as$u20$core..ops..try_trait..Try$GT$6branch17h25b93409f2d40ec1E', symObjAddr: 0x4598, symBinAddr: 0x1F85C, symSize: 0x3C }
  - { offset: 0x4C7C9, size: 0x8, addend: 0x0, symName: '__ZN79_$LT$core..result..Result$LT$T$C$E$GT$$u20$as$u20$core..ops..try_trait..Try$GT$6branch17h2600d1626e5e4b43E', symObjAddr: 0x45D4, symBinAddr: 0x1F898, symSize: 0xCC }
  - { offset: 0x4C847, size: 0x8, addend: 0x0, symName: '__ZN79_$LT$core..result..Result$LT$T$C$E$GT$$u20$as$u20$core..ops..try_trait..Try$GT$6branch17h260d6d1a9e208c0aE', symObjAddr: 0x46A0, symBinAddr: 0x1F964, symSize: 0xA0 }
  - { offset: 0x4C8C4, size: 0x8, addend: 0x0, symName: '__ZN79_$LT$core..result..Result$LT$T$C$E$GT$$u20$as$u20$core..ops..try_trait..Try$GT$6branch17h29edb2351932cec9E', symObjAddr: 0x4740, symBinAddr: 0x1FA04, symSize: 0x98 }
  - { offset: 0x4C941, size: 0x8, addend: 0x0, symName: '__ZN79_$LT$core..result..Result$LT$T$C$E$GT$$u20$as$u20$core..ops..try_trait..Try$GT$6branch17h2b74aa279bbcc744E', symObjAddr: 0x47D8, symBinAddr: 0x1FA9C, symSize: 0x58 }
  - { offset: 0x4C9BD, size: 0x8, addend: 0x0, symName: '__ZN79_$LT$core..result..Result$LT$T$C$E$GT$$u20$as$u20$core..ops..try_trait..Try$GT$6branch17h2e62b8fa84fb1cfdE', symObjAddr: 0x4830, symBinAddr: 0x1FAF4, symSize: 0xAC }
  - { offset: 0x4CA3B, size: 0x8, addend: 0x0, symName: '__ZN79_$LT$core..result..Result$LT$T$C$E$GT$$u20$as$u20$core..ops..try_trait..Try$GT$6branch17h3311bfe61946852aE', symObjAddr: 0x48DC, symBinAddr: 0x1FBA0, symSize: 0x98 }
  - { offset: 0x4CAB8, size: 0x8, addend: 0x0, symName: '__ZN79_$LT$core..result..Result$LT$T$C$E$GT$$u20$as$u20$core..ops..try_trait..Try$GT$6branch17h3c7563b9e1e70966E', symObjAddr: 0x4974, symBinAddr: 0x1FC38, symSize: 0xB8 }
  - { offset: 0x4CB36, size: 0x8, addend: 0x0, symName: '__ZN79_$LT$core..result..Result$LT$T$C$E$GT$$u20$as$u20$core..ops..try_trait..Try$GT$6branch17h3dad8ff773429167E', symObjAddr: 0x4A2C, symBinAddr: 0x1FCF0, symSize: 0xC8 }
  - { offset: 0x4CBB5, size: 0x8, addend: 0x0, symName: '__ZN79_$LT$core..result..Result$LT$T$C$E$GT$$u20$as$u20$core..ops..try_trait..Try$GT$6branch17h4348b6f4db0bb6b0E', symObjAddr: 0x4AF4, symBinAddr: 0x1FDB8, symSize: 0xB0 }
  - { offset: 0x4CC32, size: 0x8, addend: 0x0, symName: '__ZN79_$LT$core..result..Result$LT$T$C$E$GT$$u20$as$u20$core..ops..try_trait..Try$GT$6branch17h4653b90a1ee1fba8E', symObjAddr: 0x4BA4, symBinAddr: 0x1FE68, symSize: 0xA0 }
  - { offset: 0x4CCAF, size: 0x8, addend: 0x0, symName: '__ZN79_$LT$core..result..Result$LT$T$C$E$GT$$u20$as$u20$core..ops..try_trait..Try$GT$6branch17h4761c9204364f76fE', symObjAddr: 0x4C44, symBinAddr: 0x1FF08, symSize: 0xCC }
  - { offset: 0x4CD2D, size: 0x8, addend: 0x0, symName: '__ZN79_$LT$core..result..Result$LT$T$C$E$GT$$u20$as$u20$core..ops..try_trait..Try$GT$6branch17h4864b07ea450c155E', symObjAddr: 0x4D10, symBinAddr: 0x1FFD4, symSize: 0xCC }
  - { offset: 0x4CDAC, size: 0x8, addend: 0x0, symName: '__ZN79_$LT$core..result..Result$LT$T$C$E$GT$$u20$as$u20$core..ops..try_trait..Try$GT$6branch17h4ce0d0eb903b83f3E', symObjAddr: 0x4DDC, symBinAddr: 0x200A0, symSize: 0xC4 }
  - { offset: 0x4CE2A, size: 0x8, addend: 0x0, symName: '__ZN79_$LT$core..result..Result$LT$T$C$E$GT$$u20$as$u20$core..ops..try_trait..Try$GT$6branch17h4ee070743cc6af46E', symObjAddr: 0x4EA0, symBinAddr: 0x20164, symSize: 0xA0 }
  - { offset: 0x4CEA7, size: 0x8, addend: 0x0, symName: '__ZN79_$LT$core..result..Result$LT$T$C$E$GT$$u20$as$u20$core..ops..try_trait..Try$GT$6branch17h5081d91d3174c0f6E', symObjAddr: 0x4F40, symBinAddr: 0x20204, symSize: 0xA8 }
  - { offset: 0x4CF24, size: 0x8, addend: 0x0, symName: '__ZN79_$LT$core..result..Result$LT$T$C$E$GT$$u20$as$u20$core..ops..try_trait..Try$GT$6branch17h50b2dfd9e0a0c467E', symObjAddr: 0x4FE8, symBinAddr: 0x202AC, symSize: 0xCC }
  - { offset: 0x4CFA3, size: 0x8, addend: 0x0, symName: '__ZN79_$LT$core..result..Result$LT$T$C$E$GT$$u20$as$u20$core..ops..try_trait..Try$GT$6branch17h566298f9c0366816E', symObjAddr: 0x50B4, symBinAddr: 0x20378, symSize: 0xBC }
  - { offset: 0x4D021, size: 0x8, addend: 0x0, symName: '__ZN79_$LT$core..result..Result$LT$T$C$E$GT$$u20$as$u20$core..ops..try_trait..Try$GT$6branch17h56ba8e6036215ed4E', symObjAddr: 0x5170, symBinAddr: 0x20434, symSize: 0x88 }
  - { offset: 0x4D09E, size: 0x8, addend: 0x0, symName: '__ZN79_$LT$core..result..Result$LT$T$C$E$GT$$u20$as$u20$core..ops..try_trait..Try$GT$6branch17h57b4f08352b3dadeE', symObjAddr: 0x51F8, symBinAddr: 0x204BC, symSize: 0x54 }
  - { offset: 0x4D11A, size: 0x8, addend: 0x0, symName: '__ZN79_$LT$core..result..Result$LT$T$C$E$GT$$u20$as$u20$core..ops..try_trait..Try$GT$6branch17h58a2a5afe330d1dcE', symObjAddr: 0x524C, symBinAddr: 0x20510, symSize: 0x64 }
  - { offset: 0x4D197, size: 0x8, addend: 0x0, symName: '__ZN79_$LT$core..result..Result$LT$T$C$E$GT$$u20$as$u20$core..ops..try_trait..Try$GT$6branch17h59b79f697eec7c0eE', symObjAddr: 0x52B0, symBinAddr: 0x20574, symSize: 0xB8 }
  - { offset: 0x4D215, size: 0x8, addend: 0x0, symName: '__ZN79_$LT$core..result..Result$LT$T$C$E$GT$$u20$as$u20$core..ops..try_trait..Try$GT$6branch17h5abe155def7a7002E', symObjAddr: 0x5368, symBinAddr: 0x2062C, symSize: 0xAC }
  - { offset: 0x4D292, size: 0x8, addend: 0x0, symName: '__ZN79_$LT$core..result..Result$LT$T$C$E$GT$$u20$as$u20$core..ops..try_trait..Try$GT$6branch17h5d430beab56f9c94E', symObjAddr: 0x5414, symBinAddr: 0x206D8, symSize: 0xA4 }
  - { offset: 0x4D30F, size: 0x8, addend: 0x0, symName: '__ZN79_$LT$core..result..Result$LT$T$C$E$GT$$u20$as$u20$core..ops..try_trait..Try$GT$6branch17h5e5434194352ba4eE', symObjAddr: 0x54B8, symBinAddr: 0x2077C, symSize: 0xB8 }
  - { offset: 0x4D38D, size: 0x8, addend: 0x0, symName: '__ZN79_$LT$core..result..Result$LT$T$C$E$GT$$u20$as$u20$core..ops..try_trait..Try$GT$6branch17h61b2d74b01b79aa8E', symObjAddr: 0x5570, symBinAddr: 0x20834, symSize: 0x98 }
  - { offset: 0x4D40A, size: 0x8, addend: 0x0, symName: '__ZN79_$LT$core..result..Result$LT$T$C$E$GT$$u20$as$u20$core..ops..try_trait..Try$GT$6branch17h620755a079de9b95E', symObjAddr: 0x5608, symBinAddr: 0x208CC, symSize: 0xA4 }
  - { offset: 0x4D487, size: 0x8, addend: 0x0, symName: '__ZN79_$LT$core..result..Result$LT$T$C$E$GT$$u20$as$u20$core..ops..try_trait..Try$GT$6branch17h6b9d91565b9cbd61E', symObjAddr: 0x56AC, symBinAddr: 0x20970, symSize: 0x98 }
  - { offset: 0x4D504, size: 0x8, addend: 0x0, symName: '__ZN79_$LT$core..result..Result$LT$T$C$E$GT$$u20$as$u20$core..ops..try_trait..Try$GT$6branch17h6e966dfbb9042ec5E', symObjAddr: 0x5744, symBinAddr: 0x20A08, symSize: 0xA4 }
  - { offset: 0x4D581, size: 0x8, addend: 0x0, symName: '__ZN79_$LT$core..result..Result$LT$T$C$E$GT$$u20$as$u20$core..ops..try_trait..Try$GT$6branch17h6fd84ac83511f4c3E', symObjAddr: 0x57E8, symBinAddr: 0x20AAC, symSize: 0xCC }
  - { offset: 0x4D5FF, size: 0x8, addend: 0x0, symName: '__ZN79_$LT$core..result..Result$LT$T$C$E$GT$$u20$as$u20$core..ops..try_trait..Try$GT$6branch17h70142f7b39dd6fd8E', symObjAddr: 0x58B4, symBinAddr: 0x20B78, symSize: 0xB4 }
  - { offset: 0x4D67D, size: 0x8, addend: 0x0, symName: '__ZN79_$LT$core..result..Result$LT$T$C$E$GT$$u20$as$u20$core..ops..try_trait..Try$GT$6branch17h704dbf4c104d0e68E', symObjAddr: 0x5968, symBinAddr: 0x20C2C, symSize: 0xB8 }
  - { offset: 0x4D6FB, size: 0x8, addend: 0x0, symName: '__ZN79_$LT$core..result..Result$LT$T$C$E$GT$$u20$as$u20$core..ops..try_trait..Try$GT$6branch17h7a52139f882ad27dE', symObjAddr: 0x5A20, symBinAddr: 0x20CE4, symSize: 0xB4 }
  - { offset: 0x4D779, size: 0x8, addend: 0x0, symName: '__ZN79_$LT$core..result..Result$LT$T$C$E$GT$$u20$as$u20$core..ops..try_trait..Try$GT$6branch17h80749dec63aba94eE', symObjAddr: 0x5AD4, symBinAddr: 0x20D98, symSize: 0xB8 }
  - { offset: 0x4D7F6, size: 0x8, addend: 0x0, symName: '__ZN79_$LT$core..result..Result$LT$T$C$E$GT$$u20$as$u20$core..ops..try_trait..Try$GT$6branch17h83af1967c2709362E', symObjAddr: 0x5B8C, symBinAddr: 0x20E50, symSize: 0xB0 }
  - { offset: 0x4D873, size: 0x8, addend: 0x0, symName: '__ZN79_$LT$core..result..Result$LT$T$C$E$GT$$u20$as$u20$core..ops..try_trait..Try$GT$6branch17h852097c11f8e1354E', symObjAddr: 0x5C3C, symBinAddr: 0x20F00, symSize: 0xA4 }
  - { offset: 0x4D8F0, size: 0x8, addend: 0x0, symName: '__ZN79_$LT$core..result..Result$LT$T$C$E$GT$$u20$as$u20$core..ops..try_trait..Try$GT$6branch17h8604d7faa264132bE', symObjAddr: 0x5CE0, symBinAddr: 0x20FA4, symSize: 0x54 }
  - { offset: 0x4D96C, size: 0x8, addend: 0x0, symName: '__ZN79_$LT$core..result..Result$LT$T$C$E$GT$$u20$as$u20$core..ops..try_trait..Try$GT$6branch17h8757317b9360e2d0E', symObjAddr: 0x5D34, symBinAddr: 0x20FF8, symSize: 0x98 }
  - { offset: 0x4D9E9, size: 0x8, addend: 0x0, symName: '__ZN79_$LT$core..result..Result$LT$T$C$E$GT$$u20$as$u20$core..ops..try_trait..Try$GT$6branch17h88a46441aac47e77E', symObjAddr: 0x5DCC, symBinAddr: 0x21090, symSize: 0x58 }
  - { offset: 0x4DA65, size: 0x8, addend: 0x0, symName: '__ZN79_$LT$core..result..Result$LT$T$C$E$GT$$u20$as$u20$core..ops..try_trait..Try$GT$6branch17h8a929549fc2063c8E', symObjAddr: 0x5E24, symBinAddr: 0x210E8, symSize: 0x58 }
  - { offset: 0x4DAE1, size: 0x8, addend: 0x0, symName: '__ZN79_$LT$core..result..Result$LT$T$C$E$GT$$u20$as$u20$core..ops..try_trait..Try$GT$6branch17h8c768db5b8e829b1E', symObjAddr: 0x5E7C, symBinAddr: 0x21140, symSize: 0x58 }
  - { offset: 0x4DB5D, size: 0x8, addend: 0x0, symName: '__ZN79_$LT$core..result..Result$LT$T$C$E$GT$$u20$as$u20$core..ops..try_trait..Try$GT$6branch17h8d9ab296d7576276E', symObjAddr: 0x5ED4, symBinAddr: 0x21198, symSize: 0xB0 }
  - { offset: 0x4DBDA, size: 0x8, addend: 0x0, symName: '__ZN79_$LT$core..result..Result$LT$T$C$E$GT$$u20$as$u20$core..ops..try_trait..Try$GT$6branch17h90ed2ba3e866770dE', symObjAddr: 0x5F84, symBinAddr: 0x21248, symSize: 0xCC }
  - { offset: 0x4DC59, size: 0x8, addend: 0x0, symName: '__ZN79_$LT$core..result..Result$LT$T$C$E$GT$$u20$as$u20$core..ops..try_trait..Try$GT$6branch17h92a05e4bae081c0cE', symObjAddr: 0x6050, symBinAddr: 0x21314, symSize: 0xB4 }
  - { offset: 0x4DCD7, size: 0x8, addend: 0x0, symName: '__ZN79_$LT$core..result..Result$LT$T$C$E$GT$$u20$as$u20$core..ops..try_trait..Try$GT$6branch17h948c3ee66186cb45E', symObjAddr: 0x6104, symBinAddr: 0x213C8, symSize: 0xB4 }
  - { offset: 0x4DD55, size: 0x8, addend: 0x0, symName: '__ZN79_$LT$core..result..Result$LT$T$C$E$GT$$u20$as$u20$core..ops..try_trait..Try$GT$6branch17h9854a3b6df398789E', symObjAddr: 0x61B8, symBinAddr: 0x2147C, symSize: 0xB0 }
  - { offset: 0x4DDD3, size: 0x8, addend: 0x0, symName: '__ZN79_$LT$core..result..Result$LT$T$C$E$GT$$u20$as$u20$core..ops..try_trait..Try$GT$6branch17h997bc3000bacbf2aE', symObjAddr: 0x6268, symBinAddr: 0x2152C, symSize: 0xAC }
  - { offset: 0x4DE50, size: 0x8, addend: 0x0, symName: '__ZN79_$LT$core..result..Result$LT$T$C$E$GT$$u20$as$u20$core..ops..try_trait..Try$GT$6branch17h9ea6228af11e7467E', symObjAddr: 0x6314, symBinAddr: 0x215D8, symSize: 0x58 }
  - { offset: 0x4DECC, size: 0x8, addend: 0x0, symName: '__ZN79_$LT$core..result..Result$LT$T$C$E$GT$$u20$as$u20$core..ops..try_trait..Try$GT$6branch17h9f47b5615c1ba38eE', symObjAddr: 0x636C, symBinAddr: 0x21630, symSize: 0x58 }
  - { offset: 0x4DF48, size: 0x8, addend: 0x0, symName: '__ZN79_$LT$core..result..Result$LT$T$C$E$GT$$u20$as$u20$core..ops..try_trait..Try$GT$6branch17ha0cca775c3eaf28dE', symObjAddr: 0x63C4, symBinAddr: 0x21688, symSize: 0x90 }
  - { offset: 0x4DFC5, size: 0x8, addend: 0x0, symName: '__ZN79_$LT$core..result..Result$LT$T$C$E$GT$$u20$as$u20$core..ops..try_trait..Try$GT$6branch17hace761f0db7cd717E', symObjAddr: 0x6454, symBinAddr: 0x21718, symSize: 0xB0 }
  - { offset: 0x4E042, size: 0x8, addend: 0x0, symName: '__ZN79_$LT$core..result..Result$LT$T$C$E$GT$$u20$as$u20$core..ops..try_trait..Try$GT$6branch17haefd808ae6db252fE', symObjAddr: 0x6504, symBinAddr: 0x217C8, symSize: 0xCC }
  - { offset: 0x4E0C1, size: 0x8, addend: 0x0, symName: '__ZN79_$LT$core..result..Result$LT$T$C$E$GT$$u20$as$u20$core..ops..try_trait..Try$GT$6branch17hb41fa9ec727d64d7E', symObjAddr: 0x65D0, symBinAddr: 0x21894, symSize: 0xA4 }
  - { offset: 0x4E13E, size: 0x8, addend: 0x0, symName: '__ZN79_$LT$core..result..Result$LT$T$C$E$GT$$u20$as$u20$core..ops..try_trait..Try$GT$6branch17hb57034bbabbf9408E', symObjAddr: 0x6674, symBinAddr: 0x21938, symSize: 0xAC }
  - { offset: 0x4E1BC, size: 0x8, addend: 0x0, symName: '__ZN79_$LT$core..result..Result$LT$T$C$E$GT$$u20$as$u20$core..ops..try_trait..Try$GT$6branch17hb57c03765d1e9fe4E', symObjAddr: 0x6720, symBinAddr: 0x219E4, symSize: 0xAC }
  - { offset: 0x4E23A, size: 0x8, addend: 0x0, symName: '__ZN79_$LT$core..result..Result$LT$T$C$E$GT$$u20$as$u20$core..ops..try_trait..Try$GT$6branch17hb79a3bc790237b23E', symObjAddr: 0x67CC, symBinAddr: 0x21A90, symSize: 0x58 }
  - { offset: 0x4E2B6, size: 0x8, addend: 0x0, symName: '__ZN79_$LT$core..result..Result$LT$T$C$E$GT$$u20$as$u20$core..ops..try_trait..Try$GT$6branch17hb9e711cb272d9f0fE', symObjAddr: 0x6824, symBinAddr: 0x21AE8, symSize: 0x98 }
  - { offset: 0x4E333, size: 0x8, addend: 0x0, symName: '__ZN79_$LT$core..result..Result$LT$T$C$E$GT$$u20$as$u20$core..ops..try_trait..Try$GT$6branch17hbcac53d3d43e9e00E', symObjAddr: 0x68BC, symBinAddr: 0x21B80, symSize: 0x9C }
  - { offset: 0x4E3B0, size: 0x8, addend: 0x0, symName: '__ZN79_$LT$core..result..Result$LT$T$C$E$GT$$u20$as$u20$core..ops..try_trait..Try$GT$6branch17hc00b499b040ff0a3E', symObjAddr: 0x6958, symBinAddr: 0x21C1C, symSize: 0x94 }
  - { offset: 0x4E42D, size: 0x8, addend: 0x0, symName: '__ZN79_$LT$core..result..Result$LT$T$C$E$GT$$u20$as$u20$core..ops..try_trait..Try$GT$6branch17hc0e42cf3d5f8e7deE', symObjAddr: 0x69EC, symBinAddr: 0x21CB0, symSize: 0xB8 }
  - { offset: 0x4E4AB, size: 0x8, addend: 0x0, symName: '__ZN79_$LT$core..result..Result$LT$T$C$E$GT$$u20$as$u20$core..ops..try_trait..Try$GT$6branch17hc3df0850bc780e71E', symObjAddr: 0x6AA4, symBinAddr: 0x21D68, symSize: 0xAC }
  - { offset: 0x4E529, size: 0x8, addend: 0x0, symName: '__ZN79_$LT$core..result..Result$LT$T$C$E$GT$$u20$as$u20$core..ops..try_trait..Try$GT$6branch17hc943a52d1a2292b2E', symObjAddr: 0x6B50, symBinAddr: 0x21E14, symSize: 0x58 }
  - { offset: 0x4E5A5, size: 0x8, addend: 0x0, symName: '__ZN79_$LT$core..result..Result$LT$T$C$E$GT$$u20$as$u20$core..ops..try_trait..Try$GT$6branch17hca31478b80bf707cE', symObjAddr: 0x6BA8, symBinAddr: 0x21E6C, symSize: 0x98 }
  - { offset: 0x4E622, size: 0x8, addend: 0x0, symName: '__ZN79_$LT$core..result..Result$LT$T$C$E$GT$$u20$as$u20$core..ops..try_trait..Try$GT$6branch17hca803f619114211fE', symObjAddr: 0x6C40, symBinAddr: 0x21F04, symSize: 0xC0 }
  - { offset: 0x4E6A1, size: 0x8, addend: 0x0, symName: '__ZN79_$LT$core..result..Result$LT$T$C$E$GT$$u20$as$u20$core..ops..try_trait..Try$GT$6branch17hcc0ebeeea7c3d31bE', symObjAddr: 0x6D00, symBinAddr: 0x21FC4, symSize: 0xC4 }
  - { offset: 0x4E720, size: 0x8, addend: 0x0, symName: '__ZN79_$LT$core..result..Result$LT$T$C$E$GT$$u20$as$u20$core..ops..try_trait..Try$GT$6branch17hcd0d7ec4f5146e56E', symObjAddr: 0x6DC4, symBinAddr: 0x22088, symSize: 0xB8 }
  - { offset: 0x4E79E, size: 0x8, addend: 0x0, symName: '__ZN79_$LT$core..result..Result$LT$T$C$E$GT$$u20$as$u20$core..ops..try_trait..Try$GT$6branch17hd035e5b56f20cbc2E', symObjAddr: 0x6E7C, symBinAddr: 0x22140, symSize: 0x94 }
  - { offset: 0x4E81B, size: 0x8, addend: 0x0, symName: '__ZN79_$LT$core..result..Result$LT$T$C$E$GT$$u20$as$u20$core..ops..try_trait..Try$GT$6branch17hd2406aaa9986f190E', symObjAddr: 0x6F10, symBinAddr: 0x221D4, symSize: 0xB4 }
  - { offset: 0x4E899, size: 0x8, addend: 0x0, symName: '__ZN79_$LT$core..result..Result$LT$T$C$E$GT$$u20$as$u20$core..ops..try_trait..Try$GT$6branch17hd277acfd1d4faf8aE', symObjAddr: 0x6FC4, symBinAddr: 0x22288, symSize: 0xA0 }
  - { offset: 0x4E916, size: 0x8, addend: 0x0, symName: '__ZN79_$LT$core..result..Result$LT$T$C$E$GT$$u20$as$u20$core..ops..try_trait..Try$GT$6branch17hd28b33fe0d97dd66E', symObjAddr: 0x7064, symBinAddr: 0x22328, symSize: 0xAC }
  - { offset: 0x4E994, size: 0x8, addend: 0x0, symName: '__ZN79_$LT$core..result..Result$LT$T$C$E$GT$$u20$as$u20$core..ops..try_trait..Try$GT$6branch17hd4073aa902556204E', symObjAddr: 0x7110, symBinAddr: 0x223D4, symSize: 0xC4 }
  - { offset: 0x4EA12, size: 0x8, addend: 0x0, symName: '__ZN79_$LT$core..result..Result$LT$T$C$E$GT$$u20$as$u20$core..ops..try_trait..Try$GT$6branch17hdc3c0d32255be45bE', symObjAddr: 0x71D4, symBinAddr: 0x22498, symSize: 0x58 }
  - { offset: 0x4EA8E, size: 0x8, addend: 0x0, symName: '__ZN79_$LT$core..result..Result$LT$T$C$E$GT$$u20$as$u20$core..ops..try_trait..Try$GT$6branch17hdc8d7e291ed49f05E', symObjAddr: 0x722C, symBinAddr: 0x224F0, symSize: 0x54 }
  - { offset: 0x4EB0A, size: 0x8, addend: 0x0, symName: '__ZN79_$LT$core..result..Result$LT$T$C$E$GT$$u20$as$u20$core..ops..try_trait..Try$GT$6branch17hde2ec2dffbd332b9E', symObjAddr: 0x7280, symBinAddr: 0x22544, symSize: 0xC4 }
  - { offset: 0x4EB88, size: 0x8, addend: 0x0, symName: '__ZN79_$LT$core..result..Result$LT$T$C$E$GT$$u20$as$u20$core..ops..try_trait..Try$GT$6branch17he010a7f4fc325859E', symObjAddr: 0x7344, symBinAddr: 0x22608, symSize: 0x68 }
  - { offset: 0x4EC05, size: 0x8, addend: 0x0, symName: '__ZN79_$LT$core..result..Result$LT$T$C$E$GT$$u20$as$u20$core..ops..try_trait..Try$GT$6branch17he297a22fd5ff2b1aE', symObjAddr: 0x73AC, symBinAddr: 0x22670, symSize: 0x9C }
  - { offset: 0x4EC82, size: 0x8, addend: 0x0, symName: '__ZN79_$LT$core..result..Result$LT$T$C$E$GT$$u20$as$u20$core..ops..try_trait..Try$GT$6branch17he2a643d151a143abE', symObjAddr: 0x7448, symBinAddr: 0x2270C, symSize: 0x98 }
  - { offset: 0x4ECFF, size: 0x8, addend: 0x0, symName: '__ZN79_$LT$core..result..Result$LT$T$C$E$GT$$u20$as$u20$core..ops..try_trait..Try$GT$6branch17he33fe94524e4a869E', symObjAddr: 0x74E0, symBinAddr: 0x227A4, symSize: 0xB8 }
  - { offset: 0x4ED7D, size: 0x8, addend: 0x0, symName: '__ZN79_$LT$core..result..Result$LT$T$C$E$GT$$u20$as$u20$core..ops..try_trait..Try$GT$6branch17hea4e650c8bd1f3d3E', symObjAddr: 0x7598, symBinAddr: 0x2285C, symSize: 0xA0 }
  - { offset: 0x4EDFA, size: 0x8, addend: 0x0, symName: '__ZN79_$LT$core..result..Result$LT$T$C$E$GT$$u20$as$u20$core..ops..try_trait..Try$GT$6branch17hec5e9d9edb94addbE', symObjAddr: 0x7638, symBinAddr: 0x228FC, symSize: 0x54 }
  - { offset: 0x4EE76, size: 0x8, addend: 0x0, symName: '__ZN79_$LT$core..result..Result$LT$T$C$E$GT$$u20$as$u20$core..ops..try_trait..Try$GT$6branch17hf1925c776913725eE', symObjAddr: 0x768C, symBinAddr: 0x22950, symSize: 0xAC }
  - { offset: 0x4EEF4, size: 0x8, addend: 0x0, symName: '__ZN79_$LT$core..result..Result$LT$T$C$E$GT$$u20$as$u20$core..ops..try_trait..Try$GT$6branch17hf5c32df0baa03ef3E', symObjAddr: 0x7738, symBinAddr: 0x229FC, symSize: 0xAC }
  - { offset: 0x4EF72, size: 0x8, addend: 0x0, symName: '__ZN79_$LT$core..result..Result$LT$T$C$E$GT$$u20$as$u20$core..ops..try_trait..Try$GT$6branch17hf6eb8f569b72bd83E', symObjAddr: 0x77E4, symBinAddr: 0x22AA8, symSize: 0xA0 }
  - { offset: 0x4EFEF, size: 0x8, addend: 0x0, symName: '__ZN79_$LT$core..result..Result$LT$T$C$E$GT$$u20$as$u20$core..ops..try_trait..Try$GT$6branch17hf78a707fd5ab9415E', symObjAddr: 0x7884, symBinAddr: 0x22B48, symSize: 0xAC }
  - { offset: 0x4F06D, size: 0x8, addend: 0x0, symName: '__ZN79_$LT$core..result..Result$LT$T$C$E$GT$$u20$as$u20$core..ops..try_trait..Try$GT$6branch17hf92011c2c719bab9E', symObjAddr: 0x7930, symBinAddr: 0x22BF4, symSize: 0x98 }
  - { offset: 0x4F0EA, size: 0x8, addend: 0x0, symName: '__ZN79_$LT$core..result..Result$LT$T$C$E$GT$$u20$as$u20$core..ops..try_trait..Try$GT$6branch17hfacd22e2c5ef871eE', symObjAddr: 0x79C8, symBinAddr: 0x22C8C, symSize: 0xB8 }
  - { offset: 0x4F168, size: 0x8, addend: 0x0, symName: '__ZN79_$LT$core..result..Result$LT$T$C$E$GT$$u20$as$u20$core..ops..try_trait..Try$GT$6branch17hfbe3788e69aaae4eE', symObjAddr: 0x7A80, symBinAddr: 0x22D44, symSize: 0xAC }
  - { offset: 0x4F1E6, size: 0x8, addend: 0x0, symName: '__ZN79_$LT$core..result..Result$LT$T$C$E$GT$$u20$as$u20$core..ops..try_trait..Try$GT$6branch17hfc7244c5835f8fa8E', symObjAddr: 0x7B2C, symBinAddr: 0x22DF0, symSize: 0x98 }
  - { offset: 0x53B63, size: 0x8, addend: 0x0, symName: '__ZN42_$LT$$RF$T$u20$as$u20$core..fmt..Debug$GT$3fmt17h2a35329b9c220a05E', symObjAddr: 0x275C, symBinAddr: 0x1DA20, symSize: 0x30 }
  - { offset: 0x5ACF6, size: 0x8, addend: 0x0, symName: '__ZN4core6result19Result$LT$T$C$E$GT$14unwrap_or_else17hc0b74b6cf79588b5E', symObjAddr: 0x278C, symBinAddr: 0x1DA50, symSize: 0x90 }
  - { offset: 0x5ADAE, size: 0x8, addend: 0x0, symName: '__ZN4core6result19Result$LT$T$C$E$GT$14unwrap_or_else17hd9c8f256f65557cbE', symObjAddr: 0x281C, symBinAddr: 0x1DAE0, symSize: 0x88 }
  - { offset: 0x5AE38, size: 0x8, addend: 0x0, symName: '__ZN4core6result19Result$LT$T$C$E$GT$2ok17he3ebe73a8536ca9cE', symObjAddr: 0x28A4, symBinAddr: 0x1DB68, symSize: 0x5C }
  - { offset: 0x5AEA4, size: 0x8, addend: 0x0, symName: '__ZN4core6result19Result$LT$T$C$E$GT$3map17h05caaf4719ffac66E', symObjAddr: 0x2900, symBinAddr: 0x1DBC4, symSize: 0x38 }
  - { offset: 0x5AF30, size: 0x8, addend: 0x0, symName: '__ZN4core6result19Result$LT$T$C$E$GT$3map17h07a1aa0ca68283f6E', symObjAddr: 0x2938, symBinAddr: 0x1DBFC, symSize: 0x38 }
  - { offset: 0x5B6E4, size: 0x8, addend: 0x0, symName: '__ZN4core6result19Result$LT$T$C$E$GT$3map17h1c1e06ac31cd42f3E', symObjAddr: 0x2970, symBinAddr: 0x1DC34, symSize: 0x4C }
  - { offset: 0x5B7E0, size: 0x8, addend: 0x0, symName: '__ZN4core6result19Result$LT$T$C$E$GT$3map17h39e3874c27c22eaeE', symObjAddr: 0x29BC, symBinAddr: 0x1DC80, symSize: 0x94 }
  - { offset: 0x5B898, size: 0x8, addend: 0x0, symName: '__ZN4core6result19Result$LT$T$C$E$GT$3map17h3c5119af6dc67125E', symObjAddr: 0x2A50, symBinAddr: 0x1DD14, symSize: 0x90 }
  - { offset: 0x5B92B, size: 0x8, addend: 0x0, symName: '__ZN4core6result19Result$LT$T$C$E$GT$3map17h4cb0fa5cf28ce110E', symObjAddr: 0x2AE0, symBinAddr: 0x1DDA4, symSize: 0x90 }
  - { offset: 0x5BA20, size: 0x8, addend: 0x0, symName: '__ZN4core6result19Result$LT$T$C$E$GT$3map17h5b2f08677edea478E', symObjAddr: 0x2B70, symBinAddr: 0x1DE34, symSize: 0x78 }
  - { offset: 0x5BACB, size: 0x8, addend: 0x0, symName: '__ZN4core6result19Result$LT$T$C$E$GT$3map17h5ce7c296066297f7E', symObjAddr: 0x2BE8, symBinAddr: 0x1DEAC, symSize: 0x38 }
  - { offset: 0x5BB57, size: 0x8, addend: 0x0, symName: '__ZN4core6result19Result$LT$T$C$E$GT$3map17hf60fea8a8ea2c891E', symObjAddr: 0x2C20, symBinAddr: 0x1DEE4, symSize: 0x94 }
  - { offset: 0x5BBF7, size: 0x8, addend: 0x0, symName: '__ZN4core6result19Result$LT$T$C$E$GT$5is_ok17hef2dffe8204841ebE', symObjAddr: 0x2CB4, symBinAddr: 0x1DF78, symSize: 0x28 }
  - { offset: 0x5BC2C, size: 0x8, addend: 0x0, symName: '__ZN4core6result19Result$LT$T$C$E$GT$6expect17hc051c6d88d40ebe3E', symObjAddr: 0x2CDC, symBinAddr: 0x1DFA0, symSize: 0xA8 }
  - { offset: 0x5BCC1, size: 0x8, addend: 0x0, symName: '__ZN4core6result19Result$LT$T$C$E$GT$6is_err17h35161126de4a9d55E', symObjAddr: 0x2D84, symBinAddr: 0x1E048, symSize: 0x20 }
  - { offset: 0x5BD46, size: 0x8, addend: 0x0, symName: '__ZN4core6result19Result$LT$T$C$E$GT$6is_err17h5270c85796fa09c3E', symObjAddr: 0x2DA4, symBinAddr: 0x1E068, symSize: 0x20 }
  - { offset: 0x5BDB1, size: 0x8, addend: 0x0, symName: '__ZN4core6result19Result$LT$T$C$E$GT$7map_err17h21a97b41ecea419cE', symObjAddr: 0x2DC4, symBinAddr: 0x1E088, symSize: 0xB8 }
  - { offset: 0x5BFD6, size: 0x8, addend: 0x0, symName: '__ZN4core6result19Result$LT$T$C$E$GT$7map_err17h2e5b794a0a0777b1E', symObjAddr: 0x2E7C, symBinAddr: 0x1E140, symSize: 0xD4 }
  - { offset: 0x5C077, size: 0x8, addend: 0x0, symName: '__ZN4core6result19Result$LT$T$C$E$GT$7map_err17h2f65094131d1fe94E', symObjAddr: 0x2F50, symBinAddr: 0x1E214, symSize: 0xB4 }
  - { offset: 0x5C10A, size: 0x8, addend: 0x0, symName: '__ZN4core6result19Result$LT$T$C$E$GT$7map_err17h4b199e309d311606E', symObjAddr: 0x3004, symBinAddr: 0x1E2C8, symSize: 0xB4 }
  - { offset: 0x5C19D, size: 0x8, addend: 0x0, symName: '__ZN4core6result19Result$LT$T$C$E$GT$7map_err17h4d95765fcfee3b36E', symObjAddr: 0x30B8, symBinAddr: 0x1E37C, symSize: 0xB4 }
  - { offset: 0x5C230, size: 0x8, addend: 0x0, symName: '__ZN4core6result19Result$LT$T$C$E$GT$7map_err17h65b461d362eaf644E', symObjAddr: 0x316C, symBinAddr: 0x1E430, symSize: 0xB4 }
  - { offset: 0x5C2C3, size: 0x8, addend: 0x0, symName: '__ZN4core6result19Result$LT$T$C$E$GT$7map_err17h72c5e486dfdd6915E', symObjAddr: 0x3220, symBinAddr: 0x1E4E4, symSize: 0xB4 }
  - { offset: 0x5C356, size: 0x8, addend: 0x0, symName: '__ZN4core6result19Result$LT$T$C$E$GT$7map_err17h7ce8f49c802eb818E', symObjAddr: 0x32D4, symBinAddr: 0x1E598, symSize: 0xB4 }
  - { offset: 0x5C3E9, size: 0x8, addend: 0x0, symName: '__ZN4core6result19Result$LT$T$C$E$GT$7map_err17h831a48bb73aa9895E', symObjAddr: 0x3388, symBinAddr: 0x1E64C, symSize: 0xB4 }
  - { offset: 0x5C47C, size: 0x8, addend: 0x0, symName: '__ZN4core6result19Result$LT$T$C$E$GT$7map_err17h83e0b0c3f6d6d1c5E', symObjAddr: 0x343C, symBinAddr: 0x1E700, symSize: 0xB4 }
  - { offset: 0x5C50F, size: 0x8, addend: 0x0, symName: '__ZN4core6result19Result$LT$T$C$E$GT$7map_err17h8bdc8fb188c93a65E', symObjAddr: 0x34F0, symBinAddr: 0x1E7B4, symSize: 0xB4 }
  - { offset: 0x5C5A2, size: 0x8, addend: 0x0, symName: '__ZN4core6result19Result$LT$T$C$E$GT$7map_err17hb15c991ed1f4d50bE', symObjAddr: 0x35A4, symBinAddr: 0x1E868, symSize: 0xB4 }
  - { offset: 0x5C635, size: 0x8, addend: 0x0, symName: '__ZN4core6result19Result$LT$T$C$E$GT$7map_err17hbd2daa911f31935cE', symObjAddr: 0x3658, symBinAddr: 0x1E91C, symSize: 0xB4 }
  - { offset: 0x5C6C8, size: 0x8, addend: 0x0, symName: '__ZN4core6result19Result$LT$T$C$E$GT$7map_err17hcc5f408d92792c02E', symObjAddr: 0x370C, symBinAddr: 0x1E9D0, symSize: 0xDC }
  - { offset: 0x5C774, size: 0x8, addend: 0x0, symName: '__ZN4core6result19Result$LT$T$C$E$GT$7map_err17hd2666406561be565E', symObjAddr: 0x37E8, symBinAddr: 0x1EAAC, symSize: 0x84 }
  - { offset: 0x5C806, size: 0x8, addend: 0x0, symName: '__ZN4core6result19Result$LT$T$C$E$GT$7map_err17hde36e3b6a1678ef2E', symObjAddr: 0x386C, symBinAddr: 0x1EB30, symSize: 0xB4 }
  - { offset: 0x5C899, size: 0x8, addend: 0x0, symName: '__ZN4core6result19Result$LT$T$C$E$GT$7map_err17hed2891647823ed87E', symObjAddr: 0x3920, symBinAddr: 0x1EBE4, symSize: 0xB4 }
  - { offset: 0x5C92C, size: 0x8, addend: 0x0, symName: '__ZN4core6result19Result$LT$T$C$E$GT$7map_err17hf0c74dd9d9ef490eE', symObjAddr: 0x39D4, symBinAddr: 0x1EC98, symSize: 0xB8 }
  - { offset: 0x5C9BF, size: 0x8, addend: 0x0, symName: '__ZN4core6result19Result$LT$T$C$E$GT$8and_then17h1db5cf05cfc08058E', symObjAddr: 0x3A8C, symBinAddr: 0x1ED50, symSize: 0x94 }
  - { offset: 0x5CA52, size: 0x8, addend: 0x0, symName: '__ZN4core6result19Result$LT$T$C$E$GT$8and_then17hc5de23f478b8214fE', symObjAddr: 0x3B20, symBinAddr: 0x1EDE4, symSize: 0x94 }
  - { offset: 0x5CAE5, size: 0x8, addend: 0x0, symName: '__ZN4core6result19Result$LT$T$C$E$GT$9unwrap_or17h8a19998e05202f8dE', symObjAddr: 0x3BB4, symBinAddr: 0x1EE78, symSize: 0x70 }
  - { offset: 0x5D040, size: 0x8, addend: 0x0, symName: __ZN4pyo310conversion15IntoPyObjectExt17into_bound_py_any17hd63a9782b24a725aE, symObjAddr: 0x0, symBinAddr: 0x22E88, symSize: 0xBC }
  - { offset: 0x5DE72, size: 0x8, addend: 0x0, symName: __ZN4pyo310conversion15IntoPyObjectExt17into_bound_py_any17hd63a9782b24a725aE, symObjAddr: 0x0, symBinAddr: 0x22E88, symSize: 0xBC }
  - { offset: 0x5DF0D, size: 0x8, addend: 0x0, symName: __ZN4pyo311type_object10PyTypeInfo10is_type_of17h12cb836119bd1d51E, symObjAddr: 0xBC, symBinAddr: 0x22F44, symSize: 0x50 }
  - { offset: 0x5DF48, size: 0x8, addend: 0x0, symName: '__ZN52_$LT$T$u20$as$u20$pyo3..type_object..PyTypeCheck$GT$10type_check17hab8c45badde52cdaE', symObjAddr: 0x140, symBinAddr: 0x22FC8, symSize: 0x24 }
  - { offset: 0x5DF8E, size: 0x8, addend: 0x0, symName: __ZN4pyo35impl_7pyclass11PyClassImpl11dict_offset17ha8403cc76b826403E, symObjAddr: 0x10C, symBinAddr: 0x22F94, symSize: 0x8 }
  - { offset: 0x5DFB5, size: 0x8, addend: 0x0, symName: __ZN4pyo35impl_7pyclass11PyClassImpl15weaklist_offset17hf9f60e312596addfE, symObjAddr: 0x114, symBinAddr: 0x22F9C, symSize: 0x8 }
  - { offset: 0x5E39A, size: 0x8, addend: 0x0, symName: '__ZN50_$LT$T$u20$as$u20$core..convert..Into$LT$U$GT$$GT$4into17h10e1fdc5a6fd746cE', symObjAddr: 0x11C, symBinAddr: 0x22FA4, symSize: 0x24 }
  - { offset: 0x5F415, size: 0x8, addend: 0x0, symName: '__ZN7_engine5query11list_scopes28_$u7b$$u7b$closure$u7d$$u7d$17h1122aa3dacc33ba3E', symObjAddr: 0x164, symBinAddr: 0x22FEC, symSize: 0x2D4 }
  - { offset: 0x5F510, size: 0x8, addend: 0x0, symName: '__ZN7_engine5query12get_snapshot28_$u7b$$u7b$closure$u7d$$u7d$17h1b4483fc64709becE', symObjAddr: 0x438, symBinAddr: 0x232C0, symSize: 0x854 }
  - { offset: 0x5F795, size: 0x8, addend: 0x0, symName: '__ZN7_engine5query12get_snapshot28_$u7b$$u7b$closure$u7d$$u7d$28_$u7b$$u7b$closure$u7d$$u7d$17hb9df6df184b9a39bE', symObjAddr: 0xC8C, symBinAddr: 0x23B14, symSize: 0x24 }
  - { offset: 0x5F81F, size: 0x8, addend: 0x0, symName: '__ZN7_engine5query12list_signals28_$u7b$$u7b$closure$u7d$$u7d$17h6d19c31f104b6b66E', symObjAddr: 0xCB0, symBinAddr: 0x23B38, symSize: 0x73C }
  - { offset: 0x5FA40, size: 0x8, addend: 0x0, symName: '__ZN7_engine5query12list_signals28_$u7b$$u7b$closure$u7d$$u7d$28_$u7b$$u7b$closure$u7d$$u7d$17h8bf593799210f5f7E', symObjAddr: 0x13EC, symBinAddr: 0x24274, symSize: 0x6C }
  - { offset: 0x5FADD, size: 0x8, addend: 0x0, symName: '__ZN7_engine5query13waveform_info28_$u7b$$u7b$closure$u7d$$u7d$17hdcdbdd89cee1acb5E', symObjAddr: 0x1458, symBinAddr: 0x242E0, symSize: 0x638 }
  - { offset: 0x5FCD6, size: 0x8, addend: 0x0, symName: '__ZN7_engine5query14WaveformHandle4open28_$u7b$$u7b$closure$u7d$$u7d$17he8ff00a325fa63ecE', symObjAddr: 0x1A90, symBinAddr: 0x24918, symSize: 0xB0 }
  - { offset: 0x5FD54, size: 0x8, addend: 0x0, symName: '__ZN7_engine5query14WaveformHandle9with_wave28_$u7b$$u7b$closure$u7d$$u7d$17h312229d2a9855282E', symObjAddr: 0x2FD0, symBinAddr: 0x25E58, symSize: 0xBC }
  - { offset: 0x5FDD6, size: 0x8, addend: 0x0, symName: '__ZN7_engine5query14WaveformHandle9with_wave28_$u7b$$u7b$closure$u7d$$u7d$17h3f4404ce63e731acE', symObjAddr: 0x308C, symBinAddr: 0x25F14, symSize: 0xBC }
  - { offset: 0x5FE58, size: 0x8, addend: 0x0, symName: '__ZN7_engine5query14WaveformHandle9with_wave28_$u7b$$u7b$closure$u7d$$u7d$17h50b0a99352d3bf8eE', symObjAddr: 0x3148, symBinAddr: 0x25FD0, symSize: 0xBC }
  - { offset: 0x5FEDA, size: 0x8, addend: 0x0, symName: '__ZN7_engine5query14WaveformHandle9with_wave28_$u7b$$u7b$closure$u7d$$u7d$17h52cfb874236fc14dE', symObjAddr: 0x3204, symBinAddr: 0x2608C, symSize: 0xBC }
  - { offset: 0x5FF5C, size: 0x8, addend: 0x0, symName: '__ZN7_engine5query14WaveformHandle9with_wave28_$u7b$$u7b$closure$u7d$$u7d$17h792954df572f1175E', symObjAddr: 0x32C0, symBinAddr: 0x26148, symSize: 0xBC }
  - { offset: 0x5FFDE, size: 0x8, addend: 0x0, symName: '__ZN7_engine5query14WaveformHandle9with_wave28_$u7b$$u7b$closure$u7d$$u7d$17h86c586164c2c0bd7E', symObjAddr: 0x337C, symBinAddr: 0x26204, symSize: 0xBC }
  - { offset: 0x60060, size: 0x8, addend: 0x0, symName: '__ZN7_engine5query14WaveformHandle9with_wave28_$u7b$$u7b$closure$u7d$$u7d$17h9a728322f9901594E', symObjAddr: 0x3438, symBinAddr: 0x262C0, symSize: 0xBC }
  - { offset: 0x600E2, size: 0x8, addend: 0x0, symName: '__ZN7_engine5query14WaveformHandle9with_wave28_$u7b$$u7b$closure$u7d$$u7d$17h9aba13c9162c2a4dE', symObjAddr: 0x34F4, symBinAddr: 0x2637C, symSize: 0xBC }
  - { offset: 0x60164, size: 0x8, addend: 0x0, symName: '__ZN7_engine5query14WaveformHandle9with_wave28_$u7b$$u7b$closure$u7d$$u7d$17ha9ef83f044bdde79E', symObjAddr: 0x35B0, symBinAddr: 0x26438, symSize: 0xBC }
  - { offset: 0x601E6, size: 0x8, addend: 0x0, symName: '__ZN7_engine5query14WaveformHandle9with_wave28_$u7b$$u7b$closure$u7d$$u7d$17hba3ebbbc8dd64173E', symObjAddr: 0x366C, symBinAddr: 0x264F4, symSize: 0xBC }
  - { offset: 0x60268, size: 0x8, addend: 0x0, symName: '__ZN7_engine5query14WaveformHandle9with_wave28_$u7b$$u7b$closure$u7d$$u7d$17hee6af292b926efe0E', symObjAddr: 0x3728, symBinAddr: 0x265B0, symSize: 0xBC }
  - { offset: 0x602EA, size: 0x8, addend: 0x0, symName: '__ZN7_engine5query14WaveformHandle9with_wave28_$u7b$$u7b$closure$u7d$$u7d$17hf389b74e09f8c50eE', symObjAddr: 0x37E4, symBinAddr: 0x2666C, symSize: 0xBC }
  - { offset: 0x6036C, size: 0x8, addend: 0x0, symName: '__ZN7_engine5query14WaveformHandle9with_wave28_$u7b$$u7b$closure$u7d$$u7d$17hf9b5ec470eef4ac2E', symObjAddr: 0x38A0, symBinAddr: 0x26728, symSize: 0xBC }
  - { offset: 0x606E0, size: 0x8, addend: 0x0, symName: '__ZN7_engine5query15get_transitions28_$u7b$$u7b$closure$u7d$$u7d$17hb898dacef403fbceE', symObjAddr: 0x3EEC, symBinAddr: 0x26D74, symSize: 0x96C }
  - { offset: 0x609E3, size: 0x8, addend: 0x0, symName: '__ZN7_engine5query15get_transitions28_$u7b$$u7b$closure$u7d$$u7d$28_$u7b$$u7b$closure$u7d$$u7d$17hb2c7139ec6854523E', symObjAddr: 0x4858, symBinAddr: 0x276E0, symSize: 0x2C }
  - { offset: 0x60A44, size: 0x8, addend: 0x0, symName: '__ZN7_engine5query9get_value28_$u7b$$u7b$closure$u7d$$u7d$17h00977217f192b40dE', symObjAddr: 0x49E4, symBinAddr: 0x2786C, symSize: 0x494 }
  - { offset: 0x60C39, size: 0x8, addend: 0x0, symName: '__ZN7_engine5query9get_value28_$u7b$$u7b$closure$u7d$$u7d$28_$u7b$$u7b$closure$u7d$$u7d$17h578e1438427ade99E', symObjAddr: 0x4E78, symBinAddr: 0x27D00, symSize: 0x2C }
  - { offset: 0x60CA3, size: 0x8, addend: 0x0, symName: '__ZN7_engine5query14find_next_edge28_$u7b$$u7b$closure$u7d$$u7d$17h323cd17b8d4f461dE', symObjAddr: 0x395C, symBinAddr: 0x267E4, symSize: 0x4C0 }
  - { offset: 0x60F22, size: 0x8, addend: 0x0, symName: '__ZN7_engine5query14find_next_edge28_$u7b$$u7b$closure$u7d$$u7d$28_$u7b$$u7b$closure$u7d$$u7d$17h587b58fc607ae234E', symObjAddr: 0x3E1C, symBinAddr: 0x26CA4, symSize: 0x2C }
  - { offset: 0x60F5A, size: 0x8, addend: 0x0, symName: '__ZN7_engine5query14resolve_signal28_$u7b$$u7b$closure$u7d$$u7d$17h47a89f1659712cceE', symObjAddr: 0x3E48, symBinAddr: 0x26CD0, symSize: 0x74 }
  - { offset: 0x60FC2, size: 0x8, addend: 0x0, symName: '__ZN7_engine5query14resolve_signal28_$u7b$$u7b$closure$u7d$$u7d$17he3f6be384d798038E', symObjAddr: 0x3EBC, symBinAddr: 0x26D44, symSize: 0x30 }
  - { offset: 0x61005, size: 0x8, addend: 0x0, symName: '__ZN7_engine5query19signal_value_to_hex28_$u7b$$u7b$closure$u7d$$u7d$17hbeae3ad0d4b06479E', symObjAddr: 0x4884, symBinAddr: 0x2770C, symSize: 0x54 }
  - { offset: 0x6106F, size: 0x8, addend: 0x0, symName: '__ZN7_engine5query19signal_value_to_u6428_$u7b$$u7b$closure$u7d$$u7d$17h5e620041322689ebE', symObjAddr: 0x48D8, symBinAddr: 0x27760, symSize: 0x90 }
  - { offset: 0x610B3, size: 0x8, addend: 0x0, symName: '__ZN7_engine5query23get_signal_value_at_idx28_$u7b$$u7b$closure$u7d$$u7d$17h1a612b639126f957E', symObjAddr: 0x4968, symBinAddr: 0x277F0, symSize: 0x28 }
  - { offset: 0x610F6, size: 0x8, addend: 0x0, symName: '__ZN7_engine5query24__pyfunction_list_scopes28_$u7b$$u7b$closure$u7d$$u7d$17hdad005ee2ec4febdE', symObjAddr: 0x4990, symBinAddr: 0x27818, symSize: 0x1C }
  - { offset: 0x6112B, size: 0x8, addend: 0x0, symName: '__ZN7_engine5query25__pyfunction_list_signals28_$u7b$$u7b$closure$u7d$$u7d$17hb34f558acb4bcd18E', symObjAddr: 0x49AC, symBinAddr: 0x27834, symSize: 0x20 }
  - { offset: 0x61160, size: 0x8, addend: 0x0, symName: '__ZN7_engine5query28__pyfunction_get_transitions28_$u7b$$u7b$closure$u7d$$u7d$17hf778b3b4e61fb7a6E', symObjAddr: 0x49CC, symBinAddr: 0x27854, symSize: 0x18 }
  - { offset: 0x6119C, size: 0x8, addend: 0x0, symName: '__ZN84_$LT$_engine..query..WaveformHandle$u20$as$u20$pyo3..impl_..pyclass..PyClassImpl$GT$3doc28_$u7b$$u7b$closure$u7d$$u7d$17h25e42dc787cad819E', symObjAddr: 0x4EA4, symBinAddr: 0x27D2C, symSize: 0x58 }
  - { offset: 0x620EA, size: 0x8, addend: 0x0, symName: __ZN7_engine5query14WaveformHandle9with_wave17h0ecd0b01deacdb75E, symObjAddr: 0x1B40, symBinAddr: 0x249C8, symSize: 0x184 }
  - { offset: 0x62196, size: 0x8, addend: 0x0, symName: __ZN7_engine5query14WaveformHandle9with_wave17h12cc6683fe992a04E, symObjAddr: 0x1CC4, symBinAddr: 0x24B4C, symSize: 0x194 }
  - { offset: 0x62243, size: 0x8, addend: 0x0, symName: __ZN7_engine5query14WaveformHandle9with_wave17h2bc727a7968faa3eE, symObjAddr: 0x1E58, symBinAddr: 0x24CE0, symSize: 0x194 }
  - { offset: 0x622FD, size: 0x8, addend: 0x0, symName: __ZN7_engine5query14WaveformHandle9with_wave17h367e4ff46be2954aE, symObjAddr: 0x1FEC, symBinAddr: 0x24E74, symSize: 0x19C }
  - { offset: 0x6239D, size: 0x8, addend: 0x0, symName: __ZN7_engine5query14WaveformHandle9with_wave17h415d90f156fd3665E, symObjAddr: 0x2188, symBinAddr: 0x25010, symSize: 0x190 }
  - { offset: 0x62430, size: 0x8, addend: 0x0, symName: __ZN7_engine5query14WaveformHandle9with_wave17h54b106129105937cE, symObjAddr: 0x2318, symBinAddr: 0x251A0, symSize: 0x194 }
  - { offset: 0x624D0, size: 0x8, addend: 0x0, symName: __ZN7_engine5query14WaveformHandle9with_wave17h6183b44f9f074577E, symObjAddr: 0x24AC, symBinAddr: 0x25334, symSize: 0x19C }
  - { offset: 0x62570, size: 0x8, addend: 0x0, symName: __ZN7_engine5query14WaveformHandle9with_wave17h70586dc607a108c8E, symObjAddr: 0x2648, symBinAddr: 0x254D0, symSize: 0x19C }
  - { offset: 0x62603, size: 0x8, addend: 0x0, symName: __ZN7_engine5query14WaveformHandle9with_wave17h813dd1d711b8c92aE, symObjAddr: 0x27E4, symBinAddr: 0x2566C, symSize: 0x194 }
  - { offset: 0x62696, size: 0x8, addend: 0x0, symName: __ZN7_engine5query14WaveformHandle9with_wave17h99c0e37b6e13e747E, symObjAddr: 0x2978, symBinAddr: 0x25800, symSize: 0x194 }
  - { offset: 0x62729, size: 0x8, addend: 0x0, symName: __ZN7_engine5query14WaveformHandle9with_wave17hbaf46ea4991f2313E, symObjAddr: 0x2B0C, symBinAddr: 0x25994, symSize: 0x194 }
  - { offset: 0x627BC, size: 0x8, addend: 0x0, symName: __ZN7_engine5query14WaveformHandle9with_wave17hcbcdfe353f10d543E, symObjAddr: 0x2CA0, symBinAddr: 0x25B28, symSize: 0x19C }
  - { offset: 0x6284F, size: 0x8, addend: 0x0, symName: __ZN7_engine5query14WaveformHandle9with_wave17hd42b10b4110badb6E, symObjAddr: 0x2E3C, symBinAddr: 0x25CC4, symSize: 0x194 }
  - { offset: 0x62D79, size: 0x8, addend: 0x0, symName: '__ZN4pyo312pyclass_init27PyClassInitializer$LT$T$GT$19create_class_object17h607afefa4a2b799cE', symObjAddr: 0x0, symBinAddr: 0x27D84, symSize: 0x9C }
  - { offset: 0x636A9, size: 0x8, addend: 0x0, symName: '__ZN96_$LT$pyo3..pyclass_init..PyClassInitializer$LT$T$GT$$u20$as$u20$core..convert..From$LT$T$GT$$GT$4from17h8797a8f2ec2ef7d0E', symObjAddr: 0x3A4, symBinAddr: 0x28128, symSize: 0x2C }
  - { offset: 0x64F32, size: 0x8, addend: 0x0, symName: '__ZN4pyo312pyclass_init27PyClassInitializer$LT$T$GT$19create_class_object17h607afefa4a2b799cE', symObjAddr: 0x0, symBinAddr: 0x27D84, symSize: 0x9C }
  - { offset: 0x64FFD, size: 0x8, addend: 0x0, symName: '__ZN4pyo312pyclass_init27PyClassInitializer$LT$T$GT$27create_class_object_of_type17h1481c2cd36a1a805E', symObjAddr: 0x9C, symBinAddr: 0x27E20, symSize: 0x270 }
  - { offset: 0x651B6, size: 0x8, addend: 0x0, symName: '__ZN4pyo312pyclass_init27PyClassInitializer$LT$T$GT$3new17h1445edffd5add636E', symObjAddr: 0x30C, symBinAddr: 0x28090, symSize: 0x98 }
  - { offset: 0x6520D, size: 0x8, addend: 0x0, symName: __ZN3std2io4Read10read_exact17h2c086ceb98c2ca27E, symObjAddr: 0x0, symBinAddr: 0x28154, symSize: 0x30 }
  - { offset: 0x6547B, size: 0x8, addend: 0x0, symName: __ZN3std2io4Read10read_exact17h2c086ceb98c2ca27E, symObjAddr: 0x0, symBinAddr: 0x28154, symSize: 0x30 }
  - { offset: 0x6601E, size: 0x8, addend: 0x0, symName: __ZN6wellen3ghw11read_header17h05aa3ab63570c7daE, symObjAddr: 0x30, symBinAddr: 0x28184, symSize: 0x1CC }
  - { offset: 0x660EB, size: 0x8, addend: 0x0, symName: __ZN6wellen3ghw20read_header_internal17h2162056999df3321E, symObjAddr: 0x1FC, symBinAddr: 0x28350, symSize: 0x64C }
  - { offset: 0x66343, size: 0x8, addend: 0x0, symName: __ZN6wellen3ghw6is_ghw17h09819be7b84a82b1E, symObjAddr: 0x898, symBinAddr: 0x289EC, symSize: 0xA0 }
  - { offset: 0x66395, size: 0x8, addend: 0x0, symName: __ZN6wellen3ghw9read_body17hd7ce2bb90025ee3bE, symObjAddr: 0x938, symBinAddr: 0x28A8C, symSize: 0x1D8 }
  - { offset: 0x66436, size: 0x8, addend: 0x0, symName: '__ZN71_$LT$wellen..ghw..ProgressTracker$LT$T$GT$$u20$as$u20$std..io..Read$GT$4read17hfa0a1fac9c45e1beE', symObjAddr: 0xB10, symBinAddr: 0x28C64, symSize: 0xA4 }
  - { offset: 0x67718, size: 0x8, addend: 0x0, symName: '__ZN6wellen3ghw24ProgressTracker$LT$T$GT$3new17hb81c3030342616c4E', symObjAddr: 0x848, symBinAddr: 0x2899C, symSize: 0x50 }
  - { offset: 0x67B57, size: 0x8, addend: 0x0, symName: __ZN4pyo35impl_10trampoline11module_init17hdde44643672ea004E, symObjAddr: 0x0, symBinAddr: 0x28D08, symSize: 0x28 }
  - { offset: 0x67BF8, size: 0x8, addend: 0x0, symName: __ZN4pyo35impl_10trampoline11module_init17hdde44643672ea004E, symObjAddr: 0x0, symBinAddr: 0x28D08, symSize: 0x28 }
  - { offset: 0x67C24, size: 0x8, addend: 0x0, symName: __ZN4pyo35impl_10trampoline22fastcall_with_keywords17h20d193db15027eb2E, symObjAddr: 0x28, symBinAddr: 0x28D30, symSize: 0x5C }
  - { offset: 0x67C88, size: 0x8, addend: 0x0, symName: __ZN4pyo35impl_10trampoline7dealloc17h44551d6e2f74e965E, symObjAddr: 0x84, symBinAddr: 0x28D8C, symSize: 0x34 }
  - { offset: 0x68593, size: 0x8, addend: 0x0, symName: __ZN8lz4_flex5block15decompress_safe10decompress17h5e247667a8d1c8e6E, symObjAddr: 0x0, symBinAddr: 0x28DC0, symSize: 0xFE4 }
  - { offset: 0x68F98, size: 0x8, addend: 0x0, symName: __ZN8lz4_flex5block15decompress_safe10decompress17h5e247667a8d1c8e6E, symObjAddr: 0x0, symBinAddr: 0x28DC0, symSize: 0xFE4 }
  - { offset: 0x6948D, size: 0x8, addend: 0x0, symName: __ZN8lz4_flex5block15decompress_safe12read_integer17h9e5ea4c1320cb08eE, symObjAddr: 0xFE4, symBinAddr: 0x29DA4, symSize: 0x154 }
  - { offset: 0x6951F, size: 0x8, addend: 0x0, symName: __ZN8lz4_flex5block15decompress_safe14does_token_fit17h60134c46be622924E, symObjAddr: 0x1138, symBinAddr: 0x29EF8, symSize: 0x58 }
  - { offset: 0x6954B, size: 0x8, addend: 0x0, symName: __ZN8lz4_flex5block15decompress_safe8read_u1617hefb77d8b62199e4fE, symObjAddr: 0x1190, symBinAddr: 0x29F50, symSize: 0x220 }
  - { offset: 0x69952, size: 0x8, addend: 0x0, symName: '__ZN68_$LT$core..num..error..ParseIntError$u20$as$u20$core..fmt..Debug$GT$3fmt17hcb5d58b0371573a7E', symObjAddr: 0x0, symBinAddr: 0x2A170, symSize: 0x64 }
  - { offset: 0x699AB, size: 0x8, addend: 0x0, symName: '__ZN68_$LT$core..num..error..ParseIntError$u20$as$u20$core..fmt..Debug$GT$3fmt17hcb5d58b0371573a7E', symObjAddr: 0x0, symBinAddr: 0x2A170, symSize: 0x64 }
  - { offset: 0x69B7C, size: 0x8, addend: 0x0, symName: '__ZN7_engine7_engine11__pyo3_init28_$u7b$$u7b$closure$u7d$$u7d$17haea775bfd468fd3eE', symObjAddr: 0x0, symBinAddr: 0x2A1D4, symSize: 0x30 }
  - { offset: 0x69C1D, size: 0x8, addend: 0x0, symName: '__ZN7_engine7_engine11__pyo3_init28_$u7b$$u7b$closure$u7d$$u7d$17haea775bfd468fd3eE', symObjAddr: 0x0, symBinAddr: 0x2A1D4, symSize: 0x30 }
  - { offset: 0x6A45C, size: 0x8, addend: 0x0, symName: '__ZN102_$LT$pyo3..internal..get_slot..Slot$LT$74_i32$GT$$u20$as$u20$pyo3..internal..get_slot..GetSlotImpl$GT$8get_slot17hdbe9042651c7c916E', symObjAddr: 0x0, symBinAddr: 0x2A204, symSize: 0x7C }
  - { offset: 0x6A50F, size: 0x8, addend: 0x0, symName: '__ZN102_$LT$pyo3..internal..get_slot..Slot$LT$74_i32$GT$$u20$as$u20$pyo3..internal..get_slot..GetSlotImpl$GT$8get_slot17hdbe9042651c7c916E', symObjAddr: 0x0, symBinAddr: 0x2A204, symSize: 0x7C }
  - { offset: 0x6A5E8, size: 0x8, addend: 0x0, symName: '__ZN4core3ptr9const_ptr33_$LT$impl$u20$$BP$const$u20$T$GT$20offset_from_unsigned18precondition_check17h1e8ba46ec3f0c886E', symObjAddr: 0x0, symBinAddr: 0x2A280, symSize: 0xAC }
  - { offset: 0x6A8D2, size: 0x8, addend: 0x0, symName: '__ZN4core3ptr9const_ptr33_$LT$impl$u20$$BP$const$u20$T$GT$20offset_from_unsigned18precondition_check17h1e8ba46ec3f0c886E', symObjAddr: 0x0, symBinAddr: 0x2A280, symSize: 0xAC }
  - { offset: 0x6A9D0, size: 0x8, addend: 0x0, symName: '__ZN4core3ptr9const_ptr33_$LT$impl$u20$$BP$const$u20$T$GT$6offset18precondition_check17hf1fb2cff88d4334eE', symObjAddr: 0xAC, symBinAddr: 0x2A32C, symSize: 0x110 }
  - { offset: 0x6AF55, size: 0x8, addend: 0x0, symName: __ZN10fst_reader6fastlz10copy_match17h8844f7f289d00dcaE, symObjAddr: 0x0, symBinAddr: 0x2A43C, symSize: 0xB4 }
  - { offset: 0x6AF6C, size: 0x8, addend: 0x0, symName: __ZN10fst_reader6fastlz10copy_match17h8844f7f289d00dcaE, symObjAddr: 0x0, symBinAddr: 0x2A43C, symSize: 0xB4 }
  - { offset: 0x6B1B5, size: 0x8, addend: 0x0, symName: '__ZN110_$LT$core..iter..adapters..enumerate..Enumerate$LT$I$GT$$u20$as$u20$core..iter..traits..iterator..Iterator$GT$4fold17ha5d8eaa5b37af77dE', symObjAddr: 0x0, symBinAddr: 0x2A4F0, symSize: 0x58 }
  - { offset: 0x6B694, size: 0x8, addend: 0x0, symName: '__ZN110_$LT$core..iter..adapters..enumerate..Enumerate$LT$I$GT$$u20$as$u20$core..iter..traits..iterator..Iterator$GT$4fold17ha5d8eaa5b37af77dE', symObjAddr: 0x0, symBinAddr: 0x2A4F0, symSize: 0x58 }
  - { offset: 0x6B6FE, size: 0x8, addend: 0x0, symName: '__ZN110_$LT$core..iter..adapters..enumerate..Enumerate$LT$I$GT$$u20$as$u20$core..iter..traits..iterator..Iterator$GT$4fold9enumerate28_$u7b$$u7b$closure$u7d$$u7d$17h99924a1d60c27243E', symObjAddr: 0x58, symBinAddr: 0x2A548, symSize: 0x88 }
  - { offset: 0x6B788, size: 0x8, addend: 0x0, symName: '__ZN110_$LT$core..iter..adapters..enumerate..Enumerate$LT$I$GT$$u20$as$u20$core..iter..traits..iterator..Iterator$GT$4next17h13e1be6880cfd3b2E', symObjAddr: 0xE0, symBinAddr: 0x2A5D0, symSize: 0x118 }
  - { offset: 0x6B86F, size: 0x8, addend: 0x0, symName: '__ZN110_$LT$core..iter..adapters..enumerate..Enumerate$LT$I$GT$$u20$as$u20$core..iter..traits..iterator..Iterator$GT$4next17h544338bb599eee6eE', symObjAddr: 0x1F8, symBinAddr: 0x2A6E8, symSize: 0xE0 }
  - { offset: 0x6B955, size: 0x8, addend: 0x0, symName: '__ZN110_$LT$core..iter..adapters..enumerate..Enumerate$LT$I$GT$$u20$as$u20$core..iter..traits..iterator..Iterator$GT$4next17h6e8484d712c85968E', symObjAddr: 0x2D8, symBinAddr: 0x2A7C8, symSize: 0xE0 }
  - { offset: 0x6BA3B, size: 0x8, addend: 0x0, symName: '__ZN110_$LT$core..iter..adapters..enumerate..Enumerate$LT$I$GT$$u20$as$u20$core..iter..traits..iterator..Iterator$GT$4next17h8e9484e77e8c7eadE', symObjAddr: 0x3B8, symBinAddr: 0x2A8A8, symSize: 0xE0 }
  - { offset: 0x6BB21, size: 0x8, addend: 0x0, symName: '__ZN110_$LT$core..iter..adapters..enumerate..Enumerate$LT$I$GT$$u20$as$u20$core..iter..traits..iterator..Iterator$GT$4next17h9c0bcf00d25a02b3E', symObjAddr: 0x498, symBinAddr: 0x2A988, symSize: 0xE0 }
  - { offset: 0x6BC07, size: 0x8, addend: 0x0, symName: '__ZN110_$LT$core..iter..adapters..enumerate..Enumerate$LT$I$GT$$u20$as$u20$core..iter..traits..iterator..Iterator$GT$4next17hc4de5a6f2cd5ca7dE', symObjAddr: 0x578, symBinAddr: 0x2AA68, symSize: 0xE0 }
  - { offset: 0x6BCED, size: 0x8, addend: 0x0, symName: '__ZN110_$LT$core..iter..adapters..enumerate..Enumerate$LT$I$GT$$u20$as$u20$core..iter..traits..iterator..Iterator$GT$4next17hd67fada74469bafeE', symObjAddr: 0x658, symBinAddr: 0x2AB48, symSize: 0xE0 }
  - { offset: 0x6BDD3, size: 0x8, addend: 0x0, symName: '__ZN110_$LT$core..iter..adapters..enumerate..Enumerate$LT$I$GT$$u20$as$u20$core..iter..traits..iterator..Iterator$GT$4next17he0777167b9b58966E', symObjAddr: 0x738, symBinAddr: 0x2AC28, symSize: 0xE0 }
  - { offset: 0x6BEB9, size: 0x8, addend: 0x0, symName: '__ZN110_$LT$core..iter..adapters..enumerate..Enumerate$LT$I$GT$$u20$as$u20$core..iter..traits..iterator..Iterator$GT$9size_hint17h94da711c74c6862fE', symObjAddr: 0x818, symBinAddr: 0x2AD08, symSize: 0x24 }
  - { offset: 0x6C1F3, size: 0x8, addend: 0x0, symName: __ZN4core4iter6traits8iterator8Iterator3map17h908606d79c3bf128E, symObjAddr: 0x83C, symBinAddr: 0x2AD2C, symSize: 0x30 }
  - { offset: 0x6C28C, size: 0x8, addend: 0x0, symName: '__ZN63_$LT$I$u20$as$u20$core..iter..traits..collect..IntoIterator$GT$9into_iter17h02ebab6a3cfe9e9fE', symObjAddr: 0x86C, symBinAddr: 0x2AD5C, symSize: 0x18 }
  - { offset: 0x6C2C3, size: 0x8, addend: 0x0, symName: '__ZN63_$LT$I$u20$as$u20$core..iter..traits..collect..IntoIterator$GT$9into_iter17h21b0562273841b62E', symObjAddr: 0x884, symBinAddr: 0x2AD74, symSize: 0x14 }
  - { offset: 0x6C2FA, size: 0x8, addend: 0x0, symName: '__ZN63_$LT$I$u20$as$u20$core..iter..traits..collect..IntoIterator$GT$9into_iter17h5cefaf71bdfd53b5E', symObjAddr: 0x898, symBinAddr: 0x2AD88, symSize: 0x18 }
  - { offset: 0x6C331, size: 0x8, addend: 0x0, symName: '__ZN63_$LT$I$u20$as$u20$core..iter..traits..collect..IntoIterator$GT$9into_iter17h64adb18c6fc3c78aE', symObjAddr: 0x8B0, symBinAddr: 0x2ADA0, symSize: 0x18 }
  - { offset: 0x6C368, size: 0x8, addend: 0x0, symName: '__ZN63_$LT$I$u20$as$u20$core..iter..traits..collect..IntoIterator$GT$9into_iter17h7ad39ade154193a3E', symObjAddr: 0x8C8, symBinAddr: 0x2ADB8, symSize: 0x14 }
  - { offset: 0x6C39F, size: 0x8, addend: 0x0, symName: '__ZN63_$LT$I$u20$as$u20$core..iter..traits..collect..IntoIterator$GT$9into_iter17hb0bed6b94b8743d4E', symObjAddr: 0x8DC, symBinAddr: 0x2ADCC, symSize: 0x18 }
  - { offset: 0x6C3D6, size: 0x8, addend: 0x0, symName: '__ZN63_$LT$I$u20$as$u20$core..iter..traits..collect..IntoIterator$GT$9into_iter17hc9f2c4fdfb2ca718E', symObjAddr: 0x8F4, symBinAddr: 0x2ADE4, symSize: 0x18 }
  - { offset: 0x6D99A, size: 0x8, addend: 0x0, symName: __ZN4core3cmp9PartialEq2ne17hdfdb46b6f42facd3E, symObjAddr: 0x0, symBinAddr: 0x2ADFC, symSize: 0x30 }
  - { offset: 0x6DACA, size: 0x8, addend: 0x0, symName: __ZN4core3cmp9PartialEq2ne17hdfdb46b6f42facd3E, symObjAddr: 0x0, symBinAddr: 0x2ADFC, symSize: 0x30 }
  - { offset: 0x6DB25, size: 0x8, addend: 0x0, symName: '__ZN4core5slice29_$LT$impl$u20$$u5b$T$u5d$$GT$4iter17ha74edf3f9bdae9c2E', symObjAddr: 0x30, symBinAddr: 0x2AE2C, symSize: 0x28 }
  - { offset: 0x6DB5C, size: 0x8, addend: 0x0, symName: '__ZN4core5slice29_$LT$impl$u20$$u5b$T$u5d$$GT$4iter17hc05821ae612b90e9E', symObjAddr: 0x58, symBinAddr: 0x2AE54, symSize: 0x28 }
  - { offset: 0x6E47F, size: 0x8, addend: 0x0, symName: '__ZN87_$LT$T$u20$as$u20$alloc..slice..$LT$impl$u20$$u5b$T$u5d$$GT$..to_vec_in..ConvertVec$GT$6to_vec17h96c16b192074cf5cE', symObjAddr: 0x80, symBinAddr: 0x2AE7C, symSize: 0x3B0 }
  - { offset: 0x6EEE1, size: 0x8, addend: 0x0, symName: __ZN4core4hash11BuildHasher8hash_one17h69a1544b2e608961E, symObjAddr: 0x0, symBinAddr: 0x2B22C, symSize: 0x8C }
  - { offset: 0x6EEFD, size: 0x8, addend: 0x0, symName: __ZN4core4hash11BuildHasher8hash_one17h69a1544b2e608961E, symObjAddr: 0x0, symBinAddr: 0x2B22C, symSize: 0x8C }
  - { offset: 0x6EF62, size: 0x8, addend: 0x0, symName: __ZN4core4hash11BuildHasher8hash_one17he35a733bbbd7f769E, symObjAddr: 0x8C, symBinAddr: 0x2B2B8, symSize: 0x8C }
  - { offset: 0x6F1A3, size: 0x8, addend: 0x0, symName: __ZN3std4sync6poison4once4Once15call_once_force17hcfb1df314dae85bdE, symObjAddr: 0x0, symBinAddr: 0x2B344, symSize: 0x108 }
  - { offset: 0x6F1DC, size: 0x8, addend: 0x0, symName: '__ZN3std4sync6poison4once4Once15call_once_force28_$u7b$$u7b$closure$u7d$$u7d$17haa64bf089b703068E', symObjAddr: 0x108, symBinAddr: 0x2B44C, symSize: 0x84 }
  - { offset: 0x6F848, size: 0x8, addend: 0x0, symName: __ZN3std4sync6poison4once4Once15call_once_force17hcfb1df314dae85bdE, symObjAddr: 0x0, symBinAddr: 0x2B344, symSize: 0x108 }
  - { offset: 0x6F994, size: 0x8, addend: 0x0, symName: '__ZN67_$LT$wellen..ghw..hierarchy..TypeId$u20$as$u20$core..fmt..Debug$GT$3fmt17h651fcead357d6b83E', symObjAddr: 0x0, symBinAddr: 0x2B4D0, symSize: 0x54 }
  - { offset: 0x6FD7C, size: 0x8, addend: 0x0, symName: '__ZN67_$LT$wellen..ghw..hierarchy..TypeId$u20$as$u20$core..fmt..Debug$GT$3fmt17h651fcead357d6b83E', symObjAddr: 0x0, symBinAddr: 0x2B4D0, symSize: 0x54 }
  - { offset: 0x6FDBF, size: 0x8, addend: 0x0, symName: '__ZN69_$LT$wellen..ghw..hierarchy..StringId$u20$as$u20$core..fmt..Debug$GT$3fmt17h6def7a17a2ed17c2E', symObjAddr: 0x54, symBinAddr: 0x2B524, symSize: 0x54 }
  - { offset: 0x6FE02, size: 0x8, addend: 0x0, symName: '__ZN69_$LT$wellen..ghw..hierarchy..TypeId$u20$as$u20$core..clone..Clone$GT$5clone17h83ccd1afbea14c41E', symObjAddr: 0xA8, symBinAddr: 0x2B578, symSize: 0x18 }
  - { offset: 0x6FE36, size: 0x8, addend: 0x0, symName: '__ZN69_$LT$wellen..ghw..hierarchy..VhdlType$u20$as$u20$core..fmt..Debug$GT$3fmt17h486641f7f64c3c17E', symObjAddr: 0xC0, symBinAddr: 0x2B590, symSize: 0x3F8 }
  - { offset: 0x70083, size: 0x8, addend: 0x0, symName: '__ZN71_$LT$wellen..ghw..hierarchy..IntRange$u20$as$u20$core..clone..Clone$GT$5clone17h7b9f80d0bca9a5a0E', symObjAddr: 0x4B8, symBinAddr: 0x2B988, symSize: 0x28 }
  - { offset: 0x700B7, size: 0x8, addend: 0x0, symName: '__ZN71_$LT$wellen..ghw..hierarchy..StringId$u20$as$u20$core..clone..Clone$GT$5clone17h82ac60a472e2de53E', symObjAddr: 0x4E0, symBinAddr: 0x2B9B0, symSize: 0x18 }
  - { offset: 0x700EB, size: 0x8, addend: 0x0, symName: '__ZN71_$LT$wellen..ghw..hierarchy..VhdlType$u20$as$u20$core..clone..Clone$GT$5clone17h2efe008b785f9e4bE', symObjAddr: 0x4F8, symBinAddr: 0x2B9C8, symSize: 0x42C }
  - { offset: 0x7032A, size: 0x8, addend: 0x0, symName: '__ZN73_$LT$wellen..ghw..hierarchy..FloatRange$u20$as$u20$core..clone..Clone$GT$5clone17h653d810a96bc5684E', symObjAddr: 0x924, symBinAddr: 0x2BDF4, symSize: 0x28 }
  - { offset: 0x7035E, size: 0x8, addend: 0x0, symName: '__ZN76_$LT$wellen..ghw..hierarchy..GhwTables$u20$as$u20$core..default..Default$GT$7default17h7e5dcbc27f434e7bE', symObjAddr: 0x94C, symBinAddr: 0x2BE1C, symSize: 0xB4 }
  - { offset: 0x70998, size: 0x8, addend: 0x0, symName: __ZN4core4sync6atomic11AtomicUsize3new17h7b436ab6651009cdE, symObjAddr: 0x0, symBinAddr: 0x2BED0, symSize: 0x18 }
  - { offset: 0x70AF8, size: 0x8, addend: 0x0, symName: __ZN4core4sync6atomic11AtomicUsize3new17h7b436ab6651009cdE, symObjAddr: 0x0, symBinAddr: 0x2BED0, symSize: 0x18 }
  - { offset: 0x70B65, size: 0x8, addend: 0x0, symName: __ZN4core4sync6atomic9AtomicU649fetch_add17hceae962f8260e91bE, symObjAddr: 0x18, symBinAddr: 0x2BEE8, symSize: 0xE0 }
  - { offset: 0x70C12, size: 0x8, addend: 0x0, symName: __ZN3std2io8buffered9bufreader6buffer6Buffer12consume_with17h92f6e3bb44a3e446E, symObjAddr: 0x0, symBinAddr: 0x2BFC8, symSize: 0x164 }
  - { offset: 0x71929, size: 0x8, addend: 0x0, symName: __ZN3std2io8buffered9bufreader6buffer6Buffer12consume_with17h92f6e3bb44a3e446E, symObjAddr: 0x0, symBinAddr: 0x2BFC8, symSize: 0x164 }
  - { offset: 0x71C5C, size: 0x8, addend: 0x0, symName: __ZN3std2io8buffered9bufreader6buffer6Buffer8fill_buf17hc12f433825877f97E, symObjAddr: 0x164, symBinAddr: 0x2C12C, symSize: 0x1C4 }
  - { offset: 0x71EC3, size: 0x8, addend: 0x0, symName: '__ZN105_$LT$std..collections..hash..map..Iter$LT$K$C$V$GT$$u20$as$u20$core..iter..traits..iterator..Iterator$GT$4fold17h61cc0eeb6ba983f5E', symObjAddr: 0x0, symBinAddr: 0x2C2F0, symSize: 0x58 }
  - { offset: 0x7379D, size: 0x8, addend: 0x0, symName: __ZN4core4iter6traits8iterator8Iterator10filter_map17h3e81dcd885459596E, symObjAddr: 0xCB0, symBinAddr: 0x2CFA0, symSize: 0x50 }
  - { offset: 0x73848, size: 0x8, addend: 0x0, symName: __ZN4core4iter6traits8iterator8Iterator10max_by_key17hfc3af024e596ef0bE, symObjAddr: 0xD00, symBinAddr: 0x2CFF0, symSize: 0xDC }
  - { offset: 0x73973, size: 0x8, addend: 0x0, symName: __ZN4core4iter6traits8iterator8Iterator3map17h8ea5005d1c64add6E, symObjAddr: 0xDDC, symBinAddr: 0x2D0CC, symSize: 0x30 }
  - { offset: 0x73BB2, size: 0x8, addend: 0x0, symName: '__ZN105_$LT$std..collections..hash..map..Iter$LT$K$C$V$GT$$u20$as$u20$core..iter..traits..iterator..Iterator$GT$4fold17h61cc0eeb6ba983f5E', symObjAddr: 0x0, symBinAddr: 0x2C2F0, symSize: 0x58 }
  - { offset: 0x73C1F, size: 0x8, addend: 0x0, symName: '__ZN105_$LT$std..collections..hash..map..Iter$LT$K$C$V$GT$$u20$as$u20$core..iter..traits..iterator..Iterator$GT$4next17h29559305c7d8afb5E', symObjAddr: 0x58, symBinAddr: 0x2C348, symSize: 0x24 }
  - { offset: 0x73C5F, size: 0x8, addend: 0x0, symName: '__ZN105_$LT$std..collections..hash..map..Iter$LT$K$C$V$GT$$u20$as$u20$core..iter..traits..iterator..Iterator$GT$9size_hint17h4d2db12634d8aaefE', symObjAddr: 0x7C, symBinAddr: 0x2C36C, symSize: 0x2C }
  - { offset: 0x73CD0, size: 0x8, addend: 0x0, symName: '__ZN109_$LT$std..collections..hash..map..IntoIter$LT$K$C$V$GT$$u20$as$u20$core..iter..traits..iterator..Iterator$GT$4fold17h5fd3689fa6c49643E', symObjAddr: 0xA8, symBinAddr: 0x2C398, symSize: 0x50 }
  - { offset: 0x73D71, size: 0x8, addend: 0x0, symName: '__ZN109_$LT$std..collections..hash..map..IntoIter$LT$K$C$V$GT$$u20$as$u20$core..iter..traits..iterator..Iterator$GT$4next17ha8d594551c147210E', symObjAddr: 0xF8, symBinAddr: 0x2C3E8, symSize: 0x2C }
  - { offset: 0x73E75, size: 0x8, addend: 0x0, symName: '__ZN110_$LT$std..collections..hash..map..HashMap$LT$K$C$V$C$S$GT$$u20$as$u20$core..ops..index..Index$LT$$RF$Q$GT$$GT$5index17h97d5b0d70f0c3804E', symObjAddr: 0x124, symBinAddr: 0x2C414, symSize: 0x9C }
  - { offset: 0x73F4A, size: 0x8, addend: 0x0, symName: '__ZN110_$LT$std..collections..hash..map..HashMap$LT$K$C$V$C$S$GT$$u20$as$u20$core..ops..index..Index$LT$$RF$Q$GT$$GT$5index17hd902057149d70e70E', symObjAddr: 0x1C0, symBinAddr: 0x2C4B0, symSize: 0x9C }
  - { offset: 0x74100, size: 0x8, addend: 0x0, symName: '__ZN115_$LT$std..collections..hash..map..HashMap$LT$K$C$V$C$S$GT$$u20$as$u20$core..iter..traits..collect..IntoIterator$GT$9into_iter17heaf15f6ee71cbd82E', symObjAddr: 0x25C, symBinAddr: 0x2C54C, symSize: 0x58 }
  - { offset: 0x74262, size: 0x8, addend: 0x0, symName: '__ZN119_$LT$$RF$std..collections..hash..map..HashMap$LT$K$C$V$C$S$GT$$u20$as$u20$core..iter..traits..collect..IntoIterator$GT$9into_iter17hfd56eaed9280dcddE', symObjAddr: 0x2B4, symBinAddr: 0x2C5A4, symSize: 0x44 }
  - { offset: 0x74369, size: 0x8, addend: 0x0, symName: '__ZN136_$LT$std..collections..hash..map..HashMap$LT$K$C$V$C$S$GT$$u20$as$u20$core..iter..traits..collect..FromIterator$LT$$LP$K$C$V$RP$$GT$$GT$9from_iter17h90381b035030efaeE', symObjAddr: 0x2F8, symBinAddr: 0x2C5E8, symSize: 0xFC }
  - { offset: 0x74442, size: 0x8, addend: 0x0, symName: '__ZN136_$LT$std..collections..hash..map..HashMap$LT$K$C$V$C$S$GT$$u20$as$u20$core..iter..traits..collect..FromIterator$LT$$LP$K$C$V$RP$$GT$$GT$9from_iter17ha3d85942e832f380E', symObjAddr: 0x3F4, symBinAddr: 0x2C6E4, symSize: 0x134 }
  - { offset: 0x74975, size: 0x8, addend: 0x0, symName: '__ZN96_$LT$std..collections..hash..map..HashMap$LT$K$C$V$C$S$GT$$u20$as$u20$core..default..Default$GT$7default17h5ec4c2454e6d79efE', symObjAddr: 0xE0C, symBinAddr: 0x2D0FC, symSize: 0x5C }
  - { offset: 0x749F8, size: 0x8, addend: 0x0, symName: '__ZN96_$LT$std..collections..hash..map..HashMap$LT$K$C$V$C$S$GT$$u20$as$u20$core..default..Default$GT$7default17ha6cb372b2c01b476E', symObjAddr: 0xE68, symBinAddr: 0x2D158, symSize: 0x5C }
  - { offset: 0x74A7B, size: 0x8, addend: 0x0, symName: '__ZN96_$LT$std..collections..hash..map..HashMap$LT$K$C$V$C$S$GT$$u20$as$u20$core..default..Default$GT$7default17hdd515b30172e2424E', symObjAddr: 0xEC4, symBinAddr: 0x2D1B4, symSize: 0x5C }
  - { offset: 0x74AFE, size: 0x8, addend: 0x0, symName: '__ZN96_$LT$std..collections..hash..map..HashMap$LT$K$C$V$C$S$GT$$u20$as$u20$core..default..Default$GT$7default17hf4b46dc8b1b6503aE', symObjAddr: 0xF20, symBinAddr: 0x2D210, symSize: 0x5C }
  - { offset: 0x76DFA, size: 0x8, addend: 0x0, symName: '__ZN3std11collections4hash3map18Entry$LT$K$C$V$GT$9or_insert17h3897361888f11e22E', symObjAddr: 0x528, symBinAddr: 0x2C818, symSize: 0x170 }
  - { offset: 0x77142, size: 0x8, addend: 0x0, symName: '__ZN3std11collections4hash3map18Entry$LT$K$C$V$GT$9or_insert17ha248817eb4100780E', symObjAddr: 0x698, symBinAddr: 0x2C988, symSize: 0x194 }
  - { offset: 0x77398, size: 0x8, addend: 0x0, symName: '__ZN3std11collections4hash3map20HashMap$LT$K$C$V$GT$3new17h1e38d78ebb269d24E', symObjAddr: 0x82C, symBinAddr: 0x2CB1C, symSize: 0x7C }
  - { offset: 0x774AD, size: 0x8, addend: 0x0, symName: '__ZN3std11collections4hash3map20HashMap$LT$K$C$V$GT$3new17h1e796c7675f147a2E', symObjAddr: 0x8A8, symBinAddr: 0x2CB98, symSize: 0x7C }
  - { offset: 0x775C2, size: 0x8, addend: 0x0, symName: '__ZN3std11collections4hash3map20HashMap$LT$K$C$V$GT$3new17h1f8f66e94ce97600E', symObjAddr: 0x924, symBinAddr: 0x2CC14, symSize: 0x7C }
  - { offset: 0x776F3, size: 0x8, addend: 0x0, symName: '__ZN3std11collections4hash3map24HashMap$LT$K$C$V$C$S$GT$3get17h2f2f7330a09b958fE', symObjAddr: 0x9A0, symBinAddr: 0x2CC90, symSize: 0x74 }
  - { offset: 0x7783A, size: 0x8, addend: 0x0, symName: '__ZN3std11collections4hash3map24HashMap$LT$K$C$V$C$S$GT$3get17ha15ec8cfa458032aE', symObjAddr: 0xA14, symBinAddr: 0x2CD04, symSize: 0x74 }
  - { offset: 0x77921, size: 0x8, addend: 0x0, symName: '__ZN3std11collections4hash3map24HashMap$LT$K$C$V$C$S$GT$3len17h0346c455d538698cE', symObjAddr: 0xA88, symBinAddr: 0x2CD78, symSize: 0x18 }
  - { offset: 0x77997, size: 0x8, addend: 0x0, symName: '__ZN3std11collections4hash3map24HashMap$LT$K$C$V$C$S$GT$4iter17hf6cf0d979b16b7baE', symObjAddr: 0xAA0, symBinAddr: 0x2CD90, symSize: 0x44 }
  - { offset: 0x779E2, size: 0x8, addend: 0x0, symName: '__ZN3std11collections4hash3map24HashMap$LT$K$C$V$C$S$GT$5entry17h252b9fbd6398eb5cE', symObjAddr: 0xAE4, symBinAddr: 0x2CDD4, symSize: 0xB0 }
  - { offset: 0x77A90, size: 0x8, addend: 0x0, symName: '__ZN3std11collections4hash3map24HashMap$LT$K$C$V$C$S$GT$5entry17hee448183ca840469E', symObjAddr: 0xB94, symBinAddr: 0x2CE84, symSize: 0xA0 }
  - { offset: 0x77B3C, size: 0x8, addend: 0x0, symName: '__ZN3std11collections4hash3map24HashMap$LT$K$C$V$C$S$GT$6insert17h6ccf3902a10acf9aE', symObjAddr: 0xC34, symBinAddr: 0x2CF24, symSize: 0x2C }
  - { offset: 0x77BA5, size: 0x8, addend: 0x0, symName: '__ZN3std11collections4hash3map24HashMap$LT$K$C$V$C$S$GT$6insert17hc91f7ea89c72fe9bE', symObjAddr: 0xC60, symBinAddr: 0x2CF50, symSize: 0x28 }
  - { offset: 0x77C0F, size: 0x8, addend: 0x0, symName: '__ZN3std11collections4hash3map24HashMap$LT$K$C$V$C$S$GT$6insert17he61c89f102d94623E', symObjAddr: 0xC88, symBinAddr: 0x2CF78, symSize: 0x28 }
  - { offset: 0x77EB3, size: 0x8, addend: 0x0, symName: __ZN7memmap211MmapOptions3map17h2e49bb50afc28e05E, symObjAddr: 0x0, symBinAddr: 0x2D26C, symSize: 0x10C }
  - { offset: 0x7858C, size: 0x8, addend: 0x0, symName: '__ZN7memmap211MmapOptions3map28_$u7b$$u7b$closure$u7d$$u7d$17h28aede0483b0ad29E', symObjAddr: 0x10C, symBinAddr: 0x2D378, symSize: 0x18 }
  - { offset: 0x786D4, size: 0x8, addend: 0x0, symName: __ZN7memmap211MmapOptions3map17h2e49bb50afc28e05E, symObjAddr: 0x0, symBinAddr: 0x2D26C, symSize: 0x10C }
  - { offset: 0x78759, size: 0x8, addend: 0x0, symName: __ZN7memmap211MmapOptions7get_len17hb0c48e208c3a57b3E, symObjAddr: 0x124, symBinAddr: 0x2D390, symSize: 0x130 }
  - { offset: 0x7881A, size: 0x8, addend: 0x0, symName: __ZN7memmap24Mmap3map17h6219b8dcef0d1d0aE, symObjAddr: 0x254, symBinAddr: 0x2D4C0, symSize: 0x7C }
  - { offset: 0x78864, size: 0x8, addend: 0x0, symName: __ZN4pyo35impl_10trampoline10trampoline17h1aace23316707526E, symObjAddr: 0x0, symBinAddr: 0x2D53C, symSize: 0x14C }
  - { offset: 0x78905, size: 0x8, addend: 0x0, symName: __ZN4pyo35impl_10trampoline10trampoline17h1aace23316707526E, symObjAddr: 0x0, symBinAddr: 0x2D53C, symSize: 0x14C }
  - { offset: 0x789A7, size: 0x8, addend: 0x0, symName: __ZN4pyo35impl_10trampoline10trampoline17h508f92808381debaE, symObjAddr: 0x14C, symBinAddr: 0x2D688, symSize: 0x160 }
  - { offset: 0x78A50, size: 0x8, addend: 0x0, symName: '__ZN4pyo35impl_10trampoline10trampoline28_$u7b$$u7b$closure$u7d$$u7d$17h4a5e84d9d2a0e717E', symObjAddr: 0x2AC, symBinAddr: 0x2D7E8, symSize: 0x40 }
  - { offset: 0x78A9F, size: 0x8, addend: 0x0, symName: '__ZN4pyo35impl_10trampoline10trampoline28_$u7b$$u7b$closure$u7d$$u7d$17he5ddfe7942b5c5d2E', symObjAddr: 0x2EC, symBinAddr: 0x2D828, symSize: 0x24 }
  - { offset: 0x78AF3, size: 0x8, addend: 0x0, symName: '__ZN4pyo35impl_10trampoline11module_init28_$u7b$$u7b$closure$u7d$$u7d$17hcd753e5bfaf74e1dE', symObjAddr: 0x310, symBinAddr: 0x2D84C, symSize: 0x40 }
  - { offset: 0x78B3F, size: 0x8, addend: 0x0, symName: '__ZN4pyo35impl_10trampoline11module_init28_$u7b$$u7b$closure$u7d$$u7d$28_$u7b$$u7b$closure$u7d$$u7d$17h16e045350e09890eE', symObjAddr: 0x350, symBinAddr: 0x2D88C, symSize: 0x24 }
  - { offset: 0x78B91, size: 0x8, addend: 0x0, symName: __ZN4pyo35impl_10trampoline21trampoline_unraisable17h29c0b79460a327ddE, symObjAddr: 0x374, symBinAddr: 0x2D8B0, symSize: 0x218 }
  - { offset: 0x78C34, size: 0x8, addend: 0x0, symName: '__ZN4pyo35impl_10trampoline21trampoline_unraisable28_$u7b$$u7b$closure$u7d$$u7d$17h720205ff1fed92b7E', symObjAddr: 0x58C, symBinAddr: 0x2DAC8, symSize: 0x5C }
  - { offset: 0x78C73, size: 0x8, addend: 0x0, symName: '__ZN4pyo35impl_10trampoline21trampoline_unraisable28_$u7b$$u7b$closure$u7d$$u7d$17hfda03b2fe36d3b4eE', symObjAddr: 0x5E8, symBinAddr: 0x2DB24, symSize: 0x2C }
  - { offset: 0x78CC5, size: 0x8, addend: 0x0, symName: '__ZN4pyo35impl_10trampoline22fastcall_with_keywords28_$u7b$$u7b$closure$u7d$$u7d$17h97a8b3663091324aE', symObjAddr: 0x614, symBinAddr: 0x2DB50, symSize: 0x48 }
  - { offset: 0x78D91, size: 0x8, addend: 0x0, symName: '__ZN4pyo35impl_10trampoline7dealloc28_$u7b$$u7b$closure$u7d$$u7d$17h10d989d5eee4cf80E', symObjAddr: 0x65C, symBinAddr: 0x2DB98, symSize: 0x40 }
  - { offset: 0x7981C, size: 0x8, addend: 0x0, symName: __ZN4core3cmp6max_by17h1e283fed21ed7cd1E, symObjAddr: 0x0, symBinAddr: 0x2DBD8, symSize: 0xDC }
  - { offset: 0x79867, size: 0x8, addend: 0x0, symName: __ZN4core3cmp6max_by17h1e283fed21ed7cd1E, symObjAddr: 0x0, symBinAddr: 0x2DBD8, symSize: 0xDC }
  - { offset: 0x799A7, size: 0x8, addend: 0x0, symName: '__ZN51_$LT$T$u20$as$u20$core..borrow..Borrow$LT$T$GT$$GT$6borrow17h2394bf74cd71ee4cE', symObjAddr: 0x0, symBinAddr: 0x2DCB4, symSize: 0x14 }
  - { offset: 0x799C3, size: 0x8, addend: 0x0, symName: '__ZN51_$LT$T$u20$as$u20$core..borrow..Borrow$LT$T$GT$$GT$6borrow17h2394bf74cd71ee4cE', symObjAddr: 0x0, symBinAddr: 0x2DCB4, symSize: 0x14 }
  - { offset: 0x799F8, size: 0x8, addend: 0x0, symName: '__ZN51_$LT$T$u20$as$u20$core..borrow..Borrow$LT$T$GT$$GT$6borrow17h286ca0d17ddbdaf9E', symObjAddr: 0x14, symBinAddr: 0x2DCC8, symSize: 0x14 }
  - { offset: 0x79A76, size: 0x8, addend: 0x0, symName: '__ZN5alloc7raw_vec19RawVec$LT$T$C$A$GT$8grow_one17h1440d41976f032d5E', symObjAddr: 0x0, symBinAddr: 0x2DCDC, symSize: 0x90 }
  - { offset: 0x7B467, size: 0x8, addend: 0x0, symName: '__ZN5alloc7raw_vec19RawVec$LT$T$C$A$GT$8grow_one17h1440d41976f032d5E', symObjAddr: 0x0, symBinAddr: 0x2DCDC, symSize: 0x90 }
  - { offset: 0x7B552, size: 0x8, addend: 0x0, symName: '__ZN5alloc7raw_vec19RawVec$LT$T$C$A$GT$8grow_one17h1ad4aa9fcee9e61fE', symObjAddr: 0x90, symBinAddr: 0x2DD6C, symSize: 0x90 }
  - { offset: 0x7B7AA, size: 0x8, addend: 0x0, symName: '__ZN5alloc7raw_vec19RawVec$LT$T$C$A$GT$8grow_one17h2078365157468960E', symObjAddr: 0x120, symBinAddr: 0x2DDFC, symSize: 0x8C }
  - { offset: 0x7B88F, size: 0x8, addend: 0x0, symName: '__ZN5alloc7raw_vec19RawVec$LT$T$C$A$GT$8grow_one17h21d941872797a55bE', symObjAddr: 0x1AC, symBinAddr: 0x2DE88, symSize: 0x90 }
  - { offset: 0x7B948, size: 0x8, addend: 0x0, symName: '__ZN5alloc7raw_vec19RawVec$LT$T$C$A$GT$8grow_one17h2d35a7b323a02fdeE', symObjAddr: 0x23C, symBinAddr: 0x2DF18, symSize: 0x90 }
  - { offset: 0x7B9FA, size: 0x8, addend: 0x0, symName: '__ZN5alloc7raw_vec19RawVec$LT$T$C$A$GT$8grow_one17h5842af2cb9b7c717E', symObjAddr: 0x2CC, symBinAddr: 0x2DFA8, symSize: 0x90 }
  - { offset: 0x7BAB9, size: 0x8, addend: 0x0, symName: '__ZN5alloc7raw_vec19RawVec$LT$T$C$A$GT$8grow_one17h6d621e73e93dffeaE', symObjAddr: 0x35C, symBinAddr: 0x2E038, symSize: 0x90 }
  - { offset: 0x7BB6B, size: 0x8, addend: 0x0, symName: '__ZN5alloc7raw_vec19RawVec$LT$T$C$A$GT$8grow_one17h72f904fa3411ed92E', symObjAddr: 0x3EC, symBinAddr: 0x2E0C8, symSize: 0x8C }
  - { offset: 0x7BC1D, size: 0x8, addend: 0x0, symName: '__ZN5alloc7raw_vec19RawVec$LT$T$C$A$GT$8grow_one17h7e789550fca83cd8E', symObjAddr: 0x478, symBinAddr: 0x2E154, symSize: 0x90 }
  - { offset: 0x7BCCF, size: 0x8, addend: 0x0, symName: '__ZN5alloc7raw_vec19RawVec$LT$T$C$A$GT$8grow_one17h7eb7f72e923a0a5eE', symObjAddr: 0x508, symBinAddr: 0x2E1E4, symSize: 0x8C }
  - { offset: 0x7BD9F, size: 0x8, addend: 0x0, symName: '__ZN5alloc7raw_vec19RawVec$LT$T$C$A$GT$8grow_one17h8d6b807c49dd499fE', symObjAddr: 0x594, symBinAddr: 0x2E270, symSize: 0x90 }
  - { offset: 0x7BE6F, size: 0x8, addend: 0x0, symName: '__ZN5alloc7raw_vec19RawVec$LT$T$C$A$GT$8grow_one17h8f153a22d8b2a49eE', symObjAddr: 0x624, symBinAddr: 0x2E300, symSize: 0x90 }
  - { offset: 0x7BF21, size: 0x8, addend: 0x0, symName: '__ZN5alloc7raw_vec19RawVec$LT$T$C$A$GT$8grow_one17h987679f4f7b42f58E', symObjAddr: 0x6B4, symBinAddr: 0x2E390, symSize: 0x8C }
  - { offset: 0x7BFD3, size: 0x8, addend: 0x0, symName: '__ZN5alloc7raw_vec19RawVec$LT$T$C$A$GT$8grow_one17ha6c4592549b243c9E', symObjAddr: 0x740, symBinAddr: 0x2E41C, symSize: 0x90 }
  - { offset: 0x7C085, size: 0x8, addend: 0x0, symName: '__ZN5alloc7raw_vec19RawVec$LT$T$C$A$GT$8grow_one17hd6e02998f5bb6e4cE', symObjAddr: 0x7D0, symBinAddr: 0x2E4AC, symSize: 0x8C }
  - { offset: 0x7C137, size: 0x8, addend: 0x0, symName: '__ZN5alloc7raw_vec19RawVec$LT$T$C$A$GT$8grow_one17he2af130b9b6d78f6E', symObjAddr: 0x85C, symBinAddr: 0x2E538, symSize: 0x8C }
  - { offset: 0x7C1E9, size: 0x8, addend: 0x0, symName: '__ZN5alloc7raw_vec19RawVec$LT$T$C$A$GT$8grow_one17he3e407a5f01a75b4E', symObjAddr: 0x8E8, symBinAddr: 0x2E5C4, symSize: 0x90 }
  - { offset: 0x7C29B, size: 0x8, addend: 0x0, symName: '__ZN5alloc7raw_vec19RawVec$LT$T$C$A$GT$8grow_one17he8e5ed36a597a415E', symObjAddr: 0x978, symBinAddr: 0x2E654, symSize: 0x8C }
  - { offset: 0x7C3AE, size: 0x8, addend: 0x0, symName: '__ZN5alloc7raw_vec20RawVecInner$LT$A$GT$11try_reserve17h1add79f00b4e957bE', symObjAddr: 0xA04, symBinAddr: 0x2E6E0, symSize: 0x1BC }
  - { offset: 0x7C634, size: 0x8, addend: 0x0, symName: '__ZN41_$LT$bool$u20$as$u20$core..fmt..Debug$GT$3fmt17h86193c88f292b3faE', symObjAddr: 0x0, symBinAddr: 0x2E89C, symSize: 0x2C }
  - { offset: 0x7C650, size: 0x8, addend: 0x0, symName: '__ZN41_$LT$bool$u20$as$u20$core..fmt..Debug$GT$3fmt17h86193c88f292b3faE', symObjAddr: 0x0, symBinAddr: 0x2E89C, symSize: 0x2C }
  - { offset: 0x7CAF3, size: 0x8, addend: 0x0, symName: '__ZN4core3fmt2rt38_$LT$impl$u20$core..fmt..Arguments$GT$16new_v1_formatted17h428a04085e0392f1E', symObjAddr: 0x2C, symBinAddr: 0x2E8C8, symSize: 0x48 }
  - { offset: 0x7CB63, size: 0x8, addend: 0x0, symName: '__ZN97_$LT$alloc..ffi..c_str..CString$u20$as$u20$core..borrow..Borrow$LT$core..ffi..c_str..CStr$GT$$GT$6borrow17hfb1e8f04f1866156E', symObjAddr: 0x0, symBinAddr: 0x2E910, symSize: 0x20 }
  - { offset: 0x7CBE9, size: 0x8, addend: 0x0, symName: '__ZN97_$LT$alloc..ffi..c_str..CString$u20$as$u20$core..borrow..Borrow$LT$core..ffi..c_str..CStr$GT$$GT$6borrow17hfb1e8f04f1866156E', symObjAddr: 0x0, symBinAddr: 0x2E910, symSize: 0x20 }
  - { offset: 0x7CD6E, size: 0x8, addend: 0x0, symName: __ZN4pyo35impl_16extract_argument16extract_argument17h0254015a9a470151E, symObjAddr: 0x0, symBinAddr: 0x2E930, symSize: 0x138 }
  - { offset: 0x7E779, size: 0x8, addend: 0x0, symName: __ZN4pyo35impl_16extract_argument16extract_argument17h0254015a9a470151E, symObjAddr: 0x0, symBinAddr: 0x2E930, symSize: 0x138 }
  - { offset: 0x7E7FE, size: 0x8, addend: 0x0, symName: __ZN4pyo35impl_16extract_argument16extract_argument17h7e6fe7f3dd1b02d5E, symObjAddr: 0x138, symBinAddr: 0x2EA68, symSize: 0x144 }
  - { offset: 0x7E884, size: 0x8, addend: 0x0, symName: __ZN4pyo35impl_16extract_argument16extract_argument17h88396534b2e9784aE, symObjAddr: 0x27C, symBinAddr: 0x2EBAC, symSize: 0x138 }
  - { offset: 0x7E909, size: 0x8, addend: 0x0, symName: __ZN4pyo35impl_16extract_argument16extract_argument17hd3a4e85239dfc2dbE, symObjAddr: 0x3B4, symBinAddr: 0x2ECE4, symSize: 0x150 }
  - { offset: 0x7E98E, size: 0x8, addend: 0x0, symName: __ZN4pyo35impl_16extract_argument16extract_argument17hf1e3c63ae23e4365E, symObjAddr: 0x504, symBinAddr: 0x2EE34, symSize: 0x160 }
  - { offset: 0x7EA13, size: 0x8, addend: 0x0, symName: __ZN4pyo35impl_16extract_argument16extract_argument17hff700f791a030334E, symObjAddr: 0x664, symBinAddr: 0x2EF94, symSize: 0x138 }
  - { offset: 0x7EBA1, size: 0x8, addend: 0x0, symName: '__ZN4pyo35impl_16extract_argument19FunctionDescription26extract_arguments_fastcall28_$u7b$$u7b$closure$u7d$$u7d$17h76a1d18b45b53bfeE', symObjAddr: 0x1470, symBinAddr: 0x2FDA0, symSize: 0x24 }
  - { offset: 0x7EBF9, size: 0x8, addend: 0x0, symName: '__ZN4pyo35impl_16extract_argument19FunctionDescription36find_keyword_parameter_in_positional28_$u7b$$u7b$closure$u7d$$u7d$17h0ea905034388adf1E', symObjAddr: 0x1494, symBinAddr: 0x2FDC4, symSize: 0x48 }
  - { offset: 0x7EC59, size: 0x8, addend: 0x0, symName: '__ZN4pyo35impl_16extract_argument19FunctionDescription38find_keyword_parameter_in_keyword_only28_$u7b$$u7b$closure$u7d$$u7d$17h8610ce97a9dfdec1E', symObjAddr: 0x14DC, symBinAddr: 0x2FE0C, symSize: 0x38 }
  - { offset: 0x7EC9B, size: 0x8, addend: 0x0, symName: __ZN4pyo35impl_16extract_argument19extract_pyclass_ref17h7ce86e74ecf5c027E, symObjAddr: 0x1514, symBinAddr: 0x2FE44, symSize: 0xB0 }
  - { offset: 0x7ECFC, size: 0x8, addend: 0x0, symName: __ZN4pyo35impl_16extract_argument25extract_optional_argument17hc59254cda21c3cb2E, symObjAddr: 0x15C4, symBinAddr: 0x2FEF4, symSize: 0xCC }
  - { offset: 0x7ED71, size: 0x8, addend: 0x0, symName: __ZN4pyo35impl_16extract_argument29extract_argument_with_default17h54504df0d4b2b08fE, symObjAddr: 0x1690, symBinAddr: 0x2FFC0, symSize: 0x90 }
  - { offset: 0x7EDED, size: 0x8, addend: 0x0, symName: __ZN4pyo35impl_16extract_argument29extract_argument_with_default17ha0b67d1254bf995fE, symObjAddr: 0x1720, symBinAddr: 0x30050, symSize: 0x8C }
  - { offset: 0x7EE6E, size: 0x8, addend: 0x0, symName: '__ZN71_$LT$T$u20$as$u20$pyo3..impl_..extract_argument..PyFunctionArgument$GT$7extract17h3d64222054f89677E', symObjAddr: 0x17AC, symBinAddr: 0x300DC, symSize: 0x28 }
  - { offset: 0x7EEAD, size: 0x8, addend: 0x0, symName: '__ZN71_$LT$T$u20$as$u20$pyo3..impl_..extract_argument..PyFunctionArgument$GT$7extract17h8c268500229e805fE', symObjAddr: 0x17D4, symBinAddr: 0x30104, symSize: 0x28 }
  - { offset: 0x7EEEC, size: 0x8, addend: 0x0, symName: '__ZN71_$LT$T$u20$as$u20$pyo3..impl_..extract_argument..PyFunctionArgument$GT$7extract17hb3215f039740c385E', symObjAddr: 0x17FC, symBinAddr: 0x3012C, symSize: 0x28 }
  - { offset: 0x7F69D, size: 0x8, addend: 0x0, symName: __ZN4pyo35impl_16extract_argument19FunctionDescription13handle_kwargs17h150226360497c859E, symObjAddr: 0x79C, symBinAddr: 0x2F0CC, symSize: 0x6FC }
  - { offset: 0x7F8D0, size: 0x8, addend: 0x0, symName: __ZN4pyo35impl_16extract_argument19FunctionDescription26extract_arguments_fastcall17h9e5973bde7dde75dE, symObjAddr: 0xE98, symBinAddr: 0x2F7C8, symSize: 0x5D8 }
  - { offset: 0x80727, size: 0x8, addend: 0x0, symName: '__ZN5alloc11collections5btree8navigate263_$LT$impl$u20$alloc..collections..btree..node..Handle$LT$alloc..collections..btree..node..NodeRef$LT$alloc..collections..btree..node..marker..Dying$C$K$C$V$C$alloc..collections..btree..node..marker..Leaf$GT$$C$alloc..collections..btree..node..marker..Edge$GT$$GT$27deallocating_next_unchecked28_$u7b$$u7b$closure$u7d$$u7d$17haa4965bff1a84f27E', symObjAddr: 0x0, symBinAddr: 0x30154, symSize: 0x58 }
  - { offset: 0x81864, size: 0x8, addend: 0x0, symName: '__ZN5alloc11collections5btree8navigate263_$LT$impl$u20$alloc..collections..btree..node..Handle$LT$alloc..collections..btree..node..NodeRef$LT$alloc..collections..btree..node..marker..Dying$C$K$C$V$C$alloc..collections..btree..node..marker..Leaf$GT$$C$alloc..collections..btree..node..marker..Edge$GT$$GT$27deallocating_next_unchecked28_$u7b$$u7b$closure$u7d$$u7d$17haa4965bff1a84f27E', symObjAddr: 0x0, symBinAddr: 0x30154, symSize: 0x58 }
  - { offset: 0x818E0, size: 0x8, addend: 0x0, symName: '__ZN5alloc11collections5btree8navigate263_$LT$impl$u20$alloc..collections..btree..node..Handle$LT$alloc..collections..btree..node..NodeRef$LT$alloc..collections..btree..node..marker..Immut$C$K$C$V$C$alloc..collections..btree..node..marker..Leaf$GT$$C$alloc..collections..btree..node..marker..Edge$GT$$GT$14next_unchecked28_$u7b$$u7b$closure$u7d$$u7d$17h543112390182fadfE', symObjAddr: 0x58, symBinAddr: 0x301AC, symSize: 0xE0 }
  - { offset: 0x81F7D, size: 0x8, addend: 0x0, symName: '__ZN5alloc11collections5btree8navigate39LazyLeafRange$LT$BorrowType$C$K$C$V$GT$10init_front17ha6a6662d6b0c791dE', symObjAddr: 0x138, symBinAddr: 0x3028C, symSize: 0x1C8 }
  - { offset: 0x822C1, size: 0x8, addend: 0x0, symName: '__ZN5alloc11collections5btree8navigate39LazyLeafRange$LT$BorrowType$C$K$C$V$GT$10init_front17hd0e4574849855270E', symObjAddr: 0x300, symBinAddr: 0x30454, symSize: 0x1C8 }
  - { offset: 0x825CB, size: 0x8, addend: 0x0, symName: '__ZN5alloc11collections5btree8navigate75LazyLeafRange$LT$alloc..collections..btree..node..marker..Dying$C$K$C$V$GT$10take_front17hf2f5bae594bcdd94E', symObjAddr: 0x4C8, symBinAddr: 0x3061C, symSize: 0x1C4 }
  - { offset: 0x827D2, size: 0x8, addend: 0x0, symName: '__ZN5alloc11collections5btree8navigate75LazyLeafRange$LT$alloc..collections..btree..node..marker..Dying$C$K$C$V$GT$16deallocating_end17h572bbfa9547d34c6E', symObjAddr: 0x68C, symBinAddr: 0x307E0, symSize: 0x98 }
  - { offset: 0x82897, size: 0x8, addend: 0x0, symName: '__ZN5alloc11collections5btree8navigate75LazyLeafRange$LT$alloc..collections..btree..node..marker..Dying$C$K$C$V$GT$27deallocating_next_unchecked17h4cc1c5dd32eb8a21E', symObjAddr: 0x724, symBinAddr: 0x30878, symSize: 0xA8 }
  - { offset: 0x829C7, size: 0x8, addend: 0x0, symName: '__ZN5alloc11collections5btree3map5entry28VacantEntry$LT$K$C$V$C$A$GT$12insert_entry17h464181e58acda3bcE', symObjAddr: 0x0, symBinAddr: 0x30920, symSize: 0x25C }
  - { offset: 0x83155, size: 0x8, addend: 0x0, symName: '__ZN5alloc11collections5btree3map5entry28VacantEntry$LT$K$C$V$C$A$GT$12insert_entry28_$u7b$$u7b$closure$u7d$$u7d$17h6fea35b7c472269eE', symObjAddr: 0x25C, symBinAddr: 0x30B7C, symSize: 0x138 }
  - { offset: 0x83C53, size: 0x8, addend: 0x0, symName: '__ZN5alloc11collections5btree3map5entry28VacantEntry$LT$K$C$V$C$A$GT$12insert_entry17h464181e58acda3bcE', symObjAddr: 0x0, symBinAddr: 0x30920, symSize: 0x25C }
  - { offset: 0x84021, size: 0x8, addend: 0x0, symName: '__ZN5alloc11collections5btree3map5entry30OccupiedEntry$LT$K$C$V$C$A$GT$6insert17hc2f538440015e729E', symObjAddr: 0x394, symBinAddr: 0x30CB4, symSize: 0x4C }
  - { offset: 0x84084, size: 0x8, addend: 0x0, symName: '__ZN5alloc11collections5btree3map5entry30OccupiedEntry$LT$K$C$V$C$A$GT$8into_mut17h21efa0523496ec17E', symObjAddr: 0x3E0, symBinAddr: 0x30D00, symSize: 0x58 }
  - { offset: 0x840E1, size: 0x8, addend: 0x0, symName: __ZN4core9core_arch7aarch644neon9generated7vld1_u817hb7dc4cfacc7f5a30E, symObjAddr: 0x0, symBinAddr: 0x30D58, symSize: 0x34 }
  - { offset: 0x84107, size: 0x8, addend: 0x0, symName: __ZN4core9core_arch7aarch644neon9generated7vld1_u817hb7dc4cfacc7f5a30E, symObjAddr: 0x0, symBinAddr: 0x30D58, symSize: 0x34 }
  - { offset: 0x84135, size: 0x8, addend: 0x0, symName: __ZN4core9core_arch7aarch644neon9generated7vst1_u817h3a49e7115bceb24dE, symObjAddr: 0x34, symBinAddr: 0x30D8C, symSize: 0x40 }
  - { offset: 0x8416F, size: 0x8, addend: 0x0, symName: __ZN4core9core_arch7aarch644neon9generated8vcgez_s817ha5d1bab3b1a432bcE, symObjAddr: 0x74, symBinAddr: 0x30DCC, symSize: 0x68 }
  - { offset: 0x84211, size: 0x8, addend: 0x0, symName: __ZN4core9core_arch7aarch644neon9generated8vcltz_s817h1f6cb4c30b9b1e3bE, symObjAddr: 0xDC, symBinAddr: 0x30E34, symSize: 0x68 }
  - { offset: 0x84407, size: 0x8, addend: 0x0, symName: '__ZN42_$LT$$RF$T$u20$as$u20$core..fmt..Debug$GT$3fmt17hca2a784685568932E', symObjAddr: 0x0, symBinAddr: 0x30E9C, symSize: 0x30 }
  - { offset: 0x84423, size: 0x8, addend: 0x0, symName: '__ZN42_$LT$$RF$T$u20$as$u20$core..fmt..Debug$GT$3fmt17hca2a784685568932E', symObjAddr: 0x0, symBinAddr: 0x30E9C, symSize: 0x30 }
  - { offset: 0x84606, size: 0x8, addend: 0x0, symName: __ZN4pyo310conversion15IntoPyObjectExt17into_bound_py_any17ha766d535d5c4f2d1E, symObjAddr: 0x0, symBinAddr: 0x30ECC, symSize: 0x50 }
  - { offset: 0x846A7, size: 0x8, addend: 0x0, symName: __ZN4pyo310conversion15IntoPyObjectExt17into_bound_py_any17ha766d535d5c4f2d1E, symObjAddr: 0x0, symBinAddr: 0x30ECC, symSize: 0x50 }
  - { offset: 0x84717, size: 0x8, addend: 0x0, symName: __ZN4pyo310conversion15IntoPyObjectExt22into_pyobject_or_pyerr17h353a81528a554417E, symObjAddr: 0x50, symBinAddr: 0x30F1C, symSize: 0x44 }
  - { offset: 0x84787, size: 0x8, addend: 0x0, symName: __ZN4pyo310conversion15IntoPyObjectExt22into_pyobject_or_pyerr17h7accb14e9ada4aa5E, symObjAddr: 0x94, symBinAddr: 0x30F60, symSize: 0x44 }
  - { offset: 0x847F7, size: 0x8, addend: 0x0, symName: __ZN4pyo310conversion15IntoPyObjectExt22into_pyobject_or_pyerr17hc9ff51e73849a94dE, symObjAddr: 0xD8, symBinAddr: 0x30FA4, symSize: 0x44 }
  - { offset: 0x84867, size: 0x8, addend: 0x0, symName: __ZN4pyo310conversion15IntoPyObjectExt22into_pyobject_or_pyerr17hca6990d911fc6766E, symObjAddr: 0x11C, symBinAddr: 0x30FE8, symSize: 0x44 }
  - { offset: 0x8535A, size: 0x8, addend: 0x0, symName: '__ZN53_$LT$T$u20$as$u20$core..slice..cmp..SliceContains$GT$14slice_contains28_$u7b$$u7b$closure$u7d$$u7d$17h7c124df3a516ecebE', symObjAddr: 0x0, symBinAddr: 0x3102C, symSize: 0x38 }
  - { offset: 0x85380, size: 0x8, addend: 0x0, symName: '__ZN53_$LT$T$u20$as$u20$core..slice..cmp..SliceContains$GT$14slice_contains28_$u7b$$u7b$closure$u7d$$u7d$17h7c124df3a516ecebE', symObjAddr: 0x0, symBinAddr: 0x3102C, symSize: 0x38 }
  - { offset: 0x853C9, size: 0x8, addend: 0x0, symName: '__ZN53_$LT$T$u20$as$u20$core..slice..cmp..SliceContains$GT$14slice_contains28_$u7b$$u7b$closure$u7d$$u7d$17hebdf4dcb0f6e02a4E', symObjAddr: 0x38, symBinAddr: 0x31064, symSize: 0x38 }
  - { offset: 0x8563C, size: 0x8, addend: 0x0, symName: '__ZN106_$LT$core..iter..adapters..GenericShunt$LT$I$C$R$GT$$u20$as$u20$core..iter..traits..iterator..Iterator$GT$4next17h2a7e590d2ea6991dE', symObjAddr: 0x0, symBinAddr: 0x3109C, symSize: 0x78 }
  - { offset: 0x857B9, size: 0x8, addend: 0x0, symName: __ZN4core4iter6traits8iterator8Iterator7collect17h78959a8dea3c2698E, symObjAddr: 0xA38, symBinAddr: 0x31AD4, symSize: 0x68 }
  - { offset: 0x8584F, size: 0x8, addend: 0x0, symName: __ZN4core4iter6traits8iterator8Iterator7collect17h7e8b73a355aedb26E, symObjAddr: 0xAA0, symBinAddr: 0x31B3C, symSize: 0x68 }
  - { offset: 0x858E5, size: 0x8, addend: 0x0, symName: __ZN4core4iter6traits8iterator8Iterator7collect17ha1654172b587b7c4E, symObjAddr: 0xB08, symBinAddr: 0x31BA4, symSize: 0x68 }
  - { offset: 0x859A6, size: 0x8, addend: 0x0, symName: '__ZN63_$LT$I$u20$as$u20$core..iter..traits..collect..IntoIterator$GT$9into_iter17h507494c5dab62d05E', symObjAddr: 0xFE4, symBinAddr: 0x32080, symSize: 0x14 }
  - { offset: 0x859DD, size: 0x8, addend: 0x0, symName: '__ZN63_$LT$I$u20$as$u20$core..iter..traits..collect..IntoIterator$GT$9into_iter17h8309fff29f30b7bbE', symObjAddr: 0xFF8, symBinAddr: 0x32094, symSize: 0x14 }
  - { offset: 0x85A14, size: 0x8, addend: 0x0, symName: '__ZN63_$LT$I$u20$as$u20$core..iter..traits..collect..IntoIterator$GT$9into_iter17h97fc453c3e36e548E', symObjAddr: 0x100C, symBinAddr: 0x320A8, symSize: 0x14 }
  - { offset: 0x85B2A, size: 0x8, addend: 0x0, symName: '__ZN106_$LT$core..iter..adapters..GenericShunt$LT$I$C$R$GT$$u20$as$u20$core..iter..traits..iterator..Iterator$GT$4next17h2a7e590d2ea6991dE', symObjAddr: 0x0, symBinAddr: 0x3109C, symSize: 0x78 }
  - { offset: 0x85BBC, size: 0x8, addend: 0x0, symName: '__ZN106_$LT$core..iter..adapters..GenericShunt$LT$I$C$R$GT$$u20$as$u20$core..iter..traits..iterator..Iterator$GT$4next17hab16a0e701177f21E', symObjAddr: 0x78, symBinAddr: 0x31114, symSize: 0x78 }
  - { offset: 0x85C4E, size: 0x8, addend: 0x0, symName: '__ZN106_$LT$core..iter..adapters..GenericShunt$LT$I$C$R$GT$$u20$as$u20$core..iter..traits..iterator..Iterator$GT$4next17hc200b6addc9c86b4E', symObjAddr: 0xF0, symBinAddr: 0x3118C, symSize: 0x78 }
  - { offset: 0x85CE0, size: 0x8, addend: 0x0, symName: '__ZN106_$LT$core..iter..adapters..GenericShunt$LT$I$C$R$GT$$u20$as$u20$core..iter..traits..iterator..Iterator$GT$8try_fold17h196b402f3e02e82dE', symObjAddr: 0x168, symBinAddr: 0x31204, symSize: 0x98 }
  - { offset: 0x85DA6, size: 0x8, addend: 0x0, symName: '__ZN106_$LT$core..iter..adapters..GenericShunt$LT$I$C$R$GT$$u20$as$u20$core..iter..traits..iterator..Iterator$GT$8try_fold17h3dced2a4908f065eE', symObjAddr: 0x200, symBinAddr: 0x3129C, symSize: 0x98 }
  - { offset: 0x85E6C, size: 0x8, addend: 0x0, symName: '__ZN106_$LT$core..iter..adapters..GenericShunt$LT$I$C$R$GT$$u20$as$u20$core..iter..traits..iterator..Iterator$GT$8try_fold17hcda5a8ed4afc30c5E', symObjAddr: 0x298, symBinAddr: 0x31334, symSize: 0x98 }
  - { offset: 0x85F37, size: 0x8, addend: 0x0, symName: '__ZN106_$LT$core..iter..adapters..GenericShunt$LT$I$C$R$GT$$u20$as$u20$core..iter..traits..iterator..Iterator$GT$8try_fold28_$u7b$$u7b$closure$u7d$$u7d$17h2d501f1d13217450E', symObjAddr: 0x330, symBinAddr: 0x313CC, symSize: 0x1BC }
  - { offset: 0x86031, size: 0x8, addend: 0x0, symName: '__ZN106_$LT$core..iter..adapters..GenericShunt$LT$I$C$R$GT$$u20$as$u20$core..iter..traits..iterator..Iterator$GT$8try_fold28_$u7b$$u7b$closure$u7d$$u7d$17h6da1709a1cdb9057E', symObjAddr: 0x4EC, symBinAddr: 0x31588, symSize: 0x1BC }
  - { offset: 0x8612B, size: 0x8, addend: 0x0, symName: '__ZN106_$LT$core..iter..adapters..GenericShunt$LT$I$C$R$GT$$u20$as$u20$core..iter..traits..iterator..Iterator$GT$8try_fold28_$u7b$$u7b$closure$u7d$$u7d$17hfc018d3de2583bc4E', symObjAddr: 0x6A8, symBinAddr: 0x31744, symSize: 0x1BC }
  - { offset: 0x86226, size: 0x8, addend: 0x0, symName: '__ZN106_$LT$core..iter..adapters..GenericShunt$LT$I$C$R$GT$$u20$as$u20$core..iter..traits..iterator..Iterator$GT$9size_hint17h1d4ba2268bee224aE', symObjAddr: 0x864, symBinAddr: 0x31900, symSize: 0x9C }
  - { offset: 0x8629E, size: 0x8, addend: 0x0, symName: '__ZN106_$LT$core..iter..adapters..GenericShunt$LT$I$C$R$GT$$u20$as$u20$core..iter..traits..iterator..Iterator$GT$9size_hint17h2876f2fe76ab39d9E', symObjAddr: 0x900, symBinAddr: 0x3199C, symSize: 0x9C }
  - { offset: 0x86316, size: 0x8, addend: 0x0, symName: '__ZN106_$LT$core..iter..adapters..GenericShunt$LT$I$C$R$GT$$u20$as$u20$core..iter..traits..iterator..Iterator$GT$9size_hint17h9a8407eb46d9e46dE', symObjAddr: 0x99C, symBinAddr: 0x31A38, symSize: 0x9C }
  - { offset: 0x863F5, size: 0x8, addend: 0x0, symName: __ZN4core4iter8adapters11try_process17h21eee45365795182E, symObjAddr: 0xB70, symBinAddr: 0x31C0C, symSize: 0x17C }
  - { offset: 0x864BC, size: 0x8, addend: 0x0, symName: __ZN4core4iter8adapters11try_process17h8f71af5f541c35d8E, symObjAddr: 0xCEC, symBinAddr: 0x31D88, symSize: 0x17C }
  - { offset: 0x86583, size: 0x8, addend: 0x0, symName: __ZN4core4iter8adapters11try_process17hd32083dfb4683e4fE, symObjAddr: 0xE68, symBinAddr: 0x31F04, symSize: 0x17C }
  - { offset: 0x87E00, size: 0x8, addend: 0x0, symName: '__ZN4core3cmp5impls48_$LT$impl$u20$core..cmp..Ord$u20$for$u20$u32$GT$3cmp17h093cf198123f1c60E', symObjAddr: 0x0, symBinAddr: 0x320BC, symSize: 0x38 }
  - { offset: 0x87E3F, size: 0x8, addend: 0x0, symName: '__ZN4core3cmp5impls48_$LT$impl$u20$core..cmp..Ord$u20$for$u20$u32$GT$3cmp17h093cf198123f1c60E', symObjAddr: 0x0, symBinAddr: 0x320BC, symSize: 0x38 }
  - { offset: 0x87E82, size: 0x8, addend: 0x0, symName: '__ZN4core3cmp5impls48_$LT$impl$u20$core..cmp..Ord$u20$for$u20$u64$GT$3cmp17h6c7238811c72b95fE', symObjAddr: 0x38, symBinAddr: 0x320F4, symSize: 0x38 }
  - { offset: 0x87EC5, size: 0x8, addend: 0x0, symName: '__ZN4core3cmp5impls50_$LT$impl$u20$core..cmp..Ord$u20$for$u20$usize$GT$3cmp17h0bd7dd343c697c79E', symObjAddr: 0x70, symBinAddr: 0x3212C, symSize: 0x38 }
  - { offset: 0x87F08, size: 0x8, addend: 0x0, symName: '__ZN4core3cmp5impls54_$LT$impl$u20$core..cmp..PartialEq$u20$for$u20$i32$GT$2eq17hae60857475a78541E', symObjAddr: 0xA8, symBinAddr: 0x32164, symSize: 0x2C }
  - { offset: 0x87F4B, size: 0x8, addend: 0x0, symName: '__ZN4core3cmp5impls54_$LT$impl$u20$core..cmp..PartialEq$u20$for$u20$u64$GT$2eq17h95bb6c58d8500c1cE', symObjAddr: 0xD4, symBinAddr: 0x32190, symSize: 0x2C }
  - { offset: 0x87F8E, size: 0x8, addend: 0x0, symName: '__ZN4core3cmp5impls56_$LT$impl$u20$core..cmp..PartialEq$u20$for$u20$usize$GT$2eq17hb874c083f9741816E', symObjAddr: 0x100, symBinAddr: 0x321BC, symSize: 0x2C }
  - { offset: 0x8804B, size: 0x8, addend: 0x0, symName: __ZN9hashbrown3raw11TableLayout20calculate_layout_for17h032b5994581b1b3cE, symObjAddr: 0x0, symBinAddr: 0x321E8, symSize: 0x220 }
  - { offset: 0x89AD5, size: 0x8, addend: 0x0, symName: __ZN9hashbrown3raw11TableLayout20calculate_layout_for17h032b5994581b1b3cE, symObjAddr: 0x0, symBinAddr: 0x321E8, symSize: 0x220 }
  - { offset: 0x8A0AD, size: 0x8, addend: 0x0, symName: __ZN9hashbrown3raw13RawTableInner15fix_insert_slot17hee955b69a9483e74E, symObjAddr: 0x220, symBinAddr: 0x32408, symSize: 0x124 }
  - { offset: 0x8A49C, size: 0x8, addend: 0x0, symName: __ZN9hashbrown3raw13RawTableInner15rehash_in_place17h71232cf9a9a3569aE, symObjAddr: 0x344, symBinAddr: 0x3252C, symSize: 0x4AC }
  - { offset: 0x8ACB5, size: 0x8, addend: 0x0, symName: __ZN9hashbrown3raw13RawTableInner16find_insert_slot17h280c9cad0f8fab1cE, symObjAddr: 0x7F0, symBinAddr: 0x329D8, symSize: 0x10C }
  - { offset: 0x8AEAE, size: 0x8, addend: 0x0, symName: __ZN9hashbrown3raw13RawTableInner19prepare_insert_slot17he90c39eec316866cE, symObjAddr: 0x8FC, symBinAddr: 0x32AE4, symSize: 0x74 }
  - { offset: 0x8B19F, size: 0x8, addend: 0x0, symName: __ZN9hashbrown3raw13RawTableInner23prepare_rehash_in_place17hbace7cab966fddfeE, symObjAddr: 0x970, symBinAddr: 0x32B58, symSize: 0x254 }
  - { offset: 0x8B8BF, size: 0x8, addend: 0x0, symName: __ZN9hashbrown3raw13RawTableInner25find_insert_slot_in_group17h2fc753298fe2b38dE, symObjAddr: 0xBC4, symBinAddr: 0x32DAC, symSize: 0x15C }
  - { offset: 0x8BBB6, size: 0x8, addend: 0x0, symName: __ZN9hashbrown3raw13RawTableInner30find_or_find_insert_slot_inner17hc43880b106bdc985E, symObjAddr: 0xD20, symBinAddr: 0x32F08, symSize: 0x2B8 }
  - { offset: 0x8BF88, size: 0x8, addend: 0x0, symName: __ZN4core4iter6traits8iterator8Iterator3zip17hc89d9587b748bdc3E, symObjAddr: 0x0, symBinAddr: 0x331C0, symSize: 0xB4 }
  - { offset: 0x8C0DA, size: 0x8, addend: 0x0, symName: __ZN4core4iter6traits8iterator8Iterator3zip17hc89d9587b748bdc3E, symObjAddr: 0x0, symBinAddr: 0x331C0, symSize: 0xB4 }
  - { offset: 0x8C555, size: 0x8, addend: 0x0, symName: __ZN7_engine17__pyfunction_open17h9ec85aff2bde83ebE, symObjAddr: 0x0, symBinAddr: 0x33274, symSize: 0x2E4 }
  - { offset: 0x8CD3A, size: 0x8, addend: 0x0, symName: __ZN7_engine17__pyfunction_open17h9ec85aff2bde83ebE, symObjAddr: 0x0, symBinAddr: 0x33274, symSize: 0x2E4 }
  - { offset: 0x8CEB7, size: 0x8, addend: 0x0, symName: '__ZN7_engine40_$LT$impl$u20$_engine..open..MakeDef$GT$9_PYO3_DEF10trampoline17h95a401c3378e527bE', symObjAddr: 0x2E4, symBinAddr: 0x33558, symSize: 0x50 }
  - { offset: 0x8CF19, size: 0x8, addend: 0x0, symName: '__ZN7_engine43_$LT$impl$u20$_engine.._engine..MakeDef$GT$8make_def15__pyo3_pymodule17h5865c68d10cb172eE', symObjAddr: 0x334, symBinAddr: 0x335A8, symSize: 0x38 }
  - { offset: 0x8CF47, size: 0x8, addend: 0x0, symName: __ZN7_engine4open17ha5a58982c4ed7afcE, symObjAddr: 0x36C, symBinAddr: 0x335E0, symSize: 0x28 }
  - { offset: 0x8CF73, size: 0x8, addend: 0x0, symName: __ZN7_engine7_engine17h514d1db49c20022bE, symObjAddr: 0x394, symBinAddr: 0x33608, symSize: 0xC24 }
  - { offset: 0x8EB60, size: 0x8, addend: 0x0, symName: '__ZN4pyo35types10boolobject65_$LT$impl$u20$pyo3..conversion..IntoPyObject$u20$for$u20$bool$GT$13into_pyobject17h68928639d59022a9E', symObjAddr: 0x0, symBinAddr: 0x3422C, symSize: 0x20 }
  - { offset: 0x8EC06, size: 0x8, addend: 0x0, symName: '__ZN4pyo35types10boolobject65_$LT$impl$u20$pyo3..conversion..IntoPyObject$u20$for$u20$bool$GT$13into_pyobject17h68928639d59022a9E', symObjAddr: 0x0, symBinAddr: 0x3422C, symSize: 0x20 }
  - { offset: 0x8EF4F, size: 0x8, addend: 0x0, symName: __ZN4pyo35types10boolobject6PyBool3new17h2015d16ef566d90eE, symObjAddr: 0x20, symBinAddr: 0x3424C, symSize: 0x50 }
  - { offset: 0x8EFA8, size: 0x8, addend: 0x0, symName: '__ZN59_$LT$alloc..alloc..Global$u20$as$u20$core..clone..Clone$GT$5clone17hc52a58050884ed01E', symObjAddr: 0x0, symBinAddr: 0x3429C, symSize: 0x10 }
  - { offset: 0x8FE84, size: 0x8, addend: 0x0, symName: '__ZN59_$LT$alloc..alloc..Global$u20$as$u20$core..clone..Clone$GT$5clone17hc52a58050884ed01E', symObjAddr: 0x0, symBinAddr: 0x3429C, symSize: 0x10 }
  - { offset: 0x8FEDA, size: 0x8, addend: 0x0, symName: '__ZN63_$LT$alloc..alloc..Global$u20$as$u20$core..alloc..Allocator$GT$10deallocate17hab1fddeea3059089E', symObjAddr: 0x2B8, symBinAddr: 0x34554, symSize: 0x80 }
  - { offset: 0x8FFFA, size: 0x8, addend: 0x0, symName: '__ZN63_$LT$alloc..alloc..Global$u20$as$u20$core..alloc..Allocator$GT$6shrink17h8cb7b839cc3660f3E', symObjAddr: 0x338, symBinAddr: 0x345D4, symSize: 0x438 }
  - { offset: 0x90706, size: 0x8, addend: 0x0, symName: '__ZN63_$LT$alloc..alloc..Global$u20$as$u20$core..alloc..Allocator$GT$8allocate17ha4edb14219251c5bE', symObjAddr: 0x770, symBinAddr: 0x34A0C, symSize: 0x34 }
  - { offset: 0x90769, size: 0x8, addend: 0x0, symName: __ZN5alloc5alloc15exchange_malloc17h1e24317eee8ad0acE, symObjAddr: 0x10, symBinAddr: 0x342AC, symSize: 0xAC }
  - { offset: 0x90AD7, size: 0x8, addend: 0x0, symName: __ZN5alloc5alloc6Global10alloc_impl17h63e0be406b85e4c4E, symObjAddr: 0xBC, symBinAddr: 0x34358, symSize: 0x1FC }
  - { offset: 0x9115D, size: 0x8, addend: 0x0, symName: '__ZN73_$LT$pyo3..types..any..PyAny$u20$as$u20$pyo3..type_object..PyTypeInfo$GT$15type_object_raw17hdbe0a8384cf31e85E', symObjAddr: 0x0, symBinAddr: 0x34A40, symSize: 0x24 }
  - { offset: 0x911C4, size: 0x8, addend: 0x0, symName: '__ZN73_$LT$pyo3..types..any..PyAny$u20$as$u20$pyo3..type_object..PyTypeInfo$GT$15type_object_raw17hdbe0a8384cf31e85E', symObjAddr: 0x0, symBinAddr: 0x34A40, symSize: 0x24 }
  - { offset: 0x9133D, size: 0x8, addend: 0x0, symName: __ZN3std4sync6poison4once4Once12is_completed17h8b9ceb0c4ece4e99E, symObjAddr: 0x0, symBinAddr: 0x34A64, symSize: 0x54 }
  - { offset: 0x914F5, size: 0x8, addend: 0x0, symName: __ZN3std4sync6poison4once4Once12is_completed17h8b9ceb0c4ece4e99E, symObjAddr: 0x0, symBinAddr: 0x34A64, symSize: 0x54 }
  - { offset: 0x91569, size: 0x8, addend: 0x0, symName: __ZN3std2io4Read4take17h2907815dca678d1cE, symObjAddr: 0x0, symBinAddr: 0x34AB8, symSize: 0x24 }
  - { offset: 0x91802, size: 0x8, addend: 0x0, symName: __ZN3std2io4Read4take17h2907815dca678d1cE, symObjAddr: 0x0, symBinAddr: 0x34AB8, symSize: 0x24 }
  - { offset: 0x91848, size: 0x8, addend: 0x0, symName: __ZN3std2io4Read4take17hecb2235bf3d9c91cE, symObjAddr: 0x24, symBinAddr: 0x34ADC, symSize: 0x24 }
  - { offset: 0x91899, size: 0x8, addend: 0x0, symName: '__ZN3std2io5impls57_$LT$impl$u20$std..io..Read$u20$for$u20$$RF$mut$u20$R$GT$10read_exact17hb2c3a26501d30feeE', symObjAddr: 0x48, symBinAddr: 0x34B00, symSize: 0x34 }
  - { offset: 0x918DC, size: 0x8, addend: 0x0, symName: '__ZN3std2io5impls57_$LT$impl$u20$std..io..Read$u20$for$u20$$RF$mut$u20$R$GT$4read17haac2cb6e329121f4E', symObjAddr: 0x7C, symBinAddr: 0x34B34, symSize: 0x34 }
  - { offset: 0x9191F, size: 0x8, addend: 0x0, symName: '__ZN3std2io5impls57_$LT$impl$u20$std..io..Read$u20$for$u20$$RF$mut$u20$R$GT$4read17hc830bea49f155929E', symObjAddr: 0xB0, symBinAddr: 0x34B68, symSize: 0x34 }
  - { offset: 0x91962, size: 0x8, addend: 0x0, symName: '__ZN3std2io5impls57_$LT$impl$u20$std..io..Read$u20$for$u20$$RF$mut$u20$R$GT$8read_buf17ha39d31a0ffe47193E', symObjAddr: 0xE4, symBinAddr: 0x34B9C, symSize: 0x30 }
  - { offset: 0x919A5, size: 0x8, addend: 0x0, symName: '__ZN3std2io5impls57_$LT$impl$u20$std..io..Read$u20$for$u20$$RF$mut$u20$R$GT$8read_buf17he5da2358a0bceba1E', symObjAddr: 0x114, symBinAddr: 0x34BCC, symSize: 0x30 }
  - { offset: 0x919EE, size: 0x8, addend: 0x0, symName: '__ZN3std2io5impls57_$LT$impl$u20$std..io..Seek$u20$for$u20$$RF$mut$u20$S$GT$15stream_position17h29c008fa8183234fE', symObjAddr: 0x144, symBinAddr: 0x34BFC, symSize: 0x28 }
  - { offset: 0x91A23, size: 0x8, addend: 0x0, symName: '__ZN3std2io5impls57_$LT$impl$u20$std..io..Seek$u20$for$u20$$RF$mut$u20$S$GT$4seek17h3a4f60b99f12ae65E', symObjAddr: 0x16C, symBinAddr: 0x34C24, symSize: 0x30 }
  - { offset: 0x91AD8, size: 0x8, addend: 0x0, symName: '__ZN66_$LT$std..io..cursor..Cursor$LT$T$GT$$u20$as$u20$std..io..Read$GT$10read_exact17hbc00a306e0931bbfE', symObjAddr: 0x290, symBinAddr: 0x34D48, symSize: 0xD0 }
  - { offset: 0x91B34, size: 0x8, addend: 0x0, symName: '__ZN66_$LT$std..io..cursor..Cursor$LT$T$GT$$u20$as$u20$std..io..Read$GT$4read17haff525aed55d5b33E', symObjAddr: 0x360, symBinAddr: 0x34E18, symSize: 0xD0 }
  - { offset: 0x91C3A, size: 0x8, addend: 0x0, symName: '__ZN66_$LT$std..io..cursor..Cursor$LT$T$GT$$u20$as$u20$std..io..Read$GT$8read_buf17h153f2e3615bad311E', symObjAddr: 0x430, symBinAddr: 0x34EE8, symSize: 0xD4 }
  - { offset: 0x91D87, size: 0x8, addend: 0x0, symName: '__ZN66_$LT$std..io..cursor..Cursor$LT$T$GT$$u20$as$u20$std..io..Seek$GT$15stream_position17h4a75320972c3f529E', symObjAddr: 0x504, symBinAddr: 0x34FBC, symSize: 0x1C }
  - { offset: 0x91DBE, size: 0x8, addend: 0x0, symName: '__ZN66_$LT$std..io..cursor..Cursor$LT$T$GT$$u20$as$u20$std..io..Seek$GT$15stream_position17hc8bca5cca681c743E', symObjAddr: 0x520, symBinAddr: 0x34FD8, symSize: 0x1C }
  - { offset: 0x91DF5, size: 0x8, addend: 0x0, symName: '__ZN66_$LT$std..io..cursor..Cursor$LT$T$GT$$u20$as$u20$std..io..Seek$GT$4seek17h5cfa691db2195283E', symObjAddr: 0x53C, symBinAddr: 0x34FF4, symSize: 0x174 }
  - { offset: 0x91FBE, size: 0x8, addend: 0x0, symName: '__ZN66_$LT$std..io..cursor..Cursor$LT$T$GT$$u20$as$u20$std..io..Seek$GT$4seek17hf6807258e0d6a864E', symObjAddr: 0x6B0, symBinAddr: 0x35168, symSize: 0x174 }
  - { offset: 0x92F57, size: 0x8, addend: 0x0, symName: '__ZN3std2io6cursor15Cursor$LT$T$GT$3new17h6432684fdc4ff0d8E', symObjAddr: 0x19C, symBinAddr: 0x34C54, symSize: 0x18 }
  - { offset: 0x9313C, size: 0x8, addend: 0x0, symName: '__ZN3std2io6cursor15Cursor$LT$T$GT$5split17h0611c803ecbe72c9E', symObjAddr: 0x1B4, symBinAddr: 0x34C6C, symSize: 0xDC }
  - { offset: 0x93411, size: 0x8, addend: 0x0, symName: __ZN3std2io4Read4take17h046036452891a6d1E, symObjAddr: 0x0, symBinAddr: 0x352DC, symSize: 0x24 }
  - { offset: 0x9367F, size: 0x8, addend: 0x0, symName: __ZN3std2io4Read4take17h046036452891a6d1E, symObjAddr: 0x0, symBinAddr: 0x352DC, symSize: 0x24 }
  - { offset: 0x936C5, size: 0x8, addend: 0x0, symName: __ZN3std2io4Read4take17h7baf0e33b431f444E, symObjAddr: 0x24, symBinAddr: 0x35300, symSize: 0x24 }
  - { offset: 0x9370B, size: 0x8, addend: 0x0, symName: __ZN3std2io4Read5bytes17hbd48b51a41f47e78E, symObjAddr: 0x48, symBinAddr: 0x35324, symSize: 0x14 }
  - { offset: 0x9374D, size: 0x8, addend: 0x0, symName: '__ZN3std2io5impls57_$LT$impl$u20$std..io..Read$u20$for$u20$$RF$mut$u20$R$GT$10read_exact17h48fc9fbc5ae790e0E', symObjAddr: 0x5C, symBinAddr: 0x35338, symSize: 0x34 }
  - { offset: 0x93790, size: 0x8, addend: 0x0, symName: '__ZN3std2io5impls57_$LT$impl$u20$std..io..Read$u20$for$u20$$RF$mut$u20$R$GT$4read17h0ebb668a138eaa42E', symObjAddr: 0x90, symBinAddr: 0x3536C, symSize: 0x34 }
  - { offset: 0x937D3, size: 0x8, addend: 0x0, symName: '__ZN3std2io5impls57_$LT$impl$u20$std..io..Read$u20$for$u20$$RF$mut$u20$R$GT$4read17h3f2fb45ea6e5923fE', symObjAddr: 0xC4, symBinAddr: 0x353A0, symSize: 0x34 }
  - { offset: 0x93816, size: 0x8, addend: 0x0, symName: '__ZN3std2io5impls57_$LT$impl$u20$std..io..Read$u20$for$u20$$RF$mut$u20$R$GT$8read_buf17h329c7c908586b989E', symObjAddr: 0xF8, symBinAddr: 0x353D4, symSize: 0x30 }
  - { offset: 0x93859, size: 0x8, addend: 0x0, symName: '__ZN3std2io5impls57_$LT$impl$u20$std..io..Read$u20$for$u20$$RF$mut$u20$R$GT$8read_buf17h64340df8942998e8E', symObjAddr: 0x128, symBinAddr: 0x35404, symSize: 0x30 }
  - { offset: 0x938A2, size: 0x8, addend: 0x0, symName: '__ZN3std2io5impls57_$LT$impl$u20$std..io..Seek$u20$for$u20$$RF$mut$u20$S$GT$15stream_position17h1dfcd6b78124bab2E', symObjAddr: 0x158, symBinAddr: 0x35434, symSize: 0x28 }
  - { offset: 0x938D7, size: 0x8, addend: 0x0, symName: '__ZN3std2io5impls57_$LT$impl$u20$std..io..Seek$u20$for$u20$$RF$mut$u20$S$GT$4seek17h7b479059930e0977E', symObjAddr: 0x180, symBinAddr: 0x3545C, symSize: 0x30 }
  - { offset: 0x93A89, size: 0x8, addend: 0x0, symName: '__ZN82_$LT$std..io..buffered..bufreader..BufReader$LT$R$GT$$u20$as$u20$std..io..Read$GT$10read_exact17h513e638f0e78f83dE', symObjAddr: 0x2A8, symBinAddr: 0x35584, symSize: 0x74 }
  - { offset: 0x93AD4, size: 0x8, addend: 0x0, symName: '__ZN82_$LT$std..io..buffered..bufreader..BufReader$LT$R$GT$$u20$as$u20$std..io..Read$GT$10read_exact28_$u7b$$u7b$closure$u7d$$u7d$17h265431af5f265e3bE', symObjAddr: 0x31C, symBinAddr: 0x355F8, symSize: 0x50 }
  - { offset: 0x93B1A, size: 0x8, addend: 0x0, symName: '__ZN82_$LT$std..io..buffered..bufreader..BufReader$LT$R$GT$$u20$as$u20$std..io..Read$GT$4read17hb7f2f3d7ce97e006E', symObjAddr: 0x36C, symBinAddr: 0x35648, symSize: 0x1E0 }
  - { offset: 0x93E3F, size: 0x8, addend: 0x0, symName: '__ZN82_$LT$std..io..buffered..bufreader..BufReader$LT$R$GT$$u20$as$u20$std..io..Read$GT$8read_buf17h5256b21dced1e736E', symObjAddr: 0x54C, symBinAddr: 0x35828, symSize: 0x1E0 }
  - { offset: 0x942DD, size: 0x8, addend: 0x0, symName: '__ZN82_$LT$std..io..buffered..bufreader..BufReader$LT$R$GT$$u20$as$u20$std..io..Seek$GT$15stream_position17hf2c4deb95d174247E', symObjAddr: 0x72C, symBinAddr: 0x35A08, symSize: 0x124 }
  - { offset: 0x9440C, size: 0x8, addend: 0x0, symName: '__ZN82_$LT$std..io..buffered..bufreader..BufReader$LT$R$GT$$u20$as$u20$std..io..Seek$GT$4seek17hf1261ef154c0b945E', symObjAddr: 0x850, symBinAddr: 0x35B2C, symSize: 0x2C0 }
  - { offset: 0x94876, size: 0x8, addend: 0x0, symName: '__ZN43_$LT$R$u20$as$u20$std..io..SpecReadByte$GT$14spec_read_byte17h2e00c758426250d0E', symObjAddr: 0x284, symBinAddr: 0x35560, symSize: 0x24 }
  - { offset: 0x95766, size: 0x8, addend: 0x0, symName: '__ZN3std2io8buffered9bufreader18BufReader$LT$R$GT$13with_capacity17h215e844839b7af3fE', symObjAddr: 0x1B0, symBinAddr: 0x3548C, symSize: 0xA8 }
  - { offset: 0x957CE, size: 0x8, addend: 0x0, symName: '__ZN3std2io8buffered9bufreader18BufReader$LT$R$GT$3new17h11a1abb7cca9a626E', symObjAddr: 0x258, symBinAddr: 0x35534, symSize: 0x2C }
  - { offset: 0x95C4A, size: 0x8, addend: 0x0, symName: '__ZN103_$LT$pyo3..instance..Bound$LT$pyo3..types..any..PyAny$GT$$u20$as$u20$pyo3..types..any..PyAnyMethods$GT$14is_instance_of17h4a15b56d6e384b28E', symObjAddr: 0x0, symBinAddr: 0x35DEC, symSize: 0x24 }
  - { offset: 0x96471, size: 0x8, addend: 0x0, symName: '__ZN4core5slice29_$LT$impl$u20$$u5b$T$u5d$$GT$4iter17h7774423cf6f11279E', symObjAddr: 0x262C, symBinAddr: 0x38418, symSize: 0x28 }
  - { offset: 0x97999, size: 0x8, addend: 0x0, symName: '__ZN50_$LT$T$u20$as$u20$core..convert..Into$LT$U$GT$$GT$4into17h42ed4e0813b6052eE', symObjAddr: 0x2C24, symBinAddr: 0x38A10, symSize: 0x24 }
  - { offset: 0x979D9, size: 0x8, addend: 0x0, symName: '__ZN50_$LT$T$u20$as$u20$core..convert..Into$LT$U$GT$$GT$4into17h6c75bff5b2e80dd6E', symObjAddr: 0x2C48, symBinAddr: 0x38A34, symSize: 0x24 }
  - { offset: 0x97A39, size: 0x8, addend: 0x0, symName: '__ZN63_$LT$I$u20$as$u20$core..iter..traits..collect..IntoIterator$GT$9into_iter17h72043d341a8d61d7E', symObjAddr: 0x2C6C, symBinAddr: 0x38A58, symSize: 0x14 }
  - { offset: 0x97A89, size: 0x8, addend: 0x0, symName: '__ZN103_$LT$pyo3..instance..Bound$LT$pyo3..types..any..PyAny$GT$$u20$as$u20$pyo3..types..any..PyAnyMethods$GT$14is_instance_of17h4a15b56d6e384b28E', symObjAddr: 0x0, symBinAddr: 0x35DEC, symSize: 0x24 }
  - { offset: 0x97AC0, size: 0x8, addend: 0x0, symName: '__ZN103_$LT$pyo3..instance..Bound$LT$pyo3..types..any..PyAny$GT$$u20$as$u20$pyo3..types..any..PyAnyMethods$GT$18downcast_unchecked17hfc3c9bbbded1ebb9E', symObjAddr: 0x24, symBinAddr: 0x35E10, symSize: 0x74 }
  - { offset: 0x97AF7, size: 0x8, addend: 0x0, symName: '__ZN103_$LT$pyo3..instance..Bound$LT$pyo3..types..any..PyAny$GT$$u20$as$u20$pyo3..types..any..PyAnyMethods$GT$23downcast_into_unchecked17hefe14dc739ab98a2E', symObjAddr: 0x98, symBinAddr: 0x35E84, symSize: 0x14 }
  - { offset: 0x97B2E, size: 0x8, addend: 0x0, symName: '__ZN103_$LT$pyo3..instance..Bound$LT$pyo3..types..any..PyAny$GT$$u20$as$u20$pyo3..types..any..PyAnyMethods$GT$7extract17h0b86b3575eb58c9eE', symObjAddr: 0xAC, symBinAddr: 0x35E98, symSize: 0x30 }
  - { offset: 0x97B65, size: 0x8, addend: 0x0, symName: '__ZN103_$LT$pyo3..instance..Bound$LT$pyo3..types..any..PyAny$GT$$u20$as$u20$pyo3..types..any..PyAnyMethods$GT$7extract17h1fa0d66fea92248dE', symObjAddr: 0xDC, symBinAddr: 0x35EC8, symSize: 0x30 }
  - { offset: 0x97B9C, size: 0x8, addend: 0x0, symName: '__ZN103_$LT$pyo3..instance..Bound$LT$pyo3..types..any..PyAny$GT$$u20$as$u20$pyo3..types..any..PyAnyMethods$GT$7extract17h62c588ea8bb2eb8bE', symObjAddr: 0x10C, symBinAddr: 0x35EF8, symSize: 0x30 }
  - { offset: 0x97BD3, size: 0x8, addend: 0x0, symName: '__ZN103_$LT$pyo3..instance..Bound$LT$pyo3..types..any..PyAny$GT$$u20$as$u20$pyo3..types..any..PyAnyMethods$GT$7extract17hb4606c00bf40e170E', symObjAddr: 0x13C, symBinAddr: 0x35F28, symSize: 0x30 }
  - { offset: 0x97C0A, size: 0x8, addend: 0x0, symName: '__ZN103_$LT$pyo3..instance..Bound$LT$pyo3..types..any..PyAny$GT$$u20$as$u20$pyo3..types..any..PyAnyMethods$GT$7extract17hcd8fb40cd6a30a80E', symObjAddr: 0x16C, symBinAddr: 0x35F58, symSize: 0x30 }
  - { offset: 0x97C41, size: 0x8, addend: 0x0, symName: '__ZN103_$LT$pyo3..instance..Bound$LT$pyo3..types..any..PyAny$GT$$u20$as$u20$pyo3..types..any..PyAnyMethods$GT$7extract17hf6aed7e7071de69eE', symObjAddr: 0x19C, symBinAddr: 0x35F88, symSize: 0x30 }
  - { offset: 0x97C78, size: 0x8, addend: 0x0, symName: '__ZN103_$LT$pyo3..instance..Bound$LT$pyo3..types..any..PyAny$GT$$u20$as$u20$pyo3..types..any..PyAnyMethods$GT$8downcast17h724881e4f17ceb4eE', symObjAddr: 0x1CC, symBinAddr: 0x35FB8, symSize: 0x84 }
  - { offset: 0x97CD0, size: 0x8, addend: 0x0, symName: '__ZN107_$LT$pyo3..instance..Bound$LT$pyo3..types..dict..PyDict$GT$$u20$as$u20$pyo3..types..dict..PyDictMethods$GT$8set_item17h10d08135b08a3348E', symObjAddr: 0x250, symBinAddr: 0x3603C, symSize: 0x24C }
  - { offset: 0x97D7C, size: 0x8, addend: 0x0, symName: '__ZN107_$LT$pyo3..instance..Bound$LT$pyo3..types..dict..PyDict$GT$$u20$as$u20$pyo3..types..dict..PyDictMethods$GT$8set_item17h19b5a097e5287376E', symObjAddr: 0x49C, symBinAddr: 0x36288, symSize: 0x27C }
  - { offset: 0x97E29, size: 0x8, addend: 0x0, symName: '__ZN107_$LT$pyo3..instance..Bound$LT$pyo3..types..dict..PyDict$GT$$u20$as$u20$pyo3..types..dict..PyDictMethods$GT$8set_item17h1fd56a3109d8af75E', symObjAddr: 0x718, symBinAddr: 0x36504, symSize: 0x24C }
  - { offset: 0x97ED5, size: 0x8, addend: 0x0, symName: '__ZN107_$LT$pyo3..instance..Bound$LT$pyo3..types..dict..PyDict$GT$$u20$as$u20$pyo3..types..dict..PyDictMethods$GT$8set_item17h254c562d45e9cc8dE', symObjAddr: 0x964, symBinAddr: 0x36750, symSize: 0x25C }
  - { offset: 0x97F81, size: 0x8, addend: 0x0, symName: '__ZN107_$LT$pyo3..instance..Bound$LT$pyo3..types..dict..PyDict$GT$$u20$as$u20$pyo3..types..dict..PyDictMethods$GT$8set_item17h382706b07e42585cE', symObjAddr: 0xBC0, symBinAddr: 0x369AC, symSize: 0x24C }
  - { offset: 0x9802D, size: 0x8, addend: 0x0, symName: '__ZN107_$LT$pyo3..instance..Bound$LT$pyo3..types..dict..PyDict$GT$$u20$as$u20$pyo3..types..dict..PyDictMethods$GT$8set_item17h742df30c4f1934e6E', symObjAddr: 0xE0C, symBinAddr: 0x36BF8, symSize: 0x258 }
  - { offset: 0x980DA, size: 0x8, addend: 0x0, symName: '__ZN107_$LT$pyo3..instance..Bound$LT$pyo3..types..dict..PyDict$GT$$u20$as$u20$pyo3..types..dict..PyDictMethods$GT$8set_item17h7adb7a5633dc2b1cE', symObjAddr: 0x1064, symBinAddr: 0x36E50, symSize: 0x23C }
  - { offset: 0x98186, size: 0x8, addend: 0x0, symName: '__ZN107_$LT$pyo3..instance..Bound$LT$pyo3..types..dict..PyDict$GT$$u20$as$u20$pyo3..types..dict..PyDictMethods$GT$8set_item17h8766a0f67810d6d5E', symObjAddr: 0x12A0, symBinAddr: 0x3708C, symSize: 0x24C }
  - { offset: 0x98232, size: 0x8, addend: 0x0, symName: '__ZN107_$LT$pyo3..instance..Bound$LT$pyo3..types..dict..PyDict$GT$$u20$as$u20$pyo3..types..dict..PyDictMethods$GT$8set_item17h9434d8c892b7a036E', symObjAddr: 0x14EC, symBinAddr: 0x372D8, symSize: 0x258 }
  - { offset: 0x982DF, size: 0x8, addend: 0x0, symName: '__ZN107_$LT$pyo3..instance..Bound$LT$pyo3..types..dict..PyDict$GT$$u20$as$u20$pyo3..types..dict..PyDictMethods$GT$8set_item17ha063f0786a1a9b2eE', symObjAddr: 0x1744, symBinAddr: 0x37530, symSize: 0x24C }
  - { offset: 0x9838B, size: 0x8, addend: 0x0, symName: '__ZN107_$LT$pyo3..instance..Bound$LT$pyo3..types..dict..PyDict$GT$$u20$as$u20$pyo3..types..dict..PyDictMethods$GT$8set_item17haba58a03280c67f6E', symObjAddr: 0x1990, symBinAddr: 0x3777C, symSize: 0x268 }
  - { offset: 0x98438, size: 0x8, addend: 0x0, symName: '__ZN107_$LT$pyo3..instance..Bound$LT$pyo3..types..dict..PyDict$GT$$u20$as$u20$pyo3..types..dict..PyDictMethods$GT$8set_item17hca124181ee8dc2f7E', symObjAddr: 0x1BF8, symBinAddr: 0x379E4, symSize: 0x258 }
  - { offset: 0x984E5, size: 0x8, addend: 0x0, symName: '__ZN107_$LT$pyo3..instance..Bound$LT$pyo3..types..dict..PyDict$GT$$u20$as$u20$pyo3..types..dict..PyDictMethods$GT$8set_item17he6a418f3020f65ccE', symObjAddr: 0x1E50, symBinAddr: 0x37C3C, symSize: 0x268 }
  - { offset: 0x98592, size: 0x8, addend: 0x0, symName: '__ZN107_$LT$pyo3..instance..Bound$LT$pyo3..types..dict..PyDict$GT$$u20$as$u20$pyo3..types..dict..PyDictMethods$GT$8set_item17hf95956d6f893300dE', symObjAddr: 0x20B8, symBinAddr: 0x37EA4, symSize: 0x240 }
  - { offset: 0x9865F, size: 0x8, addend: 0x0, symName: '__ZN115_$LT$pyo3..instance..Bound$LT$pyo3..types..module..PyModule$GT$$u20$as$u20$pyo3..types..module..PyModuleMethods$GT$3add17h3b18874f860e6aa6E', symObjAddr: 0x22F8, symBinAddr: 0x380E4, symSize: 0x22C }
  - { offset: 0x98729, size: 0x8, addend: 0x0, symName: '__ZN115_$LT$pyo3..instance..Bound$LT$pyo3..types..module..PyModule$GT$$u20$as$u20$pyo3..types..module..PyModuleMethods$GT$9add_class17h5ca3fa785414a1a1E', symObjAddr: 0x2524, symBinAddr: 0x38310, symSize: 0xB8 }
  - { offset: 0x9887C, size: 0x8, addend: 0x0, symName: '__ZN127_$LT$pyo3..instance..Py$LT$pyo3..types..any..PyAny$GT$$u20$as$u20$core..convert..From$LT$pyo3..instance..Bound$LT$T$GT$$GT$$GT$4from17h35f39c5bdb1781b1E', symObjAddr: 0x25DC, symBinAddr: 0x383C8, symSize: 0x28 }
  - { offset: 0x988B3, size: 0x8, addend: 0x0, symName: '__ZN127_$LT$pyo3..instance..Py$LT$pyo3..types..any..PyAny$GT$$u20$as$u20$core..convert..From$LT$pyo3..instance..Bound$LT$T$GT$$GT$$GT$4from17h3b9054d7986c3bd3E', symObjAddr: 0x2604, symBinAddr: 0x383F0, symSize: 0x28 }
  - { offset: 0x98E26, size: 0x8, addend: 0x0, symName: '__ZN4pyo38instance39Borrowed$LT$pyo3..types..any..PyAny$GT$15from_ptr_or_opt28_$u7b$$u7b$closure$u7d$$u7d$17h5e25d591fc949b3cE', symObjAddr: 0x2BB4, symBinAddr: 0x389A0, symSize: 0x20 }
  - { offset: 0x98F57, size: 0x8, addend: 0x0, symName: '__ZN69_$LT$pyo3..instance..Bound$LT$T$GT$$u20$as$u20$core..clone..Clone$GT$5clone17h3b8c710ea2abe16cE', symObjAddr: 0x2C80, symBinAddr: 0x38A6C, symSize: 0x34 }
  - { offset: 0x98F94, size: 0x8, addend: 0x0, symName: '__ZN87_$LT$pyo3..instance..Bound$LT$T$GT$$u20$as$u20$pyo3..instance..BoundObject$LT$T$GT$$GT$8into_any17h053f269a53ed3a0bE', symObjAddr: 0x2D00, symBinAddr: 0x38AEC, symSize: 0x24 }
  - { offset: 0x98FCB, size: 0x8, addend: 0x0, symName: '__ZN87_$LT$pyo3..instance..Bound$LT$T$GT$$u20$as$u20$pyo3..instance..BoundObject$LT$T$GT$$GT$8into_any17h80924e712e990fbbE', symObjAddr: 0x2D24, symBinAddr: 0x38B10, symSize: 0x24 }
  - { offset: 0x99002, size: 0x8, addend: 0x0, symName: '__ZN87_$LT$pyo3..instance..Bound$LT$T$GT$$u20$as$u20$pyo3..instance..BoundObject$LT$T$GT$$GT$8into_any17h9db7fb98dceab012E', symObjAddr: 0x2D48, symBinAddr: 0x38B34, symSize: 0x24 }
  - { offset: 0x99039, size: 0x8, addend: 0x0, symName: '__ZN87_$LT$pyo3..instance..Bound$LT$T$GT$$u20$as$u20$pyo3..instance..BoundObject$LT$T$GT$$GT$8into_any17hd0aa97200816ceabE', symObjAddr: 0x2D6C, symBinAddr: 0x38B58, symSize: 0x24 }
  - { offset: 0x99076, size: 0x8, addend: 0x0, symName: '__ZN90_$LT$pyo3..instance..Borrowed$LT$T$GT$$u20$as$u20$pyo3..instance..BoundObject$LT$T$GT$$GT$8into_any17h122f0f2e280f8f04E', symObjAddr: 0x2D90, symBinAddr: 0x38B7C, symSize: 0x24 }
  - { offset: 0x990AD, size: 0x8, addend: 0x0, symName: '__ZN90_$LT$pyo3..instance..Borrowed$LT$T$GT$$u20$as$u20$pyo3..instance..BoundObject$LT$T$GT$$GT$8into_any17h240fad997494c34eE', symObjAddr: 0x2DB4, symBinAddr: 0x38BA0, symSize: 0x24 }
  - { offset: 0x9924C, size: 0x8, addend: 0x0, symName: __ZN4pyo310conversion15IntoPyObjectExt17into_bound_py_any17h2e746fc3c9827f69E, symObjAddr: 0x2654, symBinAddr: 0x38440, symSize: 0x50 }
  - { offset: 0x992BC, size: 0x8, addend: 0x0, symName: __ZN4pyo310conversion15IntoPyObjectExt17into_bound_py_any17h5cf12aab3e9086baE, symObjAddr: 0x26A4, symBinAddr: 0x38490, symSize: 0x50 }
  - { offset: 0x9932C, size: 0x8, addend: 0x0, symName: __ZN4pyo310conversion15IntoPyObjectExt22into_pyobject_or_pyerr17h03a7734d6f921fcbE, symObjAddr: 0x26F4, symBinAddr: 0x384E0, symSize: 0x48 }
  - { offset: 0x9939C, size: 0x8, addend: 0x0, symName: __ZN4pyo310conversion15IntoPyObjectExt22into_pyobject_or_pyerr17h39cd03019ce04d73E, symObjAddr: 0x273C, symBinAddr: 0x38528, symSize: 0x48 }
  - { offset: 0x9940C, size: 0x8, addend: 0x0, symName: __ZN4pyo310conversion15IntoPyObjectExt22into_pyobject_or_pyerr17hbab8cec56d0eb415E, symObjAddr: 0x2784, symBinAddr: 0x38570, symSize: 0x48 }
  - { offset: 0x99482, size: 0x8, addend: 0x0, symName: '__ZN81_$LT$pyo3..instance..Bound$LT$T$GT$$u20$as$u20$pyo3..conversion..IntoPyObject$GT$13into_pyobject17h6a7c4f9fc1088fe5E', symObjAddr: 0x2CB4, symBinAddr: 0x38AA0, symSize: 0x14 }
  - { offset: 0x994D4, size: 0x8, addend: 0x0, symName: '__ZN81_$LT$pyo3..instance..Bound$LT$T$GT$$u20$as$u20$pyo3..conversion..IntoPyObject$GT$13into_pyobject17h90581d93a423640cE', symObjAddr: 0x2CC8, symBinAddr: 0x38AB4, symSize: 0x14 }
  - { offset: 0x9952C, size: 0x8, addend: 0x0, symName: '__ZN85_$LT$$RF$pyo3..instance..Bound$LT$T$GT$$u20$as$u20$pyo3..conversion..IntoPyObject$GT$13into_pyobject17h653d8bb6364e357aE', symObjAddr: 0x2CDC, symBinAddr: 0x38AC8, symSize: 0x24 }
  - { offset: 0x9958F, size: 0x8, addend: 0x0, symName: '__ZN4pyo35impl_9pymethods133_$LT$impl$u20$core..convert..From$LT$pyo3..impl_..pymethods..BoundRef$LT$T$GT$$GT$$u20$for$u20$$RF$pyo3..instance..Bound$LT$T$GT$$GT$4from17h88832dffbea56c03E', symObjAddr: 0x27CC, symBinAddr: 0x385B8, symSize: 0x14 }
  - { offset: 0x9A5BA, size: 0x8, addend: 0x0, symName: '__ZN4pyo38instance11Py$LT$T$GT$10into_bound17h42f07c13c6248620E', symObjAddr: 0x27E0, symBinAddr: 0x385CC, symSize: 0x1C }
  - { offset: 0x9A601, size: 0x8, addend: 0x0, symName: '__ZN4pyo38instance11Py$LT$T$GT$13from_non_null17h1d2c00bd0bbc030eE', symObjAddr: 0x27FC, symBinAddr: 0x385E8, symSize: 0x14 }
  - { offset: 0x9A62D, size: 0x8, addend: 0x0, symName: '__ZN4pyo38instance11Py$LT$T$GT$13from_non_null17h22d49de58b0c4430E', symObjAddr: 0x2810, symBinAddr: 0x385FC, symSize: 0x14 }
  - { offset: 0x9A673, size: 0x8, addend: 0x0, symName: '__ZN4pyo38instance11Py$LT$T$GT$16get_class_object17h3c367a22e2ae2a89E', symObjAddr: 0x2824, symBinAddr: 0x38610, symSize: 0x78 }
  - { offset: 0x9A6C2, size: 0x8, addend: 0x0, symName: '__ZN4pyo38instance11Py$LT$T$GT$6as_ptr17h1806b733e8ecd786E', symObjAddr: 0x289C, symBinAddr: 0x38688, symSize: 0x1C }
  - { offset: 0x9A6EE, size: 0x8, addend: 0x0, symName: '__ZN4pyo38instance11Py$LT$T$GT$8into_any17h979d4b40fbec64f5E', symObjAddr: 0x28B8, symBinAddr: 0x386A4, symSize: 0x3C }
  - { offset: 0x9A71A, size: 0x8, addend: 0x0, symName: '__ZN4pyo38instance11Py$LT$T$GT$8into_any17hd88c96cec6eb792eE', symObjAddr: 0x28F4, symBinAddr: 0x386E0, symSize: 0x3C }
  - { offset: 0x9A746, size: 0x8, addend: 0x0, symName: '__ZN4pyo38instance11Py$LT$T$GT$8into_ptr17h2f3c29f61ba4518fE', symObjAddr: 0x2930, symBinAddr: 0x3871C, symSize: 0x30 }
  - { offset: 0x9A772, size: 0x8, addend: 0x0, symName: '__ZN4pyo38instance11Py$LT$T$GT$9clone_ref17hc210f7ee1620b34eE', symObjAddr: 0x2960, symBinAddr: 0x3874C, symSize: 0x40 }
  - { offset: 0x9A7EB, size: 0x8, addend: 0x0, symName: '__ZN4pyo38instance14Bound$LT$T$GT$10try_borrow17ha12fa85610a1a3ebE', symObjAddr: 0x29A0, symBinAddr: 0x3878C, symSize: 0x24 }
  - { offset: 0x9A831, size: 0x8, addend: 0x0, symName: '__ZN4pyo38instance14Bound$LT$T$GT$11as_borrowed17haff003ece029854fE', symObjAddr: 0x29C4, symBinAddr: 0x387B0, symSize: 0x48 }
  - { offset: 0x9A85D, size: 0x8, addend: 0x0, symName: '__ZN4pyo38instance14Bound$LT$T$GT$16get_class_object17hcfb4253e2c19aeb0E', symObjAddr: 0x2A0C, symBinAddr: 0x387F8, symSize: 0x2C }
  - { offset: 0x9A8DE, size: 0x8, addend: 0x0, symName: '__ZN4pyo38instance14Bound$LT$T$GT$3new17hd41b75c884e1ce43E', symObjAddr: 0x2A38, symBinAddr: 0x38824, symSize: 0x38 }
  - { offset: 0x9A92B, size: 0x8, addend: 0x0, symName: '__ZN4pyo38instance14Bound$LT$T$GT$6as_ptr17hc2f6b962e3279c08E', symObjAddr: 0x2A70, symBinAddr: 0x3885C, symSize: 0x2C }
  - { offset: 0x9A957, size: 0x8, addend: 0x0, symName: '__ZN4pyo38instance14Bound$LT$T$GT$6unbind17h3b6d58de82aebd83E', symObjAddr: 0x2A9C, symBinAddr: 0x38888, symSize: 0x48 }
  - { offset: 0x9A9A1, size: 0x8, addend: 0x0, symName: '__ZN4pyo38instance14Bound$LT$T$GT$6unbind17ha10077f248bcfef9E', symObjAddr: 0x2AE4, symBinAddr: 0x388D0, symSize: 0x48 }
  - { offset: 0x9A9EB, size: 0x8, addend: 0x0, symName: '__ZN4pyo38instance14Bound$LT$T$GT$8into_any17h1ae12d1d186dc743E', symObjAddr: 0x2B2C, symBinAddr: 0x38918, symSize: 0x30 }
  - { offset: 0x9AA17, size: 0x8, addend: 0x0, symName: '__ZN4pyo38instance14Bound$LT$T$GT$8into_any17hd806b6567ceab774E', symObjAddr: 0x2B5C, symBinAddr: 0x38948, symSize: 0x30 }
  - { offset: 0x9AA50, size: 0x8, addend: 0x0, symName: '__ZN4pyo38instance17Borrowed$LT$T$GT$6to_any17h0ae920bd663e8be3E', symObjAddr: 0x2B8C, symBinAddr: 0x38978, symSize: 0x14 }
  - { offset: 0x9AA89, size: 0x8, addend: 0x0, symName: '__ZN4pyo38instance17Borrowed$LT$T$GT$6to_any17h7442bd7e2a762f59E', symObjAddr: 0x2BA0, symBinAddr: 0x3898C, symSize: 0x14 }
  - { offset: 0x9AAC2, size: 0x8, addend: 0x0, symName: '__ZN4pyo38instance39Borrowed$LT$pyo3..types..any..PyAny$GT$18downcast_unchecked17h5be95fde8e491922E', symObjAddr: 0x2BD4, symBinAddr: 0x389C0, symSize: 0x14 }
  - { offset: 0x9AAEE, size: 0x8, addend: 0x0, symName: '__ZN4pyo38instance39Borrowed$LT$pyo3..types..any..PyAny$GT$18downcast_unchecked17hc838988dc72f115bE', symObjAddr: 0x2BE8, symBinAddr: 0x389D4, symSize: 0x14 }
  - { offset: 0x9AB48, size: 0x8, addend: 0x0, symName: '__ZN4pyo38internal8get_slot78_$LT$impl$u20$pyo3..instance..Bound$LT$pyo3..types..typeobject..PyType$GT$$GT$8get_slot17h0cc426cc102f4439E', symObjAddr: 0x2BFC, symBinAddr: 0x389E8, symSize: 0x28 }
  - { offset: 0x9AC6B, size: 0x8, addend: 0x0, symName: __ZN4core3ptr19copy_nonoverlapping18precondition_check17hc3ae59b3e62ddd6cE, symObjAddr: 0x0, symBinAddr: 0x38BC4, symSize: 0x36C }
  - { offset: 0x9AFBC, size: 0x8, addend: 0x0, symName: __ZN4core3ptr19copy_nonoverlapping18precondition_check17hc3ae59b3e62ddd6cE, symObjAddr: 0x0, symBinAddr: 0x38BC4, symSize: 0x36C }
  - { offset: 0x9B29C, size: 0x8, addend: 0x0, symName: __ZN4core3ptr4copy18precondition_check17h445f466d18fc8aedE, symObjAddr: 0x36C, symBinAddr: 0x38F30, symSize: 0x240 }
  - { offset: 0x9B92E, size: 0x8, addend: 0x0, symName: '__ZN9hashbrown11rustc_entry62_$LT$impl$u20$hashbrown..map..HashMap$LT$K$C$V$C$S$C$A$GT$$GT$11rustc_entry28_$u7b$$u7b$closure$u7d$$u7d$17h4402e4968633c941E', symObjAddr: 0x0, symBinAddr: 0x39170, symSize: 0x38 }
  - { offset: 0x9B94F, size: 0x8, addend: 0x0, symName: '__ZN9hashbrown11rustc_entry62_$LT$impl$u20$hashbrown..map..HashMap$LT$K$C$V$C$S$C$A$GT$$GT$11rustc_entry28_$u7b$$u7b$closure$u7d$$u7d$17h4402e4968633c941E', symObjAddr: 0x0, symBinAddr: 0x39170, symSize: 0x38 }
  - { offset: 0x9B9B0, size: 0x8, addend: 0x0, symName: '__ZN9hashbrown11rustc_entry62_$LT$impl$u20$hashbrown..map..HashMap$LT$K$C$V$C$S$C$A$GT$$GT$11rustc_entry28_$u7b$$u7b$closure$u7d$$u7d$17hd60099861bdf7d17E', symObjAddr: 0x38, symBinAddr: 0x391A8, symSize: 0x38 }
  - { offset: 0x9BC55, size: 0x8, addend: 0x0, symName: '__ZN52_$LT$Q$u20$as$u20$hashbrown..Equivalent$LT$K$GT$$GT$10equivalent17h1dac698f2dcfa90aE', symObjAddr: 0x0, symBinAddr: 0x391E0, symSize: 0x60 }
  - { offset: 0x9BDD8, size: 0x8, addend: 0x0, symName: '__ZN52_$LT$Q$u20$as$u20$hashbrown..Equivalent$LT$K$GT$$GT$10equivalent17h1dac698f2dcfa90aE', symObjAddr: 0x0, symBinAddr: 0x391E0, symSize: 0x60 }
  - { offset: 0x9BE49, size: 0x8, addend: 0x0, symName: '__ZN52_$LT$Q$u20$as$u20$hashbrown..Equivalent$LT$K$GT$$GT$10equivalent17h2446d42018e4863aE', symObjAddr: 0x60, symBinAddr: 0x39240, symSize: 0x50 }
  - { offset: 0x9BFE5, size: 0x8, addend: 0x0, symName: '__ZN4core5array85_$LT$impl$u20$core..ops..index..Index$LT$I$GT$$u20$for$u20$$u5b$T$u3b$$u20$N$u5d$$GT$5index17h225703451ce0c726E', symObjAddr: 0x0, symBinAddr: 0x39290, symSize: 0x3C }
  - { offset: 0x9C144, size: 0x8, addend: 0x0, symName: '__ZN4core5array85_$LT$impl$u20$core..ops..index..Index$LT$I$GT$$u20$for$u20$$u5b$T$u3b$$u20$N$u5d$$GT$5index17h225703451ce0c726E', symObjAddr: 0x0, symBinAddr: 0x39290, symSize: 0x3C }
  - { offset: 0x9C1B1, size: 0x8, addend: 0x0, symName: '__ZN4core5array85_$LT$impl$u20$core..ops..index..Index$LT$I$GT$$u20$for$u20$$u5b$T$u3b$$u20$N$u5d$$GT$5index17h248932932d1f640aE', symObjAddr: 0x3C, symBinAddr: 0x392CC, symSize: 0xCC }
  - { offset: 0x9C2A9, size: 0x8, addend: 0x0, symName: '__ZN4core5array85_$LT$impl$u20$core..ops..index..Index$LT$I$GT$$u20$for$u20$$u5b$T$u3b$$u20$N$u5d$$GT$5index17h3aa2e214f29b58e5E', symObjAddr: 0x108, symBinAddr: 0x39398, symSize: 0x3C }
  - { offset: 0x9C316, size: 0x8, addend: 0x0, symName: '__ZN4core5array85_$LT$impl$u20$core..ops..index..Index$LT$I$GT$$u20$for$u20$$u5b$T$u3b$$u20$N$u5d$$GT$5index17h578070ea58a0e873E', symObjAddr: 0x144, symBinAddr: 0x393D4, symSize: 0xCC }
  - { offset: 0x9C40E, size: 0x8, addend: 0x0, symName: '__ZN4core5array85_$LT$impl$u20$core..ops..index..Index$LT$I$GT$$u20$for$u20$$u5b$T$u3b$$u20$N$u5d$$GT$5index17habd36eaf1cf9b955E', symObjAddr: 0x210, symBinAddr: 0x394A0, symSize: 0xCC }
  - { offset: 0x9C68E, size: 0x8, addend: 0x0, symName: '__ZN4core3str6traits108_$LT$impl$u20$core..slice..index..SliceIndex$LT$str$GT$$u20$for$u20$core..ops..range..Range$LT$usize$GT$$GT$13get_unchecked18precondition_check17hb830a183ab3d2fc1E', symObjAddr: 0x0, symBinAddr: 0x3956C, symSize: 0xCC }
  - { offset: 0x9C9BA, size: 0x8, addend: 0x0, symName: '__ZN4core3str6traits108_$LT$impl$u20$core..slice..index..SliceIndex$LT$str$GT$$u20$for$u20$core..ops..range..Range$LT$usize$GT$$GT$13get_unchecked18precondition_check17hb830a183ab3d2fc1E', symObjAddr: 0x0, symBinAddr: 0x3956C, symSize: 0xCC }
  - { offset: 0x9CA37, size: 0x8, addend: 0x0, symName: '__ZN4core3str6traits54_$LT$impl$u20$core..cmp..PartialEq$u20$for$u20$str$GT$2eq17hcce8e8731c51af7dE', symObjAddr: 0xCC, symBinAddr: 0x39638, symSize: 0xAC }
  - { offset: 0x9CED6, size: 0x8, addend: 0x0, symName: '__ZN104_$LT$core..iter..adapters..copied..Copied$LT$I$GT$$u20$as$u20$core..iter..traits..iterator..Iterator$GT$4next17h629e3edbed2b5738E', symObjAddr: 0x0, symBinAddr: 0x396E4, symSize: 0x5C }
  - { offset: 0x9D4B0, size: 0x8, addend: 0x0, symName: '__ZN104_$LT$core..iter..adapters..copied..Copied$LT$I$GT$$u20$as$u20$core..iter..traits..iterator..Iterator$GT$4next17h629e3edbed2b5738E', symObjAddr: 0x0, symBinAddr: 0x396E4, symSize: 0x5C }
  - { offset: 0x9D525, size: 0x8, addend: 0x0, symName: '__ZN104_$LT$core..iter..adapters..copied..Copied$LT$I$GT$$u20$as$u20$core..iter..traits..iterator..Iterator$GT$4next17he20bd765b3ff571dE', symObjAddr: 0x5C, symBinAddr: 0x39740, symSize: 0x68 }
  - { offset: 0x9D59A, size: 0x8, addend: 0x0, symName: '__ZN104_$LT$core..iter..adapters..copied..Copied$LT$I$GT$$u20$as$u20$core..iter..traits..iterator..Iterator$GT$9size_hint17h2d321d0b96d4cdebE', symObjAddr: 0xC4, symBinAddr: 0x397A8, symSize: 0x24 }
  - { offset: 0x9D626, size: 0x8, addend: 0x0, symName: __ZN4core4iter6traits8iterator8Iterator7collect17h1c524c9ac6039e6aE, symObjAddr: 0xE8, symBinAddr: 0x397CC, symSize: 0x74 }
  - { offset: 0x9D6C8, size: 0x8, addend: 0x0, symName: '__ZN63_$LT$I$u20$as$u20$core..iter..traits..collect..IntoIterator$GT$9into_iter17h014e33b3ac41cfe3E', symObjAddr: 0x15C, symBinAddr: 0x39840, symSize: 0x30 }
  - { offset: 0x9D700, size: 0x8, addend: 0x0, symName: '__ZN63_$LT$I$u20$as$u20$core..iter..traits..collect..IntoIterator$GT$9into_iter17h8e1759449fba55edE', symObjAddr: 0x18C, symBinAddr: 0x39870, symSize: 0x1C }
  - { offset: 0x9E3A9, size: 0x8, addend: 0x0, symName: '__ZN66_$LT$lz4_flex..sink..SliceSink$u20$as$u20$lz4_flex..sink..Sink$GT$17extend_from_slice17h6f2278046cc9c66eE', symObjAddr: 0x0, symBinAddr: 0x3988C, symSize: 0x38 }
  - { offset: 0x9E3C5, size: 0x8, addend: 0x0, symName: '__ZN66_$LT$lz4_flex..sink..SliceSink$u20$as$u20$lz4_flex..sink..Sink$GT$17extend_from_slice17h6f2278046cc9c66eE', symObjAddr: 0x0, symBinAddr: 0x3988C, symSize: 0x38 }
  - { offset: 0x9E3FB, size: 0x8, addend: 0x0, symName: '__ZN66_$LT$lz4_flex..sink..SliceSink$u20$as$u20$lz4_flex..sink..Sink$GT$18extend_from_within17hd8854a7f6dbe20faE', symObjAddr: 0x38, symBinAddr: 0x398C4, symSize: 0xC4 }
  - { offset: 0x9E44D, size: 0x8, addend: 0x0, symName: '__ZN66_$LT$lz4_flex..sink..SliceSink$u20$as$u20$lz4_flex..sink..Sink$GT$22extend_from_slice_wild17h2b8c72a7f3d6974cE', symObjAddr: 0xFC, symBinAddr: 0x39988, symSize: 0x11C }
  - { offset: 0x9E4B6, size: 0x8, addend: 0x0, symName: '__ZN66_$LT$lz4_flex..sink..SliceSink$u20$as$u20$lz4_flex..sink..Sink$GT$30extend_from_within_overlapping17h729da9bd1437f4d8E', symObjAddr: 0x218, symBinAddr: 0x39AA4, symSize: 0x208 }
  - { offset: 0x9E53A, size: 0x8, addend: 0x0, symName: '__ZN66_$LT$lz4_flex..sink..SliceSink$u20$as$u20$lz4_flex..sink..Sink$GT$3pos17h91c1ae835afb94deE', symObjAddr: 0x420, symBinAddr: 0x39CAC, symSize: 0x18 }
  - { offset: 0x9E566, size: 0x8, addend: 0x0, symName: '__ZN66_$LT$lz4_flex..sink..SliceSink$u20$as$u20$lz4_flex..sink..Sink$GT$8capacity17h84e44661423143b9E', symObjAddr: 0x438, symBinAddr: 0x39CC4, symSize: 0x18 }
  - { offset: 0x9E6E3, size: 0x8, addend: 0x0, symName: __ZN8lz4_flex4sink9SliceSink3new17h130e6157037c8594E, symObjAddr: 0x450, symBinAddr: 0x39CDC, symSize: 0x80 }
  - { offset: 0x9E78E, size: 0x8, addend: 0x0, symName: '__ZN42_$LT$$RF$T$u20$as$u20$core..fmt..Debug$GT$3fmt17h12800c08a16dbd38E', symObjAddr: 0x0, symBinAddr: 0x39D5C, symSize: 0x30 }
  - { offset: 0x9EACF, size: 0x8, addend: 0x0, symName: '__ZN42_$LT$$RF$T$u20$as$u20$core..fmt..Debug$GT$3fmt17h12800c08a16dbd38E', symObjAddr: 0x0, symBinAddr: 0x39D5C, symSize: 0x30 }
  - { offset: 0x9EB15, size: 0x8, addend: 0x0, symName: '__ZN42_$LT$$RF$T$u20$as$u20$core..fmt..Debug$GT$3fmt17h5e124c989b9f826eE', symObjAddr: 0x30, symBinAddr: 0x39D8C, symSize: 0x30 }
  - { offset: 0x9EB5B, size: 0x8, addend: 0x0, symName: '__ZN42_$LT$$RF$T$u20$as$u20$core..fmt..Debug$GT$3fmt17h7e1e9987281fe755E', symObjAddr: 0x60, symBinAddr: 0x39DBC, symSize: 0x30 }
  - { offset: 0x9EBA1, size: 0x8, addend: 0x0, symName: '__ZN42_$LT$$RF$T$u20$as$u20$core..fmt..Debug$GT$3fmt17ha515b6aea31732efE', symObjAddr: 0x90, symBinAddr: 0x39DEC, symSize: 0x30 }
  - { offset: 0x9EBE7, size: 0x8, addend: 0x0, symName: '__ZN42_$LT$$RF$T$u20$as$u20$core..fmt..Debug$GT$3fmt17hb27d9c737e9a519fE', symObjAddr: 0xC0, symBinAddr: 0x39E1C, symSize: 0x30 }
  - { offset: 0x9EC2D, size: 0x8, addend: 0x0, symName: '__ZN42_$LT$$RF$T$u20$as$u20$core..fmt..Debug$GT$3fmt17hcd6d1f2d3439f04eE', symObjAddr: 0xF0, symBinAddr: 0x39E4C, symSize: 0x30 }
  - { offset: 0x9EC73, size: 0x8, addend: 0x0, symName: '__ZN42_$LT$$RF$T$u20$as$u20$core..fmt..Debug$GT$3fmt17he08aa3dc67b87f5dE', symObjAddr: 0x120, symBinAddr: 0x39E7C, symSize: 0x30 }
  - { offset: 0x9ECB9, size: 0x8, addend: 0x0, symName: '__ZN42_$LT$$RF$T$u20$as$u20$core..fmt..Debug$GT$3fmt17hf2e5442e7325ce98E', symObjAddr: 0x150, symBinAddr: 0x39EAC, symSize: 0x30 }
  - { offset: 0x9ECFF, size: 0x8, addend: 0x0, symName: '__ZN42_$LT$$RF$T$u20$as$u20$core..fmt..Debug$GT$3fmt17hf48cea3fe43f2691E', symObjAddr: 0x180, symBinAddr: 0x39EDC, symSize: 0x30 }
  - { offset: 0x9F0B8, size: 0x8, addend: 0x0, symName: '__ZN4core3ptr8non_null16NonNull$LT$T$GT$13new_unchecked18precondition_check17hdfd094d52cba9b88E', symObjAddr: 0x0, symBinAddr: 0x39F0C, symSize: 0xA4 }
  - { offset: 0x9F33A, size: 0x8, addend: 0x0, symName: '__ZN4core3ptr8non_null16NonNull$LT$T$GT$13new_unchecked18precondition_check17hdfd094d52cba9b88E', symObjAddr: 0x0, symBinAddr: 0x39F0C, symSize: 0xA4 }
  - { offset: 0x9F5E7, size: 0x8, addend: 0x0, symName: _PyInit__engine, symObjAddr: 0x0, symBinAddr: 0x39FB0, symSize: 0x34 }
  - { offset: 0x9F60B, size: 0x8, addend: 0x0, symName: __ZN7_engine7_engine9_PYO3_DEF17h0f8f84dd8d8fddf7E, symObjAddr: 0x50, symBinAddr: 0x2A0490, symSize: 0x0 }
  - { offset: 0x9F618, size: 0x8, addend: 0x0, symName: _PyInit__engine, symObjAddr: 0x0, symBinAddr: 0x39FB0, symSize: 0x34 }
  - { offset: 0xA04E6, size: 0x8, addend: 0x0, symName: '__ZN101_$LT$wellen..fst..FstWaveDatabase$LT$R$GT$$u20$as$u20$wellen..signals..SignalSourceImplementation$GT$12load_signals17h144accc80c5a2d1fE', symObjAddr: 0x0, symBinAddr: 0x39FE4, symSize: 0x4DC }
  - { offset: 0xA0781, size: 0x8, addend: 0x0, symName: '__ZN101_$LT$wellen..fst..FstWaveDatabase$LT$R$GT$$u20$as$u20$wellen..signals..SignalSourceImplementation$GT$12load_signals17h144accc80c5a2d1fE', symObjAddr: 0x0, symBinAddr: 0x39FE4, symSize: 0x4DC }
  - { offset: 0xA090E, size: 0x8, addend: 0x0, symName: '__ZN101_$LT$wellen..fst..FstWaveDatabase$LT$R$GT$$u20$as$u20$wellen..signals..SignalSourceImplementation$GT$12load_signals28_$u7b$$u7b$closure$u7d$$u7d$17h0c14d6505427eb3dE', symObjAddr: 0x4DC, symBinAddr: 0x3A4C0, symSize: 0x40 }
  - { offset: 0xA0966, size: 0x8, addend: 0x0, symName: '__ZN101_$LT$wellen..fst..FstWaveDatabase$LT$R$GT$$u20$as$u20$wellen..signals..SignalSourceImplementation$GT$12load_signals28_$u7b$$u7b$closure$u7d$$u7d$17h162d790601d5c66cE', symObjAddr: 0x51C, symBinAddr: 0x3A500, symSize: 0x28 }
  - { offset: 0xA09A1, size: 0x8, addend: 0x0, symName: '__ZN101_$LT$wellen..fst..FstWaveDatabase$LT$R$GT$$u20$as$u20$wellen..signals..SignalSourceImplementation$GT$12load_signals28_$u7b$$u7b$closure$u7d$$u7d$17h3cecc20de3a5224eE', symObjAddr: 0x544, symBinAddr: 0x3A528, symSize: 0x4C }
  - { offset: 0xA0A08, size: 0x8, addend: 0x0, symName: '__ZN101_$LT$wellen..fst..FstWaveDatabase$LT$R$GT$$u20$as$u20$wellen..signals..SignalSourceImplementation$GT$12load_signals28_$u7b$$u7b$closure$u7d$$u7d$17h40858c4981cb256aE', symObjAddr: 0x590, symBinAddr: 0x3A574, symSize: 0x28 }
  - { offset: 0xA0A48, size: 0x8, addend: 0x0, symName: '__ZN101_$LT$wellen..fst..FstWaveDatabase$LT$R$GT$$u20$as$u20$wellen..signals..SignalSourceImplementation$GT$12load_signals28_$u7b$$u7b$closure$u7d$$u7d$17h45d5b6869017bc2cE', symObjAddr: 0x5B8, symBinAddr: 0x3A59C, symSize: 0x3C }
  - { offset: 0xA0AA0, size: 0x8, addend: 0x0, symName: '__ZN101_$LT$wellen..fst..FstWaveDatabase$LT$R$GT$$u20$as$u20$wellen..signals..SignalSourceImplementation$GT$12load_signals28_$u7b$$u7b$closure$u7d$$u7d$17h7b5fbde583edbf7fE', symObjAddr: 0x5F4, symBinAddr: 0x3A5D8, symSize: 0x170 }
  - { offset: 0xA0C25, size: 0x8, addend: 0x0, symName: '__ZN101_$LT$wellen..fst..FstWaveDatabase$LT$R$GT$$u20$as$u20$wellen..signals..SignalSourceImplementation$GT$16print_statistics17hc9536d2bc9d7502dE', symObjAddr: 0x764, symBinAddr: 0x3A748, symSize: 0x38 }
  - { offset: 0xA0C57, size: 0x8, addend: 0x0, symName: __ZN6wellen3fst11read_header17ha3767e76ae948fd6E, symObjAddr: 0x79C, symBinAddr: 0x3A780, symSize: 0x1EC }
  - { offset: 0xA0D47, size: 0x8, addend: 0x0, symName: __ZN6wellen3fst14read_hierarchy17hc5d74b2b965b8adaE, symObjAddr: 0x988, symBinAddr: 0x3A96C, symSize: 0x334 }
  - { offset: 0xA0E2C, size: 0x8, addend: 0x0, symName: '__ZN6wellen3fst14read_hierarchy28_$u7b$$u7b$closure$u7d$$u7d$17hb53e0f50b592c79eE', symObjAddr: 0xCBC, symBinAddr: 0x3ACA0, symSize: 0xBC4 }
  - { offset: 0xA12E9, size: 0x8, addend: 0x0, symName: '__ZN6wellen3fst14read_hierarchy28_$u7b$$u7b$closure$u7d$$u7d$28_$u7b$$u7b$closure$u7d$$u7d$17h58470fa73213c7f9E', symObjAddr: 0x1880, symBinAddr: 0x3B864, symSize: 0xD4 }
  - { offset: 0xA1356, size: 0x8, addend: 0x0, symName: '__ZN6wellen3fst14read_hierarchy28_$u7b$$u7b$closure$u7d$$u7d$28_$u7b$$u7b$closure$u7d$$u7d$17h589e8ae10d4ec5faE', symObjAddr: 0x1954, symBinAddr: 0x3B938, symSize: 0x24 }
  - { offset: 0xA13D5, size: 0x8, addend: 0x0, symName: __ZN6wellen3fst9read_body17he8ff0d848e65bdd1E, symObjAddr: 0x19A8, symBinAddr: 0x3B98C, symSize: 0x224 }
  - { offset: 0xA4DE4, size: 0x8, addend: 0x0, symName: '__ZN6wellen3fst24FstWaveDatabase$LT$R$GT$3new17h6ae0978eb27919dfE', symObjAddr: 0x1978, symBinAddr: 0x3B95C, symSize: 0x30 }
  - { offset: 0xA5373, size: 0x8, addend: 0x0, symName: '__ZN103_$LT$alloc..vec..into_iter..IntoIter$LT$T$C$A$GT$$u20$as$u20$core..iter..traits..iterator..Iterator$GT$4fold17haa36c4b0ad19056fE', symObjAddr: 0x0, symBinAddr: 0x3BBB0, symSize: 0x14C }
  - { offset: 0xA70DA, size: 0x8, addend: 0x0, symName: __ZN4core4iter6traits10exact_size17ExactSizeIterator3len17h1c60260100c64d35E, symObjAddr: 0x888, symBinAddr: 0x3C438, symSize: 0xC4 }
  - { offset: 0xA71D9, size: 0x8, addend: 0x0, symName: __ZN4core4iter6traits10exact_size17ExactSizeIterator3len17ha5d2f4cae35d21acE, symObjAddr: 0x94C, symBinAddr: 0x3C4FC, symSize: 0xC4 }
  - { offset: 0xA72D8, size: 0x8, addend: 0x0, symName: __ZN4core4iter6traits10exact_size17ExactSizeIterator3len17ha644cd5aa9bd44b9E, symObjAddr: 0xA10, symBinAddr: 0x3C5C0, symSize: 0xC4 }
  - { offset: 0xA73D7, size: 0x8, addend: 0x0, symName: __ZN4core4iter6traits10exact_size17ExactSizeIterator3len17haa24e2dcccae09fbE, symObjAddr: 0xAD4, symBinAddr: 0x3C684, symSize: 0xC4 }
  - { offset: 0xA74D6, size: 0x8, addend: 0x0, symName: __ZN4core4iter6traits10exact_size17ExactSizeIterator3len17hb6ed25757e4ab57cE, symObjAddr: 0xB98, symBinAddr: 0x3C748, symSize: 0xC4 }
  - { offset: 0xA75D5, size: 0x8, addend: 0x0, symName: __ZN4core4iter6traits10exact_size17ExactSizeIterator3len17hcc1bd3b803a04a04E, symObjAddr: 0xC5C, symBinAddr: 0x3C80C, symSize: 0xC4 }
  - { offset: 0xA770B, size: 0x8, addend: 0x0, symName: __ZN4core4iter6traits8iterator8Iterator3map17h837f88971be01f86E, symObjAddr: 0xD20, symBinAddr: 0x3C8D0, symSize: 0x1C }
  - { offset: 0xA7778, size: 0x8, addend: 0x0, symName: __ZN4core4iter6traits8iterator8Iterator3map17hf8932a27360e6ee4E, symObjAddr: 0xD3C, symBinAddr: 0x3C8EC, symSize: 0x28 }
  - { offset: 0xA7810, size: 0x8, addend: 0x0, symName: '__ZN63_$LT$I$u20$as$u20$core..iter..traits..collect..IntoIterator$GT$9into_iter17h08f2f02a2e89214aE', symObjAddr: 0xE10, symBinAddr: 0x3C9C0, symSize: 0x14 }
  - { offset: 0xA7847, size: 0x8, addend: 0x0, symName: '__ZN63_$LT$I$u20$as$u20$core..iter..traits..collect..IntoIterator$GT$9into_iter17hc9d23fd251b9707bE', symObjAddr: 0xE24, symBinAddr: 0x3C9D4, symSize: 0x14 }
  - { offset: 0xA7ABF, size: 0x8, addend: 0x0, symName: '__ZN103_$LT$alloc..vec..into_iter..IntoIter$LT$T$C$A$GT$$u20$as$u20$core..iter..traits..iterator..Iterator$GT$4fold17haa36c4b0ad19056fE', symObjAddr: 0x0, symBinAddr: 0x3BBB0, symSize: 0x14C }
  - { offset: 0xA7C8F, size: 0x8, addend: 0x0, symName: '__ZN103_$LT$alloc..vec..into_iter..IntoIter$LT$T$C$A$GT$$u20$as$u20$core..iter..traits..iterator..Iterator$GT$4next17h848378cd0943fefaE', symObjAddr: 0x14C, symBinAddr: 0x3BCFC, symSize: 0xD0 }
  - { offset: 0xA7E0A, size: 0x8, addend: 0x0, symName: '__ZN103_$LT$alloc..vec..into_iter..IntoIter$LT$T$C$A$GT$$u20$as$u20$core..iter..traits..iterator..Iterator$GT$4next17ha31a131fca1ff7e1E', symObjAddr: 0x21C, symBinAddr: 0x3BDCC, symSize: 0xBC }
  - { offset: 0xA7F81, size: 0x8, addend: 0x0, symName: '__ZN103_$LT$alloc..vec..into_iter..IntoIter$LT$T$C$A$GT$$u20$as$u20$core..iter..traits..iterator..Iterator$GT$4next17hbe88a07ca6fdfb5dE', symObjAddr: 0x2D8, symBinAddr: 0x3BE88, symSize: 0xCC }
  - { offset: 0xA80FC, size: 0x8, addend: 0x0, symName: '__ZN103_$LT$alloc..vec..into_iter..IntoIter$LT$T$C$A$GT$$u20$as$u20$core..iter..traits..iterator..Iterator$GT$4next17hcda9ec5fdcab9f28E', symObjAddr: 0x3A4, symBinAddr: 0x3BF54, symSize: 0xB8 }
  - { offset: 0xA8275, size: 0x8, addend: 0x0, symName: '__ZN103_$LT$alloc..vec..into_iter..IntoIter$LT$T$C$A$GT$$u20$as$u20$core..iter..traits..iterator..Iterator$GT$8try_fold17hb215e926cfe81d68E', symObjAddr: 0x45C, symBinAddr: 0x3C00C, symSize: 0x1F0 }
  - { offset: 0xA8457, size: 0x8, addend: 0x0, symName: '__ZN103_$LT$alloc..vec..into_iter..IntoIter$LT$T$C$A$GT$$u20$as$u20$core..iter..traits..iterator..Iterator$GT$9size_hint17h26362d8439d30aecE', symObjAddr: 0x64C, symBinAddr: 0x3C1FC, symSize: 0x5C }
  - { offset: 0xA84B2, size: 0x8, addend: 0x0, symName: '__ZN103_$LT$alloc..vec..into_iter..IntoIter$LT$T$C$A$GT$$u20$as$u20$core..iter..traits..iterator..Iterator$GT$9size_hint17h7a2713e77d79ccb1E', symObjAddr: 0x6A8, symBinAddr: 0x3C258, symSize: 0x5C }
  - { offset: 0xA850D, size: 0x8, addend: 0x0, symName: '__ZN103_$LT$alloc..vec..into_iter..IntoIter$LT$T$C$A$GT$$u20$as$u20$core..iter..traits..iterator..Iterator$GT$9size_hint17h80871d540637b1e4E', symObjAddr: 0x704, symBinAddr: 0x3C2B4, symSize: 0x5C }
  - { offset: 0xA8568, size: 0x8, addend: 0x0, symName: '__ZN103_$LT$alloc..vec..into_iter..IntoIter$LT$T$C$A$GT$$u20$as$u20$core..iter..traits..iterator..Iterator$GT$9size_hint17hc38d285a8d6e360eE', symObjAddr: 0x760, symBinAddr: 0x3C310, symSize: 0x5C }
  - { offset: 0xA85C3, size: 0x8, addend: 0x0, symName: '__ZN103_$LT$alloc..vec..into_iter..IntoIter$LT$T$C$A$GT$$u20$as$u20$core..iter..traits..iterator..Iterator$GT$9size_hint17hc456e2f644b35c2dE', symObjAddr: 0x7BC, symBinAddr: 0x3C36C, symSize: 0x5C }
  - { offset: 0xA861E, size: 0x8, addend: 0x0, symName: '__ZN103_$LT$alloc..vec..into_iter..IntoIter$LT$T$C$A$GT$$u20$as$u20$core..iter..traits..iterator..Iterator$GT$9size_hint17hf235d9079f60a9e4E', symObjAddr: 0x818, symBinAddr: 0x3C3C8, symSize: 0x5C }
  - { offset: 0xA867F, size: 0x8, addend: 0x0, symName: '__ZN104_$LT$alloc..vec..into_iter..IntoIter$LT$T$GT$$u20$as$u20$alloc..vec..in_place_collect..AsVecIntoIter$GT$12as_into_iter17ha5c82c447a36815bE', symObjAddr: 0x874, symBinAddr: 0x3C424, symSize: 0x14 }
  - { offset: 0xA87CC, size: 0x8, addend: 0x0, symName: '__ZN97_$LT$alloc..vec..into_iter..IntoIter$LT$T$C$A$GT$$u20$as$u20$core..iter..adapters..SourceIter$GT$8as_inner17h29cc4deadb09adbeE', symObjAddr: 0xE38, symBinAddr: 0x3C9E8, symSize: 0x14 }
  - { offset: 0xA9599, size: 0x8, addend: 0x0, symName: '__ZN5alloc3vec9into_iter21IntoIter$LT$T$C$A$GT$32forget_allocation_drop_remaining17h0280ea267e0ccef9E', symObjAddr: 0xD64, symBinAddr: 0x3C914, symSize: 0xAC }
  - { offset: 0xA97E4, size: 0x8, addend: 0x0, symName: '__ZN111_$LT$alloc..vec..Vec$LT$T$GT$$u20$as$u20$alloc..vec..spec_from_iter_nested..SpecFromIterNested$LT$T$C$I$GT$$GT$9from_iter17h15b4f053af725715E', symObjAddr: 0x0, symBinAddr: 0x3C9FC, symSize: 0x248 }
  - { offset: 0xAD21F, size: 0x8, addend: 0x0, symName: '__ZN42_$LT$$RF$T$u20$as$u20$core..fmt..Debug$GT$3fmt17h4f75150cee48fbc8E', symObjAddr: 0x1ADC, symBinAddr: 0x3E4D8, symSize: 0x30 }
  - { offset: 0xAD265, size: 0x8, addend: 0x0, symName: '__ZN42_$LT$$RF$T$u20$as$u20$core..fmt..Debug$GT$3fmt17hdba44e17daf4a00dE', symObjAddr: 0x1B0C, symBinAddr: 0x3E508, symSize: 0x30 }
  - { offset: 0xAD2AB, size: 0x8, addend: 0x0, symName: '__ZN42_$LT$$RF$T$u20$as$u20$core..fmt..Debug$GT$3fmt17hf27f4fdd5a997f63E', symObjAddr: 0x1B3C, symBinAddr: 0x3E538, symSize: 0x30 }
  - { offset: 0xADC1B, size: 0x8, addend: 0x0, symName: '__ZN4core4hash5impls52_$LT$impl$u20$core..hash..Hash$u20$for$u20$$RF$T$GT$4hash17ha3f2d71397c37c6aE', symObjAddr: 0x1B6C, symBinAddr: 0x3E568, symSize: 0x30 }
  - { offset: 0xADCB1, size: 0x8, addend: 0x0, symName: '__ZN51_$LT$T$u20$as$u20$core..borrow..Borrow$LT$T$GT$$GT$6borrow17h4e7f4ce27518774eE', symObjAddr: 0x1C24, symBinAddr: 0x3E620, symSize: 0x14 }
  - { offset: 0xAFFD7, size: 0x8, addend: 0x0, symName: '__ZN111_$LT$alloc..vec..Vec$LT$T$GT$$u20$as$u20$alloc..vec..spec_from_iter_nested..SpecFromIterNested$LT$T$C$I$GT$$GT$9from_iter17h15b4f053af725715E', symObjAddr: 0x0, symBinAddr: 0x3C9FC, symSize: 0x248 }
  - { offset: 0xB0291, size: 0x8, addend: 0x0, symName: '__ZN111_$LT$alloc..vec..Vec$LT$T$GT$$u20$as$u20$alloc..vec..spec_from_iter_nested..SpecFromIterNested$LT$T$C$I$GT$$GT$9from_iter17h297b254360a6fef4E', symObjAddr: 0x248, symBinAddr: 0x3CC44, symSize: 0x260 }
  - { offset: 0xB054B, size: 0x8, addend: 0x0, symName: '__ZN111_$LT$alloc..vec..Vec$LT$T$GT$$u20$as$u20$alloc..vec..spec_from_iter_nested..SpecFromIterNested$LT$T$C$I$GT$$GT$9from_iter17h6a658472f38f6176E', symObjAddr: 0x60C, symBinAddr: 0x3D008, symSize: 0x26C }
  - { offset: 0xB0806, size: 0x8, addend: 0x0, symName: '__ZN111_$LT$alloc..vec..Vec$LT$T$GT$$u20$as$u20$alloc..vec..spec_from_iter_nested..SpecFromIterNested$LT$T$C$I$GT$$GT$9from_iter17h7d3ab02641c997a0E', symObjAddr: 0x878, symBinAddr: 0x3D274, symSize: 0x248 }
  - { offset: 0xB0AC0, size: 0x8, addend: 0x0, symName: '__ZN111_$LT$alloc..vec..Vec$LT$T$GT$$u20$as$u20$alloc..vec..spec_from_iter_nested..SpecFromIterNested$LT$T$C$I$GT$$GT$9from_iter17h7eb603893c217b13E', symObjAddr: 0xAC0, symBinAddr: 0x3D4BC, symSize: 0x248 }
  - { offset: 0xB0D7A, size: 0x8, addend: 0x0, symName: '__ZN111_$LT$alloc..vec..Vec$LT$T$GT$$u20$as$u20$alloc..vec..spec_from_iter_nested..SpecFromIterNested$LT$T$C$I$GT$$GT$9from_iter17h86088edab43c752bE', symObjAddr: 0xD08, symBinAddr: 0x3D704, symSize: 0x270 }
  - { offset: 0xB103A, size: 0x8, addend: 0x0, symName: '__ZN111_$LT$alloc..vec..Vec$LT$T$GT$$u20$as$u20$alloc..vec..spec_from_iter_nested..SpecFromIterNested$LT$T$C$I$GT$$GT$9from_iter17h51c3ff9c8e017804E', symObjAddr: 0x4A8, symBinAddr: 0x3CEA4, symSize: 0x164 }
  - { offset: 0xB1110, size: 0x8, addend: 0x0, symName: '__ZN111_$LT$alloc..vec..Vec$LT$T$GT$$u20$as$u20$alloc..vec..spec_from_iter_nested..SpecFromIterNested$LT$T$C$I$GT$$GT$9from_iter17h93ab8ed26ab0b889E', symObjAddr: 0xF78, symBinAddr: 0x3D974, symSize: 0x184 }
  - { offset: 0xB11E7, size: 0x8, addend: 0x0, symName: '__ZN111_$LT$alloc..vec..Vec$LT$T$GT$$u20$as$u20$alloc..vec..spec_from_iter_nested..SpecFromIterNested$LT$T$C$I$GT$$GT$9from_iter17hb2c60372fcc26970E', symObjAddr: 0x10FC, symBinAddr: 0x3DAF8, symSize: 0x164 }
  - { offset: 0xB12BD, size: 0x8, addend: 0x0, symName: '__ZN111_$LT$alloc..vec..Vec$LT$T$GT$$u20$as$u20$alloc..vec..spec_from_iter_nested..SpecFromIterNested$LT$T$C$I$GT$$GT$9from_iter17hb49bbfbf6e46830eE', symObjAddr: 0x1260, symBinAddr: 0x3DC5C, symSize: 0x164 }
  - { offset: 0xB1393, size: 0x8, addend: 0x0, symName: '__ZN111_$LT$alloc..vec..Vec$LT$T$GT$$u20$as$u20$alloc..vec..spec_from_iter_nested..SpecFromIterNested$LT$T$C$I$GT$$GT$9from_iter17hba8c4e3845a0de48E', symObjAddr: 0x13C4, symBinAddr: 0x3DDC0, symSize: 0x164 }
  - { offset: 0xB146A, size: 0x8, addend: 0x0, symName: '__ZN111_$LT$alloc..vec..Vec$LT$T$GT$$u20$as$u20$alloc..vec..spec_from_iter_nested..SpecFromIterNested$LT$T$C$I$GT$$GT$9from_iter17hbab91230894acdfbE', symObjAddr: 0x1528, symBinAddr: 0x3DF24, symSize: 0x160 }
  - { offset: 0xB1540, size: 0x8, addend: 0x0, symName: '__ZN111_$LT$alloc..vec..Vec$LT$T$GT$$u20$as$u20$alloc..vec..spec_from_iter_nested..SpecFromIterNested$LT$T$C$I$GT$$GT$9from_iter17hc5e87fdf8b022325E', symObjAddr: 0x1688, symBinAddr: 0x3E084, symSize: 0x178 }
  - { offset: 0xB1618, size: 0x8, addend: 0x0, symName: '__ZN111_$LT$alloc..vec..Vec$LT$T$GT$$u20$as$u20$alloc..vec..spec_from_iter_nested..SpecFromIterNested$LT$T$C$I$GT$$GT$9from_iter17hca9f41089c3464f9E', symObjAddr: 0x1800, symBinAddr: 0x3E1FC, symSize: 0x17C }
  - { offset: 0xB16F0, size: 0x8, addend: 0x0, symName: '__ZN111_$LT$alloc..vec..Vec$LT$T$GT$$u20$as$u20$alloc..vec..spec_from_iter_nested..SpecFromIterNested$LT$T$C$I$GT$$GT$9from_iter17hce2d673374f73fd9E', symObjAddr: 0x197C, symBinAddr: 0x3E378, symSize: 0x160 }
  - { offset: 0xB3CDD, size: 0x8, addend: 0x0, symName: '__ZN5alloc3vec16Vec$LT$T$C$A$GT$14extend_trusted28_$u7b$$u7b$closure$u7d$$u7d$17h0151d2c2f831aca6E', symObjAddr: 0x2ED4, symBinAddr: 0x3F8D0, symSize: 0x30 }
  - { offset: 0xB3D85, size: 0x8, addend: 0x0, symName: '__ZN5alloc3vec16Vec$LT$T$C$A$GT$14extend_trusted28_$u7b$$u7b$closure$u7d$$u7d$17h1feae8141402a8dfE', symObjAddr: 0x2F04, symBinAddr: 0x3F900, symSize: 0x44 }
  - { offset: 0xB3E32, size: 0x8, addend: 0x0, symName: '__ZN5alloc3vec16Vec$LT$T$C$A$GT$14extend_trusted28_$u7b$$u7b$closure$u7d$$u7d$17h2dc7cb1f7ab2a944E', symObjAddr: 0x2F48, symBinAddr: 0x3F944, symSize: 0x30 }
  - { offset: 0xB3EDA, size: 0x8, addend: 0x0, symName: '__ZN5alloc3vec16Vec$LT$T$C$A$GT$14extend_trusted28_$u7b$$u7b$closure$u7d$$u7d$17h55a698bcff540ef6E', symObjAddr: 0x2F78, symBinAddr: 0x3F974, symSize: 0x44 }
  - { offset: 0xB3F87, size: 0x8, addend: 0x0, symName: '__ZN5alloc3vec16Vec$LT$T$C$A$GT$14extend_trusted28_$u7b$$u7b$closure$u7d$$u7d$17h5fe486c55a01309fE', symObjAddr: 0x2FBC, symBinAddr: 0x3F9B8, symSize: 0x44 }
  - { offset: 0xB4034, size: 0x8, addend: 0x0, symName: '__ZN5alloc3vec16Vec$LT$T$C$A$GT$14extend_trusted28_$u7b$$u7b$closure$u7d$$u7d$17h68484595dcffc57fE', symObjAddr: 0x3000, symBinAddr: 0x3F9FC, symSize: 0x30 }
  - { offset: 0xB40DC, size: 0x8, addend: 0x0, symName: '__ZN5alloc3vec16Vec$LT$T$C$A$GT$14extend_trusted28_$u7b$$u7b$closure$u7d$$u7d$17h72aea1b7ec15990dE', symObjAddr: 0x3030, symBinAddr: 0x3FA2C, symSize: 0x3C }
  - { offset: 0xB4199, size: 0x8, addend: 0x0, symName: '__ZN5alloc3vec16Vec$LT$T$C$A$GT$14extend_trusted28_$u7b$$u7b$closure$u7d$$u7d$17h7bcd23749c015969E', symObjAddr: 0x306C, symBinAddr: 0x3FA68, symSize: 0x54 }
  - { offset: 0xB4257, size: 0x8, addend: 0x0, symName: '__ZN5alloc3vec16Vec$LT$T$C$A$GT$14extend_trusted28_$u7b$$u7b$closure$u7d$$u7d$17hc4c29f63adc6535aE', symObjAddr: 0x30C0, symBinAddr: 0x3FABC, symSize: 0x30 }
  - { offset: 0xB4564, size: 0x8, addend: 0x0, symName: '__ZN5alloc3vec16in_place_collect108_$LT$impl$u20$alloc..vec..spec_from_iter..SpecFromIter$LT$T$C$I$GT$$u20$for$u20$alloc..vec..Vec$LT$T$GT$$GT$9from_iter17hea15ee6a6e529092E', symObjAddr: 0x5B5C, symBinAddr: 0x42558, symSize: 0x28 }
  - { offset: 0xB45C0, size: 0x8, addend: 0x0, symName: '__ZN5alloc3vec16in_place_collect108_$LT$impl$u20$alloc..vec..spec_from_iter..SpecFromIter$LT$T$C$I$GT$$u20$for$u20$alloc..vec..Vec$LT$T$GT$$GT$9from_iter17hf17a74918f79575cE', symObjAddr: 0x5B84, symBinAddr: 0x42580, symSize: 0x28 }
  - { offset: 0xB461E, size: 0x8, addend: 0x0, symName: __ZN5alloc3vec9from_elem17h5a0bf0826c407540E, symObjAddr: 0x5BAC, symBinAddr: 0x425A8, symSize: 0x20 }
  - { offset: 0xB47BA, size: 0x8, addend: 0x0, symName: '__ZN72_$LT$alloc..vec..Vec$LT$T$C$A$GT$$u20$as$u20$core..ops..deref..Deref$GT$5deref17h0503c148cf3c4130E', symObjAddr: 0x6008, symBinAddr: 0x42A04, symSize: 0x24 }
  - { offset: 0xB47FA, size: 0x8, addend: 0x0, symName: '__ZN72_$LT$alloc..vec..Vec$LT$T$C$A$GT$$u20$as$u20$core..ops..deref..Deref$GT$5deref17h5ceccc0b126bda3dE', symObjAddr: 0x602C, symBinAddr: 0x42A28, symSize: 0x24 }
  - { offset: 0xB483A, size: 0x8, addend: 0x0, symName: '__ZN72_$LT$alloc..vec..Vec$LT$T$C$A$GT$$u20$as$u20$core..ops..deref..Deref$GT$5deref17h6b0846675c862316E', symObjAddr: 0x6050, symBinAddr: 0x42A4C, symSize: 0x24 }
  - { offset: 0xB487A, size: 0x8, addend: 0x0, symName: '__ZN72_$LT$alloc..vec..Vec$LT$T$C$A$GT$$u20$as$u20$core..ops..deref..Deref$GT$5deref17h7420bf73a545adf6E', symObjAddr: 0x6074, symBinAddr: 0x42A70, symSize: 0x24 }
  - { offset: 0xB48BA, size: 0x8, addend: 0x0, symName: '__ZN72_$LT$alloc..vec..Vec$LT$T$C$A$GT$$u20$as$u20$core..ops..deref..Deref$GT$5deref17h7cd42340f106a976E', symObjAddr: 0x6098, symBinAddr: 0x42A94, symSize: 0x24 }
  - { offset: 0xB48FA, size: 0x8, addend: 0x0, symName: '__ZN72_$LT$alloc..vec..Vec$LT$T$C$A$GT$$u20$as$u20$core..ops..deref..Deref$GT$5deref17h855a529f127354b8E', symObjAddr: 0x60BC, symBinAddr: 0x42AB8, symSize: 0x24 }
  - { offset: 0xB493A, size: 0x8, addend: 0x0, symName: '__ZN72_$LT$alloc..vec..Vec$LT$T$C$A$GT$$u20$as$u20$core..ops..deref..Deref$GT$5deref17hf4709c346e388b70E', symObjAddr: 0x60E0, symBinAddr: 0x42ADC, symSize: 0x24 }
  - { offset: 0xB4B90, size: 0x8, addend: 0x0, symName: '__ZN65_$LT$alloc..vec..Vec$LT$T$C$A$GT$$u20$as$u20$core..fmt..Debug$GT$3fmt17h18f3bd53a21d1816E', symObjAddr: 0x5BCC, symBinAddr: 0x425C8, symSize: 0x7C }
  - { offset: 0xB4CA0, size: 0x8, addend: 0x0, symName: '__ZN65_$LT$alloc..vec..Vec$LT$T$C$A$GT$$u20$as$u20$core..fmt..Debug$GT$3fmt17h7d3bc05aac04fbbcE', symObjAddr: 0x5C48, symBinAddr: 0x42644, symSize: 0x7C }
  - { offset: 0xB4DB0, size: 0x8, addend: 0x0, symName: '__ZN65_$LT$alloc..vec..Vec$LT$T$C$A$GT$$u20$as$u20$core..fmt..Debug$GT$3fmt17ha44b5f06f3c9d69dE', symObjAddr: 0x5CC4, symBinAddr: 0x426C0, symSize: 0x7C }
  - { offset: 0xB4FCC, size: 0x8, addend: 0x0, symName: '__ZN65_$LT$alloc..vec..Vec$LT$T$C$A$GT$$u20$as$u20$core..hash..Hash$GT$4hash17h348e7225b9a9bb32E', symObjAddr: 0x5D40, symBinAddr: 0x4273C, symSize: 0x90 }
  - { offset: 0xB5150, size: 0x8, addend: 0x0, symName: '__ZN67_$LT$alloc..vec..Vec$LT$T$C$A$GT$$u20$as$u20$core..clone..Clone$GT$5clone17h14fa4462e32e0b55E', symObjAddr: 0x5DD0, symBinAddr: 0x427CC, symSize: 0x90 }
  - { offset: 0xB5321, size: 0x8, addend: 0x0, symName: '__ZN67_$LT$alloc..vec..Vec$LT$T$C$A$GT$$u20$as$u20$core..clone..Clone$GT$5clone17h29601cb94cc974f2E', symObjAddr: 0x5E60, symBinAddr: 0x4285C, symSize: 0x8C }
  - { offset: 0xB54F2, size: 0x8, addend: 0x0, symName: '__ZN67_$LT$alloc..vec..Vec$LT$T$C$A$GT$$u20$as$u20$core..clone..Clone$GT$5clone17h7c89f71a2475f2fcE', symObjAddr: 0x5EEC, symBinAddr: 0x428E8, symSize: 0x90 }
  - { offset: 0xB56C9, size: 0x8, addend: 0x0, symName: '__ZN67_$LT$alloc..vec..Vec$LT$T$GT$$u20$as$u20$core..default..Default$GT$7default17h03b230deb4b1280bE', symObjAddr: 0x5F7C, symBinAddr: 0x42978, symSize: 0x14 }
  - { offset: 0xB56EB, size: 0x8, addend: 0x0, symName: '__ZN67_$LT$alloc..vec..Vec$LT$T$GT$$u20$as$u20$core..default..Default$GT$7default17h03b230deb4b1280bE', symObjAddr: 0x5F7C, symBinAddr: 0x42978, symSize: 0x14 }
  - { offset: 0xB5706, size: 0x8, addend: 0x0, symName: '__ZN67_$LT$alloc..vec..Vec$LT$T$GT$$u20$as$u20$core..default..Default$GT$7default17h3ce3a38012f39d4fE', symObjAddr: 0x5F90, symBinAddr: 0x4298C, symSize: 0x14 }
  - { offset: 0xB5728, size: 0x8, addend: 0x0, symName: '__ZN67_$LT$alloc..vec..Vec$LT$T$GT$$u20$as$u20$core..default..Default$GT$7default17h3ce3a38012f39d4fE', symObjAddr: 0x5F90, symBinAddr: 0x4298C, symSize: 0x14 }
  - { offset: 0xB5743, size: 0x8, addend: 0x0, symName: '__ZN67_$LT$alloc..vec..Vec$LT$T$GT$$u20$as$u20$core..default..Default$GT$7default17h8328e8230c0e2086E', symObjAddr: 0x5FA4, symBinAddr: 0x429A0, symSize: 0x14 }
  - { offset: 0xB5765, size: 0x8, addend: 0x0, symName: '__ZN67_$LT$alloc..vec..Vec$LT$T$GT$$u20$as$u20$core..default..Default$GT$7default17h8328e8230c0e2086E', symObjAddr: 0x5FA4, symBinAddr: 0x429A0, symSize: 0x14 }
  - { offset: 0xB5780, size: 0x8, addend: 0x0, symName: '__ZN67_$LT$alloc..vec..Vec$LT$T$GT$$u20$as$u20$core..default..Default$GT$7default17hf48502d40ff1f6a4E', symObjAddr: 0x5FB8, symBinAddr: 0x429B4, symSize: 0x14 }
  - { offset: 0xB57A2, size: 0x8, addend: 0x0, symName: '__ZN67_$LT$alloc..vec..Vec$LT$T$GT$$u20$as$u20$core..default..Default$GT$7default17hf48502d40ff1f6a4E', symObjAddr: 0x5FB8, symBinAddr: 0x429B4, symSize: 0x14 }
  - { offset: 0xB57BD, size: 0x8, addend: 0x0, symName: '__ZN67_$LT$alloc..vec..Vec$LT$T$GT$$u20$as$u20$core..default..Default$GT$7default17hff34c0bd6025f187E', symObjAddr: 0x5FCC, symBinAddr: 0x429C8, symSize: 0x14 }
  - { offset: 0xB57DF, size: 0x8, addend: 0x0, symName: '__ZN67_$LT$alloc..vec..Vec$LT$T$GT$$u20$as$u20$core..default..Default$GT$7default17hff34c0bd6025f187E', symObjAddr: 0x5FCC, symBinAddr: 0x429C8, symSize: 0x14 }
  - { offset: 0xB589D, size: 0x8, addend: 0x0, symName: '__ZN81_$LT$alloc..vec..Vec$LT$T$C$A$GT$$u20$as$u20$core..ops..index..Index$LT$I$GT$$GT$5index17h46205592fc83e517E', symObjAddr: 0x6104, symBinAddr: 0x42B00, symSize: 0xE8 }
  - { offset: 0xB5AA0, size: 0x8, addend: 0x0, symName: '__ZN81_$LT$alloc..vec..Vec$LT$T$C$A$GT$$u20$as$u20$core..ops..index..Index$LT$I$GT$$GT$5index17h94c6d9a51dac95b1E', symObjAddr: 0x61EC, symBinAddr: 0x42BE8, symSize: 0x7C }
  - { offset: 0xB5C22, size: 0x8, addend: 0x0, symName: '__ZN81_$LT$alloc..vec..Vec$LT$T$C$A$GT$$u20$as$u20$core..ops..index..Index$LT$I$GT$$GT$5index17hb61b01ac267dfabeE', symObjAddr: 0x6268, symBinAddr: 0x42C64, symSize: 0x88 }
  - { offset: 0xB5DA4, size: 0x8, addend: 0x0, symName: '__ZN81_$LT$alloc..vec..Vec$LT$T$C$A$GT$$u20$as$u20$core..ops..index..Index$LT$I$GT$$GT$5index17hc3d36f2372ce0b4aE', symObjAddr: 0x62F0, symBinAddr: 0x42CEC, symSize: 0x88 }
  - { offset: 0xB5F26, size: 0x8, addend: 0x0, symName: '__ZN81_$LT$alloc..vec..Vec$LT$T$C$A$GT$$u20$as$u20$core..ops..index..Index$LT$I$GT$$GT$5index17hc8671974658074fcE', symObjAddr: 0x6378, symBinAddr: 0x42D74, symSize: 0x88 }
  - { offset: 0xB6144, size: 0x8, addend: 0x0, symName: '__ZN84_$LT$alloc..vec..Vec$LT$T$C$A$GT$$u20$as$u20$core..ops..index..IndexMut$LT$I$GT$$GT$9index_mut17h7babc458cd26b86fE', symObjAddr: 0x6400, symBinAddr: 0x42DFC, symSize: 0x88 }
  - { offset: 0xB6298, size: 0x8, addend: 0x0, symName: '__ZN84_$LT$alloc..vec..Vec$LT$T$C$A$GT$$u20$as$u20$core..ops..index..IndexMut$LT$I$GT$$GT$9index_mut17hb9c97c4286ba611cE', symObjAddr: 0x6488, symBinAddr: 0x42E84, symSize: 0x8C }
  - { offset: 0xB63EC, size: 0x8, addend: 0x0, symName: '__ZN84_$LT$alloc..vec..Vec$LT$T$C$A$GT$$u20$as$u20$core..ops..index..IndexMut$LT$I$GT$$GT$9index_mut17he556e7456d5e66d2E', symObjAddr: 0x6514, symBinAddr: 0x42F10, symSize: 0x8C }
  - { offset: 0xB6546, size: 0x8, addend: 0x0, symName: '__ZN90_$LT$alloc..vec..Vec$LT$T$C$A$GT$$u20$as$u20$core..iter..traits..collect..IntoIterator$GT$9into_iter17h248d788d2db64e49E', symObjAddr: 0x65A0, symBinAddr: 0x42F9C, symSize: 0xDC }
  - { offset: 0xB67D8, size: 0x8, addend: 0x0, symName: '__ZN90_$LT$alloc..vec..Vec$LT$T$C$A$GT$$u20$as$u20$core..iter..traits..collect..IntoIterator$GT$9into_iter17h260885fd0e34f7d7E', symObjAddr: 0x667C, symBinAddr: 0x43078, symSize: 0xE4 }
  - { offset: 0xB6A6A, size: 0x8, addend: 0x0, symName: '__ZN90_$LT$alloc..vec..Vec$LT$T$C$A$GT$$u20$as$u20$core..iter..traits..collect..IntoIterator$GT$9into_iter17h28a1d408751c851eE', symObjAddr: 0x6760, symBinAddr: 0x4315C, symSize: 0xDC }
  - { offset: 0xB6CFC, size: 0x8, addend: 0x0, symName: '__ZN90_$LT$alloc..vec..Vec$LT$T$C$A$GT$$u20$as$u20$core..iter..traits..collect..IntoIterator$GT$9into_iter17h540c343e2c5ea3bbE', symObjAddr: 0x683C, symBinAddr: 0x43238, symSize: 0xE4 }
  - { offset: 0xB6F8E, size: 0x8, addend: 0x0, symName: '__ZN90_$LT$alloc..vec..Vec$LT$T$C$A$GT$$u20$as$u20$core..iter..traits..collect..IntoIterator$GT$9into_iter17ha17cd0de690f0418E', symObjAddr: 0x6920, symBinAddr: 0x4331C, symSize: 0xE4 }
  - { offset: 0xB7220, size: 0x8, addend: 0x0, symName: '__ZN90_$LT$alloc..vec..Vec$LT$T$C$A$GT$$u20$as$u20$core..iter..traits..collect..IntoIterator$GT$9into_iter17hb528f208e295dd3eE', symObjAddr: 0x6A04, symBinAddr: 0x43400, symSize: 0xE4 }
  - { offset: 0xB756E, size: 0x8, addend: 0x0, symName: '__ZN94_$LT$$RF$alloc..vec..Vec$LT$T$C$A$GT$$u20$as$u20$core..iter..traits..collect..IntoIterator$GT$9into_iter17h0afafbe346df61d4E', symObjAddr: 0x6AE8, symBinAddr: 0x434E4, symSize: 0x98 }
  - { offset: 0xB779B, size: 0x8, addend: 0x0, symName: '__ZN94_$LT$$RF$alloc..vec..Vec$LT$T$C$A$GT$$u20$as$u20$core..iter..traits..collect..IntoIterator$GT$9into_iter17h0ede58704528e8e0E', symObjAddr: 0x6B80, symBinAddr: 0x4357C, symSize: 0x98 }
  - { offset: 0xB79C8, size: 0x8, addend: 0x0, symName: '__ZN94_$LT$$RF$alloc..vec..Vec$LT$T$C$A$GT$$u20$as$u20$core..iter..traits..collect..IntoIterator$GT$9into_iter17h1843562df3190273E', symObjAddr: 0x6C18, symBinAddr: 0x43614, symSize: 0x9C }
  - { offset: 0xB7BF5, size: 0x8, addend: 0x0, symName: '__ZN94_$LT$$RF$alloc..vec..Vec$LT$T$C$A$GT$$u20$as$u20$core..iter..traits..collect..IntoIterator$GT$9into_iter17h51a580754efe364bE', symObjAddr: 0x6CB4, symBinAddr: 0x436B0, symSize: 0xA4 }
  - { offset: 0xB7E22, size: 0x8, addend: 0x0, symName: '__ZN94_$LT$$RF$alloc..vec..Vec$LT$T$C$A$GT$$u20$as$u20$core..iter..traits..collect..IntoIterator$GT$9into_iter17hb4117496e25fbb39E', symObjAddr: 0x6D58, symBinAddr: 0x43754, symSize: 0x98 }
  - { offset: 0xB804F, size: 0x8, addend: 0x0, symName: '__ZN94_$LT$$RF$alloc..vec..Vec$LT$T$C$A$GT$$u20$as$u20$core..iter..traits..collect..IntoIterator$GT$9into_iter17hf698d69f4d162351E', symObjAddr: 0x6DF0, symBinAddr: 0x437EC, symSize: 0x98 }
  - { offset: 0xB8282, size: 0x8, addend: 0x0, symName: '__ZN95_$LT$alloc..vec..Vec$LT$T$GT$$u20$as$u20$core..iter..traits..collect..FromIterator$LT$T$GT$$GT$9from_iter17h0a35f32aab868065E', symObjAddr: 0x6E88, symBinAddr: 0x43884, symSize: 0x3C }
  - { offset: 0xB82C3, size: 0x8, addend: 0x0, symName: '__ZN95_$LT$alloc..vec..Vec$LT$T$GT$$u20$as$u20$core..iter..traits..collect..FromIterator$LT$T$GT$$GT$9from_iter17h3b486f52f72cae77E', symObjAddr: 0x6EC4, symBinAddr: 0x438C0, symSize: 0x40 }
  - { offset: 0xB8303, size: 0x8, addend: 0x0, symName: '__ZN95_$LT$alloc..vec..Vec$LT$T$GT$$u20$as$u20$core..iter..traits..collect..FromIterator$LT$T$GT$$GT$9from_iter17h53557779ad029729E', symObjAddr: 0x6F04, symBinAddr: 0x43900, symSize: 0x3C }
  - { offset: 0xB8344, size: 0x8, addend: 0x0, symName: '__ZN95_$LT$alloc..vec..Vec$LT$T$GT$$u20$as$u20$core..iter..traits..collect..FromIterator$LT$T$GT$$GT$9from_iter17h57a7b0e420c9d879E', symObjAddr: 0x6F40, symBinAddr: 0x4393C, symSize: 0x3C }
  - { offset: 0xB8385, size: 0x8, addend: 0x0, symName: '__ZN95_$LT$alloc..vec..Vec$LT$T$GT$$u20$as$u20$core..iter..traits..collect..FromIterator$LT$T$GT$$GT$9from_iter17h5a47487d77b3e75fE', symObjAddr: 0x6F7C, symBinAddr: 0x43978, symSize: 0x40 }
  - { offset: 0xB83C5, size: 0x8, addend: 0x0, symName: '__ZN95_$LT$alloc..vec..Vec$LT$T$GT$$u20$as$u20$core..iter..traits..collect..FromIterator$LT$T$GT$$GT$9from_iter17h5e68a809bcc655d9E', symObjAddr: 0x6FBC, symBinAddr: 0x439B8, symSize: 0x3C }
  - { offset: 0xB8406, size: 0x8, addend: 0x0, symName: '__ZN95_$LT$alloc..vec..Vec$LT$T$GT$$u20$as$u20$core..iter..traits..collect..FromIterator$LT$T$GT$$GT$9from_iter17h63c99715f66d8447E', symObjAddr: 0x6FF8, symBinAddr: 0x439F4, symSize: 0x3C }
  - { offset: 0xB8447, size: 0x8, addend: 0x0, symName: '__ZN95_$LT$alloc..vec..Vec$LT$T$GT$$u20$as$u20$core..iter..traits..collect..FromIterator$LT$T$GT$$GT$9from_iter17h9761a4cdb5768762E', symObjAddr: 0x7034, symBinAddr: 0x43A30, symSize: 0x40 }
  - { offset: 0xB8487, size: 0x8, addend: 0x0, symName: '__ZN95_$LT$alloc..vec..Vec$LT$T$GT$$u20$as$u20$core..iter..traits..collect..FromIterator$LT$T$GT$$GT$9from_iter17h9cc9f2c86812224aE', symObjAddr: 0x7074, symBinAddr: 0x43A70, symSize: 0x3C }
  - { offset: 0xB84C8, size: 0x8, addend: 0x0, symName: '__ZN95_$LT$alloc..vec..Vec$LT$T$GT$$u20$as$u20$core..iter..traits..collect..FromIterator$LT$T$GT$$GT$9from_iter17hae806d432b460891E', symObjAddr: 0x70B0, symBinAddr: 0x43AAC, symSize: 0x3C }
  - { offset: 0xB8509, size: 0x8, addend: 0x0, symName: '__ZN95_$LT$alloc..vec..Vec$LT$T$GT$$u20$as$u20$core..iter..traits..collect..FromIterator$LT$T$GT$$GT$9from_iter17hb31c894d2666c640E', symObjAddr: 0x70EC, symBinAddr: 0x43AE8, symSize: 0x3C }
  - { offset: 0xB854A, size: 0x8, addend: 0x0, symName: '__ZN95_$LT$alloc..vec..Vec$LT$T$GT$$u20$as$u20$core..iter..traits..collect..FromIterator$LT$T$GT$$GT$9from_iter17hb920908a1cbdd4e9E', symObjAddr: 0x7128, symBinAddr: 0x43B24, symSize: 0x3C }
  - { offset: 0xB858B, size: 0x8, addend: 0x0, symName: '__ZN95_$LT$alloc..vec..Vec$LT$T$GT$$u20$as$u20$core..iter..traits..collect..FromIterator$LT$T$GT$$GT$9from_iter17hc44f158846b6a733E', symObjAddr: 0x7164, symBinAddr: 0x43B60, symSize: 0x40 }
  - { offset: 0xB85CB, size: 0x8, addend: 0x0, symName: '__ZN95_$LT$alloc..vec..Vec$LT$T$GT$$u20$as$u20$core..iter..traits..collect..FromIterator$LT$T$GT$$GT$9from_iter17hd13b044d5bca386aE', symObjAddr: 0x71A4, symBinAddr: 0x43BA0, symSize: 0x3C }
  - { offset: 0xB860C, size: 0x8, addend: 0x0, symName: '__ZN95_$LT$alloc..vec..Vec$LT$T$GT$$u20$as$u20$core..iter..traits..collect..FromIterator$LT$T$GT$$GT$9from_iter17hea3ce682b3f598d9E', symObjAddr: 0x71E0, symBinAddr: 0x43BDC, symSize: 0x40 }
  - { offset: 0xB864C, size: 0x8, addend: 0x0, symName: '__ZN95_$LT$alloc..vec..Vec$LT$T$GT$$u20$as$u20$core..iter..traits..collect..FromIterator$LT$T$GT$$GT$9from_iter17hea5f198039d8a718E', symObjAddr: 0x7220, symBinAddr: 0x43C1C, symSize: 0x3C }
  - { offset: 0xB8698, size: 0x8, addend: 0x0, symName: '__ZN97_$LT$alloc..vec..Vec$LT$T$C$A$GT$$u20$as$u20$alloc..vec..spec_extend..SpecExtend$LT$T$C$I$GT$$GT$11spec_extend17h1c60aaf339443d4aE', symObjAddr: 0x725C, symBinAddr: 0x43C58, symSize: 0x34 }
  - { offset: 0xB86E9, size: 0x8, addend: 0x0, symName: '__ZN97_$LT$alloc..vec..Vec$LT$T$C$A$GT$$u20$as$u20$alloc..vec..spec_extend..SpecExtend$LT$T$C$I$GT$$GT$11spec_extend17h487d101b211d9a6dE', symObjAddr: 0x72D8, symBinAddr: 0x43CD4, symSize: 0x24 }
  - { offset: 0xB873B, size: 0x8, addend: 0x0, symName: '__ZN97_$LT$alloc..vec..Vec$LT$T$C$A$GT$$u20$as$u20$alloc..vec..spec_extend..SpecExtend$LT$T$C$I$GT$$GT$11spec_extend17h986d6afd3d60d7f0E', symObjAddr: 0x7320, symBinAddr: 0x43D1C, symSize: 0x34 }
  - { offset: 0xB878C, size: 0x8, addend: 0x0, symName: '__ZN97_$LT$alloc..vec..Vec$LT$T$C$A$GT$$u20$as$u20$alloc..vec..spec_extend..SpecExtend$LT$T$C$I$GT$$GT$11spec_extend17ha05baa8235a5a720E', symObjAddr: 0x7354, symBinAddr: 0x43D50, symSize: 0x24 }
  - { offset: 0xB87DE, size: 0x8, addend: 0x0, symName: '__ZN97_$LT$alloc..vec..Vec$LT$T$C$A$GT$$u20$as$u20$alloc..vec..spec_extend..SpecExtend$LT$T$C$I$GT$$GT$11spec_extend17hb2ba64751d278e48E', symObjAddr: 0x739C, symBinAddr: 0x43D98, symSize: 0x34 }
  - { offset: 0xB882F, size: 0x8, addend: 0x0, symName: '__ZN97_$LT$alloc..vec..Vec$LT$T$C$A$GT$$u20$as$u20$alloc..vec..spec_extend..SpecExtend$LT$T$C$I$GT$$GT$11spec_extend17hd5a19ad37e3d56c6E', symObjAddr: 0x73D0, symBinAddr: 0x43DCC, symSize: 0x34 }
  - { offset: 0xB8880, size: 0x8, addend: 0x0, symName: '__ZN97_$LT$alloc..vec..Vec$LT$T$C$A$GT$$u20$as$u20$alloc..vec..spec_extend..SpecExtend$LT$T$C$I$GT$$GT$11spec_extend17hd897de84aa86c47bE', symObjAddr: 0x7404, symBinAddr: 0x43E00, symSize: 0x24 }
  - { offset: 0xB88D2, size: 0x8, addend: 0x0, symName: '__ZN97_$LT$alloc..vec..Vec$LT$T$C$A$GT$$u20$as$u20$alloc..vec..spec_extend..SpecExtend$LT$T$C$I$GT$$GT$11spec_extend17hf9edd2e04f42449dE', symObjAddr: 0x744C, symBinAddr: 0x43E48, symSize: 0x24 }
  - { offset: 0xB8924, size: 0x8, addend: 0x0, symName: '__ZN97_$LT$alloc..vec..Vec$LT$T$C$A$GT$$u20$as$u20$alloc..vec..spec_extend..SpecExtend$LT$T$C$I$GT$$GT$11spec_extend17hfb86ef5b3a39d65fE', symObjAddr: 0x7494, symBinAddr: 0x43E90, symSize: 0x34 }
  - { offset: 0xB897B, size: 0x8, addend: 0x0, symName: '__ZN97_$LT$alloc..vec..Vec$LT$T$C$A$GT$$u20$as$u20$alloc..vec..spec_extend..SpecExtend$LT$T$C$I$GT$$GT$11spec_extend17h3190278ca94df003E', symObjAddr: 0x7290, symBinAddr: 0x43C8C, symSize: 0x24 }
  - { offset: 0xB89CD, size: 0x8, addend: 0x0, symName: '__ZN97_$LT$alloc..vec..Vec$LT$T$C$A$GT$$u20$as$u20$alloc..vec..spec_extend..SpecExtend$LT$T$C$I$GT$$GT$11spec_extend17h34e3b561c8cd6997E', symObjAddr: 0x72B4, symBinAddr: 0x43CB0, symSize: 0x24 }
  - { offset: 0xB8A1F, size: 0x8, addend: 0x0, symName: '__ZN97_$LT$alloc..vec..Vec$LT$T$C$A$GT$$u20$as$u20$alloc..vec..spec_extend..SpecExtend$LT$T$C$I$GT$$GT$11spec_extend17h7315f3cab69d8252E', symObjAddr: 0x72FC, symBinAddr: 0x43CF8, symSize: 0x24 }
  - { offset: 0xB8A71, size: 0x8, addend: 0x0, symName: '__ZN97_$LT$alloc..vec..Vec$LT$T$C$A$GT$$u20$as$u20$alloc..vec..spec_extend..SpecExtend$LT$T$C$I$GT$$GT$11spec_extend17hb0f73866a8920550E', symObjAddr: 0x7378, symBinAddr: 0x43D74, symSize: 0x24 }
  - { offset: 0xB8AC3, size: 0x8, addend: 0x0, symName: '__ZN97_$LT$alloc..vec..Vec$LT$T$C$A$GT$$u20$as$u20$alloc..vec..spec_extend..SpecExtend$LT$T$C$I$GT$$GT$11spec_extend17hdef9c50e96a2e287E', symObjAddr: 0x7428, symBinAddr: 0x43E24, symSize: 0x24 }
  - { offset: 0xB8B15, size: 0x8, addend: 0x0, symName: '__ZN97_$LT$alloc..vec..Vec$LT$T$C$A$GT$$u20$as$u20$alloc..vec..spec_extend..SpecExtend$LT$T$C$I$GT$$GT$11spec_extend17hfa5a2aae61d22feeE', symObjAddr: 0x7470, symBinAddr: 0x43E6C, symSize: 0x24 }
  - { offset: 0xB8B73, size: 0x8, addend: 0x0, symName: '__ZN98_$LT$alloc..vec..Vec$LT$T$GT$$u20$as$u20$alloc..vec..spec_from_iter..SpecFromIter$LT$T$C$I$GT$$GT$9from_iter17h0a6d56ddf972a036E', symObjAddr: 0x74C8, symBinAddr: 0x43EC4, symSize: 0x2C }
  - { offset: 0xB8BB1, size: 0x8, addend: 0x0, symName: '__ZN98_$LT$alloc..vec..Vec$LT$T$GT$$u20$as$u20$alloc..vec..spec_from_iter..SpecFromIter$LT$T$C$I$GT$$GT$9from_iter17h646cfaadb2095f5aE', symObjAddr: 0x74F4, symBinAddr: 0x43EF0, symSize: 0x2C }
  - { offset: 0xB8BEF, size: 0x8, addend: 0x0, symName: '__ZN98_$LT$alloc..vec..Vec$LT$T$GT$$u20$as$u20$alloc..vec..spec_from_iter..SpecFromIter$LT$T$C$I$GT$$GT$9from_iter17h66dc74977e719330E', symObjAddr: 0x7520, symBinAddr: 0x43F1C, symSize: 0x2C }
  - { offset: 0xB8C2D, size: 0x8, addend: 0x0, symName: '__ZN98_$LT$alloc..vec..Vec$LT$T$GT$$u20$as$u20$alloc..vec..spec_from_iter..SpecFromIter$LT$T$C$I$GT$$GT$9from_iter17h94131b4d6a78aaf9E', symObjAddr: 0x754C, symBinAddr: 0x43F48, symSize: 0x14 }
  - { offset: 0xB8C6C, size: 0x8, addend: 0x0, symName: '__ZN98_$LT$alloc..vec..Vec$LT$T$GT$$u20$as$u20$alloc..vec..spec_from_iter..SpecFromIter$LT$T$C$I$GT$$GT$9from_iter17h9bca6eea6346298fE', symObjAddr: 0x7560, symBinAddr: 0x43F5C, symSize: 0x2C }
  - { offset: 0xB8CAA, size: 0x8, addend: 0x0, symName: '__ZN98_$LT$alloc..vec..Vec$LT$T$GT$$u20$as$u20$alloc..vec..spec_from_iter..SpecFromIter$LT$T$C$I$GT$$GT$9from_iter17h9bf02d21ff36b23bE', symObjAddr: 0x758C, symBinAddr: 0x43F88, symSize: 0x14 }
  - { offset: 0xB8CE9, size: 0x8, addend: 0x0, symName: '__ZN98_$LT$alloc..vec..Vec$LT$T$GT$$u20$as$u20$alloc..vec..spec_from_iter..SpecFromIter$LT$T$C$I$GT$$GT$9from_iter17h9e544878b262eec2E', symObjAddr: 0x75A0, symBinAddr: 0x43F9C, symSize: 0x2C }
  - { offset: 0xB8D27, size: 0x8, addend: 0x0, symName: '__ZN98_$LT$alloc..vec..Vec$LT$T$GT$$u20$as$u20$alloc..vec..spec_from_iter..SpecFromIter$LT$T$C$I$GT$$GT$9from_iter17ha7d14431d3d5e49aE', symObjAddr: 0x75CC, symBinAddr: 0x43FC8, symSize: 0x14 }
  - { offset: 0xB8D66, size: 0x8, addend: 0x0, symName: '__ZN98_$LT$alloc..vec..Vec$LT$T$GT$$u20$as$u20$alloc..vec..spec_from_iter..SpecFromIter$LT$T$C$I$GT$$GT$9from_iter17hadb470cfa00681dbE', symObjAddr: 0x75E0, symBinAddr: 0x43FDC, symSize: 0x14 }
  - { offset: 0xB8DA5, size: 0x8, addend: 0x0, symName: '__ZN98_$LT$alloc..vec..Vec$LT$T$GT$$u20$as$u20$alloc..vec..spec_from_iter..SpecFromIter$LT$T$C$I$GT$$GT$9from_iter17hd0f7f3a4d1c3a880E', symObjAddr: 0x75F4, symBinAddr: 0x43FF0, symSize: 0x14 }
  - { offset: 0xB8DE4, size: 0x8, addend: 0x0, symName: '__ZN98_$LT$alloc..vec..Vec$LT$T$GT$$u20$as$u20$alloc..vec..spec_from_iter..SpecFromIter$LT$T$C$I$GT$$GT$9from_iter17hdbbf1991a2a95096E', symObjAddr: 0x7608, symBinAddr: 0x44004, symSize: 0x14 }
  - { offset: 0xB8E23, size: 0x8, addend: 0x0, symName: '__ZN98_$LT$alloc..vec..Vec$LT$T$GT$$u20$as$u20$alloc..vec..spec_from_iter..SpecFromIter$LT$T$C$I$GT$$GT$9from_iter17he00e0c448ad84f8fE', symObjAddr: 0x761C, symBinAddr: 0x44018, symSize: 0x14 }
  - { offset: 0xB8E62, size: 0x8, addend: 0x0, symName: '__ZN98_$LT$alloc..vec..Vec$LT$T$GT$$u20$as$u20$alloc..vec..spec_from_iter..SpecFromIter$LT$T$C$I$GT$$GT$9from_iter17he4f6af8cef37db06E', symObjAddr: 0x7630, symBinAddr: 0x4402C, symSize: 0x14 }
  - { offset: 0xB8EA1, size: 0x8, addend: 0x0, symName: '__ZN98_$LT$alloc..vec..Vec$LT$T$GT$$u20$as$u20$alloc..vec..spec_from_iter..SpecFromIter$LT$T$C$I$GT$$GT$9from_iter17heafa5b2726a897a5E', symObjAddr: 0x7644, symBinAddr: 0x44040, symSize: 0x14 }
  - { offset: 0xBB788, size: 0x8, addend: 0x0, symName: '__ZN4pyo35types8sequence85_$LT$impl$u20$pyo3..conversion..FromPyObject$u20$for$u20$alloc..vec..Vec$LT$T$GT$$GT$13extract_bound17h30b293fd1ca5861dE', symObjAddr: 0x1B9C, symBinAddr: 0x3E598, symSize: 0x88 }
  - { offset: 0xBB85B, size: 0x8, addend: 0x0, symName: '__ZN71_$LT$T$u20$as$u20$pyo3..impl_..extract_argument..PyFunctionArgument$GT$7extract17h2a585acfa3592dcfE', symObjAddr: 0x5FE0, symBinAddr: 0x429DC, symSize: 0x28 }
  - { offset: 0xBB8A7, size: 0x8, addend: 0x0, symName: '__ZN57_$LT$T$u20$as$u20$pyo3..conversion..FromPyObjectBound$GT$20from_py_object_bound17hdb696a174dbeff3dE', symObjAddr: 0x1C88, symBinAddr: 0x3E684, symSize: 0x34 }
  - { offset: 0xBCCA4, size: 0x8, addend: 0x0, symName: '__ZN52_$LT$Q$u20$as$u20$hashbrown..Equivalent$LT$K$GT$$GT$10equivalent17h90eba52657e485aeE', symObjAddr: 0x1C38, symBinAddr: 0x3E634, symSize: 0x50 }
  - { offset: 0xBCE60, size: 0x8, addend: 0x0, symName: '__ZN5alloc3vec12Vec$LT$T$GT$13with_capacity17h556f04093a276b32E', symObjAddr: 0x1CBC, symBinAddr: 0x3E6B8, symSize: 0x48 }
  - { offset: 0xBCF3A, size: 0x8, addend: 0x0, symName: '__ZN5alloc3vec12Vec$LT$T$GT$13with_capacity17h69bfc9ad68add344E', symObjAddr: 0x1D04, symBinAddr: 0x3E700, symSize: 0x44 }
  - { offset: 0xBD014, size: 0x8, addend: 0x0, symName: '__ZN5alloc3vec12Vec$LT$T$GT$13with_capacity17h8d966010be56c328E', symObjAddr: 0x1D48, symBinAddr: 0x3E744, symSize: 0x48 }
  - { offset: 0xBD0EE, size: 0x8, addend: 0x0, symName: '__ZN5alloc3vec12Vec$LT$T$GT$13with_capacity17ha00fbca7b41af09fE', symObjAddr: 0x1D90, symBinAddr: 0x3E78C, symSize: 0x44 }
  - { offset: 0xBD1C8, size: 0x8, addend: 0x0, symName: '__ZN5alloc3vec12Vec$LT$T$GT$13with_capacity17ha4660cf8fbf1f06cE', symObjAddr: 0x1DD4, symBinAddr: 0x3E7D0, symSize: 0x44 }
  - { offset: 0xBD2A2, size: 0x8, addend: 0x0, symName: '__ZN5alloc3vec12Vec$LT$T$GT$13with_capacity17hc8cdd90e3b643caeE', symObjAddr: 0x1E18, symBinAddr: 0x3E814, symSize: 0x44 }
  - { offset: 0xBD31A, size: 0x8, addend: 0x0, symName: '__ZN5alloc3vec12Vec$LT$T$GT$3new17h0ba0d11cf3186dccE', symObjAddr: 0x1E5C, symBinAddr: 0x3E858, symSize: 0x14 }
  - { offset: 0xBD337, size: 0x8, addend: 0x0, symName: '__ZN5alloc3vec12Vec$LT$T$GT$3new17h119d10be3620a12cE', symObjAddr: 0x1E70, symBinAddr: 0x3E86C, symSize: 0x14 }
  - { offset: 0xBD354, size: 0x8, addend: 0x0, symName: '__ZN5alloc3vec12Vec$LT$T$GT$3new17h172f03958dc16c9cE', symObjAddr: 0x1E84, symBinAddr: 0x3E880, symSize: 0x14 }
  - { offset: 0xBD38F, size: 0x8, addend: 0x0, symName: '__ZN5alloc3vec12Vec$LT$T$GT$3new17h18107f81f8e0640aE', symObjAddr: 0x1E98, symBinAddr: 0x3E894, symSize: 0x14 }
  - { offset: 0xBD495, size: 0x8, addend: 0x0, symName: '__ZN5alloc3vec12Vec$LT$T$GT$3new17h342ebe9711f6404fE', symObjAddr: 0x1EAC, symBinAddr: 0x3E8A8, symSize: 0x14 }
  - { offset: 0xBD4B2, size: 0x8, addend: 0x0, symName: '__ZN5alloc3vec12Vec$LT$T$GT$3new17h8fcc172e33ce7639E', symObjAddr: 0x1EC0, symBinAddr: 0x3E8BC, symSize: 0x14 }
  - { offset: 0xBD4CF, size: 0x8, addend: 0x0, symName: '__ZN5alloc3vec12Vec$LT$T$GT$3new17h968c802c2aa9a3b9E', symObjAddr: 0x1ED4, symBinAddr: 0x3E8D0, symSize: 0x14 }
  - { offset: 0xBD515, size: 0x8, addend: 0x0, symName: '__ZN5alloc3vec12Vec$LT$T$GT$3new17ha5945c74a8e30279E', symObjAddr: 0x1EE8, symBinAddr: 0x3E8E4, symSize: 0x14 }
  - { offset: 0xBD53F, size: 0x8, addend: 0x0, symName: '__ZN5alloc3vec12Vec$LT$T$GT$3new17hcb3121aafd99ad07E', symObjAddr: 0x1EFC, symBinAddr: 0x3E8F8, symSize: 0x14 }
  - { offset: 0xBD57A, size: 0x8, addend: 0x0, symName: '__ZN5alloc3vec12Vec$LT$T$GT$3new17hf12030b59e23e4b8E', symObjAddr: 0x1F10, symBinAddr: 0x3E90C, symSize: 0x14 }
  - { offset: 0xBD6EF, size: 0x8, addend: 0x0, symName: '__ZN5alloc3vec16Vec$LT$T$C$A$GT$11extend_with17hd02ccfb9b2f5843aE', symObjAddr: 0x1F24, symBinAddr: 0x3E920, symSize: 0x260 }
  - { offset: 0xBDAE1, size: 0x8, addend: 0x0, symName: '__ZN5alloc3vec16Vec$LT$T$C$A$GT$14extend_trusted17h001b805159e8e147E', symObjAddr: 0x2184, symBinAddr: 0x3EB80, symSize: 0x16C }
  - { offset: 0xBDDE4, size: 0x8, addend: 0x0, symName: '__ZN5alloc3vec16Vec$LT$T$C$A$GT$14extend_trusted17h02d2a6ceb2a62b4fE', symObjAddr: 0x22F0, symBinAddr: 0x3ECEC, symSize: 0x16C }
  - { offset: 0xBE101, size: 0x8, addend: 0x0, symName: '__ZN5alloc3vec16Vec$LT$T$C$A$GT$14extend_trusted17h2e7241f419a13cc6E', symObjAddr: 0x245C, symBinAddr: 0x3EE58, symSize: 0x190 }
  - { offset: 0xBE5C7, size: 0x8, addend: 0x0, symName: '__ZN5alloc3vec16Vec$LT$T$C$A$GT$14extend_trusted17h4bc5938c44a9abe9E', symObjAddr: 0x25EC, symBinAddr: 0x3EFE8, symSize: 0x178 }
  - { offset: 0xBE87D, size: 0x8, addend: 0x0, symName: '__ZN5alloc3vec16Vec$LT$T$C$A$GT$14extend_trusted17h67184414bae98e5aE', symObjAddr: 0x2764, symBinAddr: 0x3F160, symSize: 0x16C }
  - { offset: 0xBEB91, size: 0x8, addend: 0x0, symName: '__ZN5alloc3vec16Vec$LT$T$C$A$GT$14extend_trusted17h814c12f820e2efc2E', symObjAddr: 0x28D0, symBinAddr: 0x3F2CC, symSize: 0x19C }
  - { offset: 0xBEE7C, size: 0x8, addend: 0x0, symName: '__ZN5alloc3vec16Vec$LT$T$C$A$GT$14extend_trusted17hb6c55d1b3e14d6daE', symObjAddr: 0x2A6C, symBinAddr: 0x3F468, symSize: 0x190 }
  - { offset: 0xBF173, size: 0x8, addend: 0x0, symName: '__ZN5alloc3vec16Vec$LT$T$C$A$GT$14extend_trusted17hb94df978d397feacE', symObjAddr: 0x2BFC, symBinAddr: 0x3F5F8, symSize: 0x16C }
  - { offset: 0xBF428, size: 0x8, addend: 0x0, symName: '__ZN5alloc3vec16Vec$LT$T$C$A$GT$14extend_trusted17he0a58cb0315b61c2E', symObjAddr: 0x2D68, symBinAddr: 0x3F764, symSize: 0x16C }
  - { offset: 0xBF86A, size: 0x8, addend: 0x0, symName: '__ZN5alloc3vec16Vec$LT$T$C$A$GT$16extend_desugared17h1f88fde050395081E', symObjAddr: 0x30F0, symBinAddr: 0x3FAEC, symSize: 0x1D0 }
  - { offset: 0xBFD42, size: 0x8, addend: 0x0, symName: '__ZN5alloc3vec16Vec$LT$T$C$A$GT$16extend_desugared17h1feefcce103125d7E', symObjAddr: 0x32C0, symBinAddr: 0x3FCBC, symSize: 0x1CC }
  - { offset: 0xC0194, size: 0x8, addend: 0x0, symName: '__ZN5alloc3vec16Vec$LT$T$C$A$GT$16extend_desugared17h6f3c5773ae7c9103E', symObjAddr: 0x348C, symBinAddr: 0x3FE88, symSize: 0x1E8 }
  - { offset: 0xC05C4, size: 0x8, addend: 0x0, symName: '__ZN5alloc3vec16Vec$LT$T$C$A$GT$16extend_desugared17h6fa1daca8ce599edE', symObjAddr: 0x3674, symBinAddr: 0x40070, symSize: 0x1CC }
  - { offset: 0xC09DA, size: 0x8, addend: 0x0, symName: '__ZN5alloc3vec16Vec$LT$T$C$A$GT$16extend_desugared17h776fc54193dae23cE', symObjAddr: 0x3840, symBinAddr: 0x4023C, symSize: 0x1CC }
  - { offset: 0xC0DF0, size: 0x8, addend: 0x0, symName: '__ZN5alloc3vec16Vec$LT$T$C$A$GT$16extend_desugared17hf2f316073837d8a0E', symObjAddr: 0x3A0C, symBinAddr: 0x40408, symSize: 0x1E4 }
  - { offset: 0xC10BA, size: 0x8, addend: 0x0, symName: '__ZN5alloc3vec16Vec$LT$T$C$A$GT$3len17h58330492463e5290E', symObjAddr: 0x3BF0, symBinAddr: 0x405EC, symSize: 0x18 }
  - { offset: 0xC10EF, size: 0x8, addend: 0x0, symName: '__ZN5alloc3vec16Vec$LT$T$C$A$GT$3len17h7b788b032adc8a2aE', symObjAddr: 0x3C08, symBinAddr: 0x40604, symSize: 0x18 }
  - { offset: 0xC1131, size: 0x8, addend: 0x0, symName: '__ZN5alloc3vec16Vec$LT$T$C$A$GT$3len17h860e26830069efd8E', symObjAddr: 0x3C20, symBinAddr: 0x4061C, symSize: 0x18 }
  - { offset: 0xC1173, size: 0x8, addend: 0x0, symName: '__ZN5alloc3vec16Vec$LT$T$C$A$GT$3len17ha651a1599e2e6900E', symObjAddr: 0x3C38, symBinAddr: 0x40634, symSize: 0x18 }
  - { offset: 0xC11A8, size: 0x8, addend: 0x0, symName: '__ZN5alloc3vec16Vec$LT$T$C$A$GT$3len17hbed6116e243157e4E', symObjAddr: 0x3C50, symBinAddr: 0x4064C, symSize: 0x18 }
  - { offset: 0xC11EA, size: 0x8, addend: 0x0, symName: '__ZN5alloc3vec16Vec$LT$T$C$A$GT$3len17hcab71b41d405114aE', symObjAddr: 0x3C68, symBinAddr: 0x40664, symSize: 0x18 }
  - { offset: 0xC135F, size: 0x8, addend: 0x0, symName: '__ZN5alloc3vec16Vec$LT$T$C$A$GT$3pop17hb04a343316e1d35cE', symObjAddr: 0x3C80, symBinAddr: 0x4067C, symSize: 0xEC }
  - { offset: 0xC14FD, size: 0x8, addend: 0x0, symName: '__ZN5alloc3vec16Vec$LT$T$C$A$GT$4push17h0e882ca1385178ffE', symObjAddr: 0x3D6C, symBinAddr: 0x40768, symSize: 0x2C }
  - { offset: 0xC154E, size: 0x8, addend: 0x0, symName: '__ZN5alloc3vec16Vec$LT$T$C$A$GT$4push17h0f539216fdb03671E', symObjAddr: 0x3D98, symBinAddr: 0x40794, symSize: 0x24 }
  - { offset: 0xC15A0, size: 0x8, addend: 0x0, symName: '__ZN5alloc3vec16Vec$LT$T$C$A$GT$4push17h23038670713bccf3E', symObjAddr: 0x3DBC, symBinAddr: 0x407B8, symSize: 0x28 }
  - { offset: 0xC15F1, size: 0x8, addend: 0x0, symName: '__ZN5alloc3vec16Vec$LT$T$C$A$GT$4push17h480cc6e77903e439E', symObjAddr: 0x3DE4, symBinAddr: 0x407E0, symSize: 0x2C }
  - { offset: 0xC1642, size: 0x8, addend: 0x0, symName: '__ZN5alloc3vec16Vec$LT$T$C$A$GT$4push17h4e74347ee0e356eaE', symObjAddr: 0x3E10, symBinAddr: 0x4080C, symSize: 0x2C }
  - { offset: 0xC1693, size: 0x8, addend: 0x0, symName: '__ZN5alloc3vec16Vec$LT$T$C$A$GT$4push17h647f398da5a41c05E', symObjAddr: 0x3E3C, symBinAddr: 0x40838, symSize: 0x3C }
  - { offset: 0xC16E4, size: 0x8, addend: 0x0, symName: '__ZN5alloc3vec16Vec$LT$T$C$A$GT$4push17h6a6eeb44509daa29E', symObjAddr: 0x3E78, symBinAddr: 0x40874, symSize: 0x2C }
  - { offset: 0xC1728, size: 0x8, addend: 0x0, symName: '__ZN5alloc3vec16Vec$LT$T$C$A$GT$4push17h763cdc57c6963668E', symObjAddr: 0x3EA4, symBinAddr: 0x408A0, symSize: 0x2C }
  - { offset: 0xC1779, size: 0x8, addend: 0x0, symName: '__ZN5alloc3vec16Vec$LT$T$C$A$GT$4push17h887d0661ee3b42aaE', symObjAddr: 0x3ED0, symBinAddr: 0x408CC, symSize: 0x24 }
  - { offset: 0xC17CB, size: 0x8, addend: 0x0, symName: '__ZN5alloc3vec16Vec$LT$T$C$A$GT$4push17h8a7895b93bb5e73fE', symObjAddr: 0x3EF4, symBinAddr: 0x408F0, symSize: 0x28 }
  - { offset: 0xC181C, size: 0x8, addend: 0x0, symName: '__ZN5alloc3vec16Vec$LT$T$C$A$GT$4push17h9548810b53f304b1E', symObjAddr: 0x3F1C, symBinAddr: 0x40918, symSize: 0x24 }
  - { offset: 0xC186E, size: 0x8, addend: 0x0, symName: '__ZN5alloc3vec16Vec$LT$T$C$A$GT$4push17h9dcd21dc198436e4E', symObjAddr: 0x3F40, symBinAddr: 0x4093C, symSize: 0x28 }
  - { offset: 0xC18BF, size: 0x8, addend: 0x0, symName: '__ZN5alloc3vec16Vec$LT$T$C$A$GT$4push17ha26e7a2c42954517E', symObjAddr: 0x3F68, symBinAddr: 0x40964, symSize: 0x24 }
  - { offset: 0xC1911, size: 0x8, addend: 0x0, symName: '__ZN5alloc3vec16Vec$LT$T$C$A$GT$4push17hae4b341479469ff8E', symObjAddr: 0x3F8C, symBinAddr: 0x40988, symSize: 0x30 }
  - { offset: 0xC1962, size: 0x8, addend: 0x0, symName: '__ZN5alloc3vec16Vec$LT$T$C$A$GT$4push17hbca479d069894517E', symObjAddr: 0x3FBC, symBinAddr: 0x409B8, symSize: 0x28 }
  - { offset: 0xC19A6, size: 0x8, addend: 0x0, symName: '__ZN5alloc3vec16Vec$LT$T$C$A$GT$4push17hdd70d2a2fd19ae32E', symObjAddr: 0x3FE4, symBinAddr: 0x409E0, symSize: 0x28 }
  - { offset: 0xC19F7, size: 0x8, addend: 0x0, symName: '__ZN5alloc3vec16Vec$LT$T$C$A$GT$4push17he072a969d62b266eE', symObjAddr: 0x400C, symBinAddr: 0x40A08, symSize: 0x28 }
  - { offset: 0xC1A3B, size: 0x8, addend: 0x0, symName: '__ZN5alloc3vec16Vec$LT$T$C$A$GT$4push17hed204d887c9f3fd6E', symObjAddr: 0x4034, symBinAddr: 0x40A30, symSize: 0x24 }
  - { offset: 0xC1BFF, size: 0x8, addend: 0x0, symName: '__ZN5alloc3vec16Vec$LT$T$C$A$GT$6append17h26568095f1541a2aE', symObjAddr: 0x4058, symBinAddr: 0x40A54, symSize: 0xD8 }
  - { offset: 0xC1ECE, size: 0x8, addend: 0x0, symName: '__ZN5alloc3vec16Vec$LT$T$C$A$GT$7reserve17h18c5ebae36e1cbb1E', symObjAddr: 0x4130, symBinAddr: 0x40B2C, symSize: 0xC8 }
  - { offset: 0xC214B, size: 0x8, addend: 0x0, symName: '__ZN5alloc3vec16Vec$LT$T$C$A$GT$7reserve17h4967c545175368f1E', symObjAddr: 0x41F8, symBinAddr: 0x40BF4, symSize: 0xBC }
  - { offset: 0xC23C8, size: 0x8, addend: 0x0, symName: '__ZN5alloc3vec16Vec$LT$T$C$A$GT$7reserve17h76f86efeb0317540E', symObjAddr: 0x42B4, symBinAddr: 0x40CB0, symSize: 0xBC }
  - { offset: 0xC2645, size: 0x8, addend: 0x0, symName: '__ZN5alloc3vec16Vec$LT$T$C$A$GT$7reserve17h8af9b5f02e2a93d1E', symObjAddr: 0x4370, symBinAddr: 0x40D6C, symSize: 0xC8 }
  - { offset: 0xC28C2, size: 0x8, addend: 0x0, symName: '__ZN5alloc3vec16Vec$LT$T$C$A$GT$7reserve17h8b1dbb511db6c92dE', symObjAddr: 0x4438, symBinAddr: 0x40E34, symSize: 0xBC }
  - { offset: 0xC2B3F, size: 0x8, addend: 0x0, symName: '__ZN5alloc3vec16Vec$LT$T$C$A$GT$7reserve17hbb55fafa3e2853ceE', symObjAddr: 0x44F4, symBinAddr: 0x40EF0, symSize: 0xC8 }
  - { offset: 0xC2DBC, size: 0x8, addend: 0x0, symName: '__ZN5alloc3vec16Vec$LT$T$C$A$GT$7reserve17hdfd1cd1beb7140c4E', symObjAddr: 0x45BC, symBinAddr: 0x40FB8, symSize: 0xC8 }
  - { offset: 0xC2FC1, size: 0x8, addend: 0x0, symName: '__ZN5alloc3vec16Vec$LT$T$C$A$GT$7set_len17hbd77f7f8aafcaa93E', symObjAddr: 0x4684, symBinAddr: 0x41080, symSize: 0x80 }
  - { offset: 0xC3158, size: 0x8, addend: 0x0, symName: '__ZN5alloc3vec16Vec$LT$T$C$A$GT$8as_slice17h2177bbcb3b47dd7bE', symObjAddr: 0x4704, symBinAddr: 0x41100, symSize: 0x6C }
  - { offset: 0xC32D0, size: 0x8, addend: 0x0, symName: '__ZN5alloc3vec16Vec$LT$T$C$A$GT$8as_slice17h58de7c017cbe90d1E', symObjAddr: 0x4770, symBinAddr: 0x4116C, symSize: 0x68 }
  - { offset: 0xC3448, size: 0x8, addend: 0x0, symName: '__ZN5alloc3vec16Vec$LT$T$C$A$GT$8as_slice17h893e66ed4210037fE', symObjAddr: 0x47D8, symBinAddr: 0x411D4, symSize: 0x6C }
  - { offset: 0xC35C0, size: 0x8, addend: 0x0, symName: '__ZN5alloc3vec16Vec$LT$T$C$A$GT$8as_slice17ha70baace8feafe11E', symObjAddr: 0x4844, symBinAddr: 0x41240, symSize: 0x6C }
  - { offset: 0xC3738, size: 0x8, addend: 0x0, symName: '__ZN5alloc3vec16Vec$LT$T$C$A$GT$8as_slice17hd145587f5c7b06c6E', symObjAddr: 0x48B0, symBinAddr: 0x412AC, symSize: 0x68 }
  - { offset: 0xC38A3, size: 0x8, addend: 0x0, symName: '__ZN5alloc3vec16Vec$LT$T$C$A$GT$8as_slice17hd9df560bf67bf902E', symObjAddr: 0x4918, symBinAddr: 0x41314, symSize: 0x6C }
  - { offset: 0xC3A1B, size: 0x8, addend: 0x0, symName: '__ZN5alloc3vec16Vec$LT$T$C$A$GT$8as_slice17hffc7d8340a36ebb8E', symObjAddr: 0x4984, symBinAddr: 0x41380, symSize: 0x6C }
  - { offset: 0xC3B07, size: 0x8, addend: 0x0, symName: '__ZN5alloc3vec16Vec$LT$T$C$A$GT$8is_empty17h5ad6cc8ddd9ee2d1E', symObjAddr: 0x49F0, symBinAddr: 0x413EC, symSize: 0x20 }
  - { offset: 0xC3B7F, size: 0x8, addend: 0x0, symName: '__ZN5alloc3vec16Vec$LT$T$C$A$GT$8is_empty17h76d9283726505d43E', symObjAddr: 0x4A10, symBinAddr: 0x4140C, symSize: 0x20 }
  - { offset: 0xC3BF7, size: 0x8, addend: 0x0, symName: '__ZN5alloc3vec16Vec$LT$T$C$A$GT$8is_empty17hb2b71fcc39b55dbdE', symObjAddr: 0x4A30, symBinAddr: 0x4142C, symSize: 0x20 }
  - { offset: 0xC3D5D, size: 0x8, addend: 0x0, symName: '__ZN5alloc3vec16Vec$LT$T$C$A$GT$8push_mut17h07945f04ecae8670E', symObjAddr: 0x4A50, symBinAddr: 0x4144C, symSize: 0xE0 }
  - { offset: 0xC3FFB, size: 0x8, addend: 0x0, symName: '__ZN5alloc3vec16Vec$LT$T$C$A$GT$8push_mut17h0daf85ecc2b0949cE', symObjAddr: 0x4B30, symBinAddr: 0x4152C, symSize: 0xEC }
  - { offset: 0xC42BE, size: 0x8, addend: 0x0, symName: '__ZN5alloc3vec16Vec$LT$T$C$A$GT$8push_mut17h1b6cb932288e651eE', symObjAddr: 0x4C1C, symBinAddr: 0x41618, symSize: 0xF0 }
  - { offset: 0xC455C, size: 0x8, addend: 0x0, symName: '__ZN5alloc3vec16Vec$LT$T$C$A$GT$8push_mut17h1b796803d7df1ecfE', symObjAddr: 0x4D0C, symBinAddr: 0x41708, symSize: 0xF0 }
  - { offset: 0xC47FB, size: 0x8, addend: 0x0, symName: '__ZN5alloc3vec16Vec$LT$T$C$A$GT$8push_mut17h2592d4fe20b693d0E', symObjAddr: 0x4DFC, symBinAddr: 0x417F8, symSize: 0xE0 }
  - { offset: 0xC4A99, size: 0x8, addend: 0x0, symName: '__ZN5alloc3vec16Vec$LT$T$C$A$GT$8push_mut17h2fb87a179a59ccf9E', symObjAddr: 0x4EDC, symBinAddr: 0x418D8, symSize: 0xE0 }
  - { offset: 0xC4D5E, size: 0x8, addend: 0x0, symName: '__ZN5alloc3vec16Vec$LT$T$C$A$GT$8push_mut17h32b3fdddb6652b5aE', symObjAddr: 0x4FBC, symBinAddr: 0x419B8, symSize: 0xE8 }
  - { offset: 0xC4FFD, size: 0x8, addend: 0x0, symName: '__ZN5alloc3vec16Vec$LT$T$C$A$GT$8push_mut17h33032e50c4a14440E', symObjAddr: 0x50A4, symBinAddr: 0x41AA0, symSize: 0xE0 }
  - { offset: 0xC529B, size: 0x8, addend: 0x0, symName: '__ZN5alloc3vec16Vec$LT$T$C$A$GT$8push_mut17h67e149ca12065654E', symObjAddr: 0x5184, symBinAddr: 0x41B80, symSize: 0x10C }
  - { offset: 0xC553C, size: 0x8, addend: 0x0, symName: '__ZN5alloc3vec16Vec$LT$T$C$A$GT$8push_mut17h8f4dfbb8221b5c2aE', symObjAddr: 0x5290, symBinAddr: 0x41C8C, symSize: 0x11C }
  - { offset: 0xC57F7, size: 0x8, addend: 0x0, symName: '__ZN5alloc3vec16Vec$LT$T$C$A$GT$8push_mut17ha0ddec7e7fc8265fE', symObjAddr: 0x53AC, symBinAddr: 0x41DA8, symSize: 0xF4 }
  - { offset: 0xC5ABD, size: 0x8, addend: 0x0, symName: '__ZN5alloc3vec16Vec$LT$T$C$A$GT$8push_mut17ha92433558ef94441E', symObjAddr: 0x54A0, symBinAddr: 0x41E9C, symSize: 0x100 }
  - { offset: 0xC5D5D, size: 0x8, addend: 0x0, symName: '__ZN5alloc3vec16Vec$LT$T$C$A$GT$8push_mut17hb7c282a5ddcba87bE', symObjAddr: 0x55A0, symBinAddr: 0x41F9C, symSize: 0x100 }
  - { offset: 0xC5FFD, size: 0x8, addend: 0x0, symName: '__ZN5alloc3vec16Vec$LT$T$C$A$GT$8push_mut17hce11332c1a1e8d38E', symObjAddr: 0x56A0, symBinAddr: 0x4209C, symSize: 0xF0 }
  - { offset: 0xC62C3, size: 0x8, addend: 0x0, symName: '__ZN5alloc3vec16Vec$LT$T$C$A$GT$8push_mut17hcec1cb6d3cf75a08E', symObjAddr: 0x5790, symBinAddr: 0x4218C, symSize: 0xF0 }
  - { offset: 0xC6562, size: 0x8, addend: 0x0, symName: '__ZN5alloc3vec16Vec$LT$T$C$A$GT$8push_mut17hd40f4b3a8e8f0f8aE', symObjAddr: 0x5880, symBinAddr: 0x4227C, symSize: 0x11C }
  - { offset: 0xC682A, size: 0x8, addend: 0x0, symName: '__ZN5alloc3vec16Vec$LT$T$C$A$GT$8push_mut17hf2470db1320d1b93E', symObjAddr: 0x599C, symBinAddr: 0x42398, symSize: 0xE0 }
  - { offset: 0xC6AEF, size: 0x8, addend: 0x0, symName: '__ZN5alloc3vec16Vec$LT$T$C$A$GT$8push_mut17hf95d515044f8a240E', symObjAddr: 0x5A7C, symBinAddr: 0x42478, symSize: 0xE0 }
  - { offset: 0xC8A99, size: 0x8, addend: 0x0, symName: '__ZN42_$LT$$RF$T$u20$as$u20$core..fmt..Debug$GT$3fmt17h4577c9e713e08eb2E', symObjAddr: 0x0, symBinAddr: 0x44054, symSize: 0x30 }
  - { offset: 0xC8B3A, size: 0x8, addend: 0x0, symName: '__ZN42_$LT$$RF$T$u20$as$u20$core..fmt..Debug$GT$3fmt17h4577c9e713e08eb2E', symObjAddr: 0x0, symBinAddr: 0x44054, symSize: 0x30 }
  - { offset: 0xC8B86, size: 0x8, addend: 0x0, symName: '__ZN48_$LT$$u5b$T$u5d$$u20$as$u20$core..fmt..Debug$GT$3fmt17hd2b76aeae50a9febE', symObjAddr: 0x30, symBinAddr: 0x44084, symSize: 0x90 }
  - { offset: 0xC8DEB, size: 0x8, addend: 0x0, symName: '__ZN4core5slice29_$LT$impl$u20$$u5b$T$u5d$$GT$4iter17h18461eb6575011e5E', symObjAddr: 0xF0, symBinAddr: 0x44144, symSize: 0x28 }
  - { offset: 0xC8E22, size: 0x8, addend: 0x0, symName: '__ZN4core5slice29_$LT$impl$u20$$u5b$T$u5d$$GT$5first17hfb5410bf349817c3E', symObjAddr: 0x118, symBinAddr: 0x4416C, symSize: 0x44 }
  - { offset: 0xC8E6C, size: 0x8, addend: 0x0, symName: '__ZN4core5slice29_$LT$impl$u20$$u5b$T$u5d$$GT$8contains17hb9f871ff112a1108E', symObjAddr: 0x15C, symBinAddr: 0x441B0, symSize: 0x48 }
  - { offset: 0xC8EE4, size: 0x8, addend: 0x0, symName: '__ZN53_$LT$T$u20$as$u20$core..slice..cmp..SliceContains$GT$14slice_contains17h71efa2cdbf3fb733E', symObjAddr: 0x2E0, symBinAddr: 0x44334, symSize: 0x80 }
  - { offset: 0xC93D0, size: 0x8, addend: 0x0, symName: '__ZN4core4hash5impls52_$LT$impl$u20$core..hash..Hash$u20$for$u20$$RF$T$GT$4hash17ha14fed7236814a0aE', symObjAddr: 0xC0, symBinAddr: 0x44114, symSize: 0x30 }
  - { offset: 0xC951F, size: 0x8, addend: 0x0, symName: '__ZN51_$LT$T$u20$as$u20$core..borrow..Borrow$LT$T$GT$$GT$6borrow17h648ef466a0377b2dE', symObjAddr: 0x27C, symBinAddr: 0x442D0, symSize: 0x14 }
  - { offset: 0xC9B61, size: 0x8, addend: 0x0, symName: '__ZN58_$LT$alloc..string..String$u20$as$u20$core..hash..Hash$GT$4hash17hcdb5e4e9956413cdE', symObjAddr: 0x394, symBinAddr: 0x443E8, symSize: 0x90 }
  - { offset: 0xC9FE4, size: 0x8, addend: 0x0, symName: __ZN4pyo310conversion15IntoPyObjectExt17into_bound_py_any17heac68829d2b330dfE, symObjAddr: 0x1A4, symBinAddr: 0x441F8, symSize: 0x50 }
  - { offset: 0xCA054, size: 0x8, addend: 0x0, symName: __ZN4pyo310conversion15IntoPyObjectExt22into_pyobject_or_pyerr17h0ca595eda89b922dE, symObjAddr: 0x1F4, symBinAddr: 0x44248, symSize: 0x48 }
  - { offset: 0xCA0C4, size: 0x8, addend: 0x0, symName: __ZN4pyo310conversion15IntoPyObjectExt22into_pyobject_or_pyerr17h62b653a4c5d52e69E, symObjAddr: 0x23C, symBinAddr: 0x44290, symSize: 0x40 }
  - { offset: 0xCA13B, size: 0x8, addend: 0x0, symName: '__ZN57_$LT$T$u20$as$u20$pyo3..conversion..FromPyObjectBound$GT$20from_py_object_bound17h84bd9cbb5cb2ef8cE', symObjAddr: 0x360, symBinAddr: 0x443B4, symSize: 0x34 }
  - { offset: 0xCA446, size: 0x8, addend: 0x0, symName: '__ZN52_$LT$Q$u20$as$u20$hashbrown..Equivalent$LT$K$GT$$GT$10equivalent17h67d58f7a3ba0fa5eE', symObjAddr: 0x290, symBinAddr: 0x442E4, symSize: 0x50 }
  - { offset: 0xCAA79, size: 0x8, addend: 0x0, symName: '__ZN65_$LT$wellen..hierarchy..SignalRef$u20$as$u20$core..fmt..Debug$GT$3fmt17h95e1afacdd569c50E', symObjAddr: 0x0, symBinAddr: 0x44478, symSize: 0x54 }
  - { offset: 0xCB339, size: 0x8, addend: 0x0, symName: '__ZN65_$LT$wellen..hierarchy..SignalRef$u20$as$u20$core..fmt..Debug$GT$3fmt17h95e1afacdd569c50E', symObjAddr: 0x0, symBinAddr: 0x44478, symSize: 0x54 }
  - { offset: 0xCB379, size: 0x8, addend: 0x0, symName: '__ZN68_$LT$wellen..hierarchy..VarDirection$u20$as$u20$core..fmt..Debug$GT$3fmt17hc8901d0b09b087f0E', symObjAddr: 0x54, symBinAddr: 0x444CC, symSize: 0x144 }
  - { offset: 0xCB3B9, size: 0x8, addend: 0x0, symName: '__ZN68_$LT$wellen..hierarchy..VarIndex$u20$as$u20$core..cmp..PartialEq$GT$2eq17h565ffcb8e0f2bcdaE', symObjAddr: 0x198, symBinAddr: 0x44610, symSize: 0x80 }
  - { offset: 0xCB3F9, size: 0x8, addend: 0x0, symName: '__ZN69_$LT$wellen..hierarchy..SignalRef$u20$as$u20$core..cmp..PartialEq$GT$2eq17hdb3868d940751e04E', symObjAddr: 0x218, symBinAddr: 0x44690, symSize: 0x2C }
  - { offset: 0xCB439, size: 0x8, addend: 0x0, symName: '__ZN69_$LT$wellen..hierarchy..TimescaleUnit$u20$as$u20$core..fmt..Debug$GT$3fmt17h8e68a4f83757999cE', symObjAddr: 0x244, symBinAddr: 0x446BC, symSize: 0x144 }
  - { offset: 0xCB93E, size: 0x8, addend: 0x0, symName: __ZN6wellen9hierarchy9SignalRef17he51b0d933295199cE, symObjAddr: 0x554, symBinAddr: 0x449CC, symSize: 0x10 }
  - { offset: 0xCBFA2, size: 0x8, addend: 0x0, symName: __ZN6wellen9hierarchy16HierarchyBuilder10pop_scopes17h219497fe46b6b085E, symObjAddr: 0x388, symBinAddr: 0x44800, symSize: 0x58 }
  - { offset: 0xCBFF2, size: 0x8, addend: 0x0, symName: __ZN6wellen9hierarchy16HierarchyBuilder16add_array_scopes17h19e2eede1c22f1b3E, symObjAddr: 0x3E0, symBinAddr: 0x44858, symSize: 0xF0 }
  - { offset: 0xCC0B0, size: 0x8, addend: 0x0, symName: __ZN6wellen9hierarchy3Var4name17h553a47bb8256fef6E, symObjAddr: 0x4D0, symBinAddr: 0x44948, symSize: 0x38 }
  - { offset: 0xCC0E2, size: 0x8, addend: 0x0, symName: __ZN6wellen9hierarchy9SignalRef10from_index17hbe0645239de590e3E, symObjAddr: 0x508, symBinAddr: 0x44980, symSize: 0x4C }
  - { offset: 0xCC111, size: 0x8, addend: 0x0, symName: __ZN6wellen9hierarchy9SignalRef5index17hd69086582b0f5a68E, symObjAddr: 0x564, symBinAddr: 0x449DC, symSize: 0x54 }
  - { offset: 0xCC1E1, size: 0x8, addend: 0x0, symName: __ZN4core4hash11BuildHasher8hash_one17h591a2054f3ae01f3E, symObjAddr: 0x0, symBinAddr: 0x44A30, symSize: 0x84 }
  - { offset: 0xCC1FD, size: 0x8, addend: 0x0, symName: __ZN4core4hash11BuildHasher8hash_one17h591a2054f3ae01f3E, symObjAddr: 0x0, symBinAddr: 0x44A30, symSize: 0x84 }
  - { offset: 0xCC262, size: 0x8, addend: 0x0, symName: __ZN4core4hash11BuildHasher8hash_one17h7728cc99eb6973d4E, symObjAddr: 0x84, symBinAddr: 0x44AB4, symSize: 0x84 }
  - { offset: 0xCC2C7, size: 0x8, addend: 0x0, symName: __ZN4core4hash11BuildHasher8hash_one17h8cd7dd654768abc3E, symObjAddr: 0x108, symBinAddr: 0x44B38, symSize: 0x88 }
  - { offset: 0xCC643, size: 0x8, addend: 0x0, symName: '__ZN104_$LT$core..iter..adapters..cloned..Cloned$LT$I$GT$$u20$as$u20$core..iter..traits..iterator..Iterator$GT$4fold17h84037876bfa94c9bE', symObjAddr: 0x0, symBinAddr: 0x44BC0, symSize: 0xDC }
  - { offset: 0xCCE17, size: 0x8, addend: 0x0, symName: '__ZN104_$LT$core..iter..adapters..cloned..Cloned$LT$I$GT$$u20$as$u20$core..iter..traits..iterator..Iterator$GT$4fold17h84037876bfa94c9bE', symObjAddr: 0x0, symBinAddr: 0x44BC0, symSize: 0xDC }
  - { offset: 0xCCED2, size: 0x8, addend: 0x0, symName: '__ZN104_$LT$core..iter..adapters..cloned..Cloned$LT$I$GT$$u20$as$u20$core..iter..traits..iterator..Iterator$GT$9size_hint17he56e402e2ea6db6bE', symObjAddr: 0xDC, symBinAddr: 0x44C9C, symSize: 0x24 }
  - { offset: 0xCCF5F, size: 0x8, addend: 0x0, symName: __ZN4core4iter6traits8iterator8Iterator3map17hbe39e91e76f0521eE, symObjAddr: 0x100, symBinAddr: 0x44CC0, symSize: 0x30 }
  - { offset: 0xCDC40, size: 0x8, addend: 0x0, symName: __ZN6wellen6simple17read_with_options17hbab08ce462fca7d7E, symObjAddr: 0x0, symBinAddr: 0x44CF0, symSize: 0x2D0 }
  - { offset: 0xCE22C, size: 0x8, addend: 0x0, symName: __ZN6wellen6simple17read_with_options17hbab08ce462fca7d7E, symObjAddr: 0x0, symBinAddr: 0x44CF0, symSize: 0x2D0 }
  - { offset: 0xCE313, size: 0x8, addend: 0x0, symName: __ZN6wellen6simple4read17h4b1df6b3221d10e4E, symObjAddr: 0x2D0, symBinAddr: 0x44FC0, symSize: 0xAC }
  - { offset: 0xD02BA, size: 0x8, addend: 0x0, symName: '__ZN103_$LT$pyo3..instance..Bound$LT$pyo3..types..any..PyAny$GT$$u20$as$u20$pyo3..types..any..PyAnyMethods$GT$7is_none17h55f01e22d6471e7cE', symObjAddr: 0x0, symBinAddr: 0x4506C, symSize: 0x44 }
  - { offset: 0xD0360, size: 0x8, addend: 0x0, symName: '__ZN103_$LT$pyo3..instance..Bound$LT$pyo3..types..any..PyAny$GT$$u20$as$u20$pyo3..types..any..PyAnyMethods$GT$7is_none17h55f01e22d6471e7cE', symObjAddr: 0x0, symBinAddr: 0x4506C, symSize: 0x44 }
  - { offset: 0xD03AF, size: 0x8, addend: 0x0, symName: '__ZN119_$LT$pyo3..instance..Bound$LT$pyo3..types..typeobject..PyType$GT$$u20$as$u20$pyo3..types..typeobject..PyTypeMethods$GT$11as_type_ptr17hb17d9c61dc17cc09E', symObjAddr: 0x44, symBinAddr: 0x450B0, symSize: 0x24 }
  - { offset: 0xD03FC, size: 0x8, addend: 0x0, symName: '__ZN123_$LT$pyo3..instance..Bound$LT$pyo3..types..sequence..PySequence$GT$$u20$as$u20$pyo3..types..sequence..PySequenceMethods$GT$3len17h98b5880134260e55E', symObjAddr: 0x68, symBinAddr: 0x450D4, symSize: 0xBC }
  - { offset: 0xD0484, size: 0x8, addend: 0x0, symName: '__ZN4pyo35types8iterator131_$LT$impl$u20$core..iter..traits..iterator..Iterator$u20$for$u20$pyo3..instance..Bound$LT$pyo3..types..iterator..PyIterator$GT$$GT$4next17h7e03bde0077f4efcE', symObjAddr: 0x124, symBinAddr: 0x45190, symSize: 0x30 }
  - { offset: 0xD0F91, size: 0x8, addend: 0x0, symName: '__ZN4pyo38instance36Bound$LT$pyo3..types..any..PyAny$GT$14from_owned_ptr17h9d574f11b8a01ae4E', symObjAddr: 0x154, symBinAddr: 0x451C0, symSize: 0x2C }
  - { offset: 0xD0FE0, size: 0x8, addend: 0x0, symName: '__ZN4pyo38instance39Borrowed$LT$pyo3..types..any..PyAny$GT$15from_ptr_or_opt17ha83601aa7c5fff5eE', symObjAddr: 0x180, symBinAddr: 0x451EC, symSize: 0x2C }
  - { offset: 0xD101E, size: 0x8, addend: 0x0, symName: '__ZN4pyo38instance39Borrowed$LT$pyo3..types..any..PyAny$GT$18from_ptr_unchecked17h2da0870a212ead15E', symObjAddr: 0x1AC, symBinAddr: 0x45218, symSize: 0x2C }
  - { offset: 0xD105C, size: 0x8, addend: 0x0, symName: '__ZN4pyo38instance39Borrowed$LT$pyo3..types..any..PyAny$GT$8from_ptr17ha4433556dc4e3be1E', symObjAddr: 0x1D8, symBinAddr: 0x45244, symSize: 0x34 }
  - { offset: 0xD12E1, size: 0x8, addend: 0x0, symName: '__ZN5alloc5boxed16Box$LT$T$C$A$GT$13new_uninit_in17h2f1f53ae973c069eE', symObjAddr: 0x0, symBinAddr: 0x45278, symSize: 0x98 }
  - { offset: 0xD21E2, size: 0x8, addend: 0x0, symName: '__ZN5alloc5boxed16Box$LT$T$C$A$GT$13new_uninit_in17h2f1f53ae973c069eE', symObjAddr: 0x0, symBinAddr: 0x45278, symSize: 0x98 }
  - { offset: 0xD22DA, size: 0x8, addend: 0x0, symName: '__ZN5alloc5boxed16Box$LT$T$C$A$GT$13new_uninit_in17hf25a051b0eea5d26E', symObjAddr: 0x98, symBinAddr: 0x45310, symSize: 0x98 }
  - { offset: 0xD23D2, size: 0x8, addend: 0x0, symName: '__ZN5alloc5boxed16Box$LT$T$C$A$GT$17try_new_uninit_in17h681b63d38b288801E', symObjAddr: 0x130, symBinAddr: 0x453A8, symSize: 0x13C }
  - { offset: 0xD260E, size: 0x8, addend: 0x0, symName: '__ZN5alloc5boxed16Box$LT$T$C$A$GT$17try_new_uninit_in17hfba6f1439f38d398E', symObjAddr: 0x26C, symBinAddr: 0x454E4, symSize: 0x13C }
  - { offset: 0xD28CE, size: 0x8, addend: 0x0, symName: '__ZN5alloc5boxed22Box$LT$$u5b$T$u5d$$GT$16new_uninit_slice17ha5108686c0e0dcafE', symObjAddr: 0x3A8, symBinAddr: 0x45620, symSize: 0x84 }
  - { offset: 0xD2E1C, size: 0x8, addend: 0x0, symName: __ZN5alloc3vec16in_place_collect18from_iter_in_place17h52e90c51fbaa67ceE, symObjAddr: 0x0, symBinAddr: 0x456A4, symSize: 0x4C8 }
  - { offset: 0xD3D73, size: 0x8, addend: 0x0, symName: __ZN5alloc3vec16in_place_collect18from_iter_in_place17h52e90c51fbaa67ceE, symObjAddr: 0x0, symBinAddr: 0x456A4, symSize: 0x4C8 }
  - { offset: 0xD43A6, size: 0x8, addend: 0x0, symName: '__ZN5alloc3vec16in_place_collect24write_in_place_with_drop28_$u7b$$u7b$closure$u7d$$u7d$17h70eaf20a68ad9eefE', symObjAddr: 0x4C8, symBinAddr: 0x45B6C, symSize: 0x50 }
  - { offset: 0xD4A36, size: 0x8, addend: 0x0, symName: '__ZN108_$LT$core..iter..adapters..filter..Filter$LT$I$C$P$GT$$u20$as$u20$core..iter..traits..iterator..Iterator$GT$4next17h293b63da593417c6E', symObjAddr: 0x0, symBinAddr: 0x45BBC, symSize: 0x2C }
  - { offset: 0xD4B4C, size: 0x8, addend: 0x0, symName: '__ZN108_$LT$core..iter..adapters..filter..Filter$LT$I$C$P$GT$$u20$as$u20$core..iter..traits..iterator..Iterator$GT$4next17h293b63da593417c6E', symObjAddr: 0x0, symBinAddr: 0x45BBC, symSize: 0x2C }
  - { offset: 0xD4B8A, size: 0x8, addend: 0x0, symName: '__ZN108_$LT$core..iter..adapters..filter..Filter$LT$I$C$P$GT$$u20$as$u20$core..iter..traits..iterator..Iterator$GT$4next17h4a8d7932bedde608E', symObjAddr: 0x2C, symBinAddr: 0x45BE8, symSize: 0x2C }
  - { offset: 0xD4BC8, size: 0x8, addend: 0x0, symName: '__ZN108_$LT$core..iter..adapters..filter..Filter$LT$I$C$P$GT$$u20$as$u20$core..iter..traits..iterator..Iterator$GT$4next17h8bd5235110668840E', symObjAddr: 0x58, symBinAddr: 0x45C14, symSize: 0x2C }
  - { offset: 0xD4C23, size: 0x8, addend: 0x0, symName: '__ZN108_$LT$core..iter..adapters..filter..Filter$LT$I$C$P$GT$$u20$as$u20$core..iter..traits..iterator..Iterator$GT$5count8to_usize28_$u7b$$u7b$closure$u7d$$u7d$17h32c020700e26e61fE', symObjAddr: 0x114, symBinAddr: 0x45CD0, symSize: 0x5C }
  - { offset: 0xD4CA1, size: 0x8, addend: 0x0, symName: '__ZN108_$LT$core..iter..adapters..filter..Filter$LT$I$C$P$GT$$u20$as$u20$core..iter..traits..iterator..Iterator$GT$5count17h9c0cab9cb312402eE', symObjAddr: 0x84, symBinAddr: 0x45C40, symSize: 0x90 }
  - { offset: 0xD4D73, size: 0x8, addend: 0x0, symName: '__ZN108_$LT$core..iter..adapters..filter..Filter$LT$I$C$P$GT$$u20$as$u20$core..iter..traits..iterator..Iterator$GT$9size_hint17hc69af68cd30b4212E', symObjAddr: 0x170, symBinAddr: 0x45D2C, symSize: 0x4C }
  - { offset: 0xD50C9, size: 0x8, addend: 0x0, symName: __ZN4core4iter6traits8iterator8Iterator7collect17h04e3481ee3debd65E, symObjAddr: 0x1BC, symBinAddr: 0x45D78, symSize: 0x68 }
  - { offset: 0xD515F, size: 0x8, addend: 0x0, symName: __ZN4core4iter6traits8iterator8Iterator9enumerate17h22bc4b062b2f3764E, symObjAddr: 0x224, symBinAddr: 0x45DE0, symSize: 0x18 }
  - { offset: 0xD5190, size: 0x8, addend: 0x0, symName: __ZN4core4iter6traits8iterator8Iterator9enumerate17h22bc4b062b2f3764E, symObjAddr: 0x224, symBinAddr: 0x45DE0, symSize: 0x18 }
  - { offset: 0xD51AB, size: 0x8, addend: 0x0, symName: __ZN4core4iter6traits8iterator8Iterator9enumerate17hd36b11583eb61a4bE, symObjAddr: 0x23C, symBinAddr: 0x45DF8, symSize: 0x18 }
  - { offset: 0xD51DC, size: 0x8, addend: 0x0, symName: __ZN4core4iter6traits8iterator8Iterator9enumerate17hd36b11583eb61a4bE, symObjAddr: 0x23C, symBinAddr: 0x45DF8, symSize: 0x18 }
  - { offset: 0xD5203, size: 0x8, addend: 0x0, symName: '__ZN63_$LT$I$u20$as$u20$core..iter..traits..collect..IntoIterator$GT$9into_iter17hf4c7bb9578fa6e4bE', symObjAddr: 0x254, symBinAddr: 0x45E10, symSize: 0x18 }
  - { offset: 0xD5C82, size: 0x8, addend: 0x0, symName: __ZN10rustc_hash8FxHasher11add_to_hash17ha4b1848237d4d6f3E, symObjAddr: 0x0, symBinAddr: 0x45E28, symSize: 0x48 }
  - { offset: 0xD5D5B, size: 0x8, addend: 0x0, symName: '__ZN59_$LT$rustc_hash..FxHasher$u20$as$u20$core..hash..Hasher$GT$11write_usize17h9719096a74e35cfbE', symObjAddr: 0x48, symBinAddr: 0x45E70, symSize: 0x28 }
  - { offset: 0xD5D91, size: 0x8, addend: 0x0, symName: '__ZN59_$LT$rustc_hash..FxHasher$u20$as$u20$core..hash..Hasher$GT$6finish17h0bb4aaa058817b75E', symObjAddr: 0x70, symBinAddr: 0x45E98, symSize: 0x30 }
  - { offset: 0xD5DE8, size: 0x8, addend: 0x0, symName: '__ZN68_$LT$rustc_hash..FxBuildHasher$u20$as$u20$core..default..Default$GT$7default17h01ec83f335384c62E', symObjAddr: 0xA0, symBinAddr: 0x45EC8, symSize: 0x4 }
  - { offset: 0xD5E11, size: 0x8, addend: 0x0, symName: __ZN10rustc_hash8FxHasher11add_to_hash17ha4b1848237d4d6f3E, symObjAddr: 0x0, symBinAddr: 0x45E28, symSize: 0x48 }
  - { offset: 0xD5EC4, size: 0x8, addend: 0x0, symName: '__ZN71_$LT$alloc..borrow..Cow$LT$B$GT$$u20$as$u20$core..ops..deref..Deref$GT$5deref17h2832abf16ddb0b3fE', symObjAddr: 0x0, symBinAddr: 0x45ECC, symSize: 0x78 }
  - { offset: 0xD5EE0, size: 0x8, addend: 0x0, symName: '__ZN71_$LT$alloc..borrow..Cow$LT$B$GT$$u20$as$u20$core..ops..deref..Deref$GT$5deref17h2832abf16ddb0b3fE', symObjAddr: 0x0, symBinAddr: 0x45ECC, symSize: 0x78 }
  - { offset: 0xD60AE, size: 0x8, addend: 0x0, symName: '__ZN106_$LT$pyo3..impl_..extract_argument..NoVarargs$u20$as$u20$pyo3..impl_..extract_argument..VarargsHandler$GT$23handle_varargs_fastcall17hee7ff337494fc1d1E', symObjAddr: 0x0, symBinAddr: 0x45F44, symSize: 0xB4 }
  - { offset: 0xD6154, size: 0x8, addend: 0x0, symName: '__ZN106_$LT$pyo3..impl_..extract_argument..NoVarargs$u20$as$u20$pyo3..impl_..extract_argument..VarargsHandler$GT$23handle_varargs_fastcall17hee7ff337494fc1d1E', symObjAddr: 0x0, symBinAddr: 0x45F44, symSize: 0xB4 }
  - { offset: 0xD61C8, size: 0x8, addend: 0x0, symName: '__ZN114_$LT$pyo3..impl_..extract_argument..NoVarkeywords$u20$as$u20$pyo3..impl_..extract_argument..VarkeywordsHandler$GT$17handle_varkeyword17h96850fb90ce1044cE', symObjAddr: 0xB4, symBinAddr: 0x45FF8, symSize: 0x6C }
  - { offset: 0xD6307, size: 0x8, addend: 0x0, symName: __ZN4pyo35impl_16extract_argument24unwrap_required_argument17h35d10f6693f80873E, symObjAddr: 0x4D4, symBinAddr: 0x46418, symSize: 0x64 }
  - { offset: 0xD6DD2, size: 0x8, addend: 0x0, symName: __ZN4pyo35impl_16extract_argument19FunctionDescription36find_keyword_parameter_in_positional17h3639c4a9d182fac3E, symObjAddr: 0x120, symBinAddr: 0x46064, symSize: 0x5C }
  - { offset: 0xD6E04, size: 0x8, addend: 0x0, symName: __ZN4pyo35impl_16extract_argument19FunctionDescription38find_keyword_parameter_in_keyword_only17h3d085bef92305a52E, symObjAddr: 0x17C, symBinAddr: 0x460C0, symSize: 0x5C }
  - { offset: 0xD70D2, size: 0x8, addend: 0x0, symName: __ZN4pyo35impl_16extract_argument19FunctionDescription44ensure_no_missing_required_keyword_arguments17h210b01537475af49E, symObjAddr: 0x1D8, symBinAddr: 0x4611C, symSize: 0x160 }
  - { offset: 0xD719E, size: 0x8, addend: 0x0, symName: __ZN4pyo35impl_16extract_argument19FunctionDescription47ensure_no_missing_required_positional_arguments17h90209d2cef0f3649E, symObjAddr: 0x338, symBinAddr: 0x4627C, symSize: 0x19C }
  - { offset: 0xD7326, size: 0x8, addend: 0x0, symName: '__ZN102_$LT$core..iter..adapters..map..Map$LT$I$C$F$GT$$u20$as$u20$core..iter..traits..iterator..Iterator$GT$4fold17h0b80e3cc7e5770b1E', symObjAddr: 0x0, symBinAddr: 0x4647C, symSize: 0x50 }
  - { offset: 0xD78A7, size: 0x8, addend: 0x0, symName: '__ZN102_$LT$core..iter..adapters..map..Map$LT$I$C$F$GT$$u20$as$u20$core..iter..traits..iterator..Iterator$GT$4fold17h0b80e3cc7e5770b1E', symObjAddr: 0x0, symBinAddr: 0x4647C, symSize: 0x50 }
  - { offset: 0xD791E, size: 0x8, addend: 0x0, symName: '__ZN102_$LT$core..iter..adapters..map..Map$LT$I$C$F$GT$$u20$as$u20$core..iter..traits..iterator..Iterator$GT$4fold17h10a5e2be6b26b562E', symObjAddr: 0x50, symBinAddr: 0x464CC, symSize: 0x58 }
  - { offset: 0xD7990, size: 0x8, addend: 0x0, symName: '__ZN102_$LT$core..iter..adapters..map..Map$LT$I$C$F$GT$$u20$as$u20$core..iter..traits..iterator..Iterator$GT$4fold17h1b26a9546a3cffeeE', symObjAddr: 0xA8, symBinAddr: 0x46524, symSize: 0x58 }
  - { offset: 0xD7A29, size: 0x8, addend: 0x0, symName: '__ZN102_$LT$core..iter..adapters..map..Map$LT$I$C$F$GT$$u20$as$u20$core..iter..traits..iterator..Iterator$GT$4fold17h68f78f82e468fe1aE', symObjAddr: 0x100, symBinAddr: 0x4657C, symSize: 0x5C }
  - { offset: 0xD7AC2, size: 0x8, addend: 0x0, symName: '__ZN102_$LT$core..iter..adapters..map..Map$LT$I$C$F$GT$$u20$as$u20$core..iter..traits..iterator..Iterator$GT$4fold17h9e0b7f26efe999aaE', symObjAddr: 0x15C, symBinAddr: 0x465D8, symSize: 0x5C }
  - { offset: 0xD7B5B, size: 0x8, addend: 0x0, symName: '__ZN102_$LT$core..iter..adapters..map..Map$LT$I$C$F$GT$$u20$as$u20$core..iter..traits..iterator..Iterator$GT$4fold17ha8382cfc9f6b8297E', symObjAddr: 0x1B8, symBinAddr: 0x46634, symSize: 0x44 }
  - { offset: 0xD7BF3, size: 0x8, addend: 0x0, symName: '__ZN102_$LT$core..iter..adapters..map..Map$LT$I$C$F$GT$$u20$as$u20$core..iter..traits..iterator..Iterator$GT$4fold17hd6faf2f12da631d3E', symObjAddr: 0x1FC, symBinAddr: 0x46678, symSize: 0x44 }
  - { offset: 0xD7C8B, size: 0x8, addend: 0x0, symName: '__ZN102_$LT$core..iter..adapters..map..Map$LT$I$C$F$GT$$u20$as$u20$core..iter..traits..iterator..Iterator$GT$4fold17hdb9c22067dad8883E', symObjAddr: 0x240, symBinAddr: 0x466BC, symSize: 0x4C }
  - { offset: 0xD7D24, size: 0x8, addend: 0x0, symName: '__ZN102_$LT$core..iter..adapters..map..Map$LT$I$C$F$GT$$u20$as$u20$core..iter..traits..iterator..Iterator$GT$4fold17hdf9a38743def5c46E', symObjAddr: 0x28C, symBinAddr: 0x46708, symSize: 0x44 }
  - { offset: 0xD7DBC, size: 0x8, addend: 0x0, symName: '__ZN102_$LT$core..iter..adapters..map..Map$LT$I$C$F$GT$$u20$as$u20$core..iter..traits..iterator..Iterator$GT$4fold17he055b39bb1a63333E', symObjAddr: 0x2D0, symBinAddr: 0x4674C, symSize: 0x44 }
  - { offset: 0xD7E54, size: 0x8, addend: 0x0, symName: '__ZN102_$LT$core..iter..adapters..map..Map$LT$I$C$F$GT$$u20$as$u20$core..iter..traits..iterator..Iterator$GT$4fold17he4fe5e318e621407E', symObjAddr: 0x314, symBinAddr: 0x46790, symSize: 0x44 }
  - { offset: 0xD7EEC, size: 0x8, addend: 0x0, symName: '__ZN102_$LT$core..iter..adapters..map..Map$LT$I$C$F$GT$$u20$as$u20$core..iter..traits..iterator..Iterator$GT$4fold17hfdd1d37358f6c597E', symObjAddr: 0x358, symBinAddr: 0x467D4, symSize: 0x4C }
  - { offset: 0xD7F5E, size: 0x8, addend: 0x0, symName: '__ZN102_$LT$core..iter..adapters..map..Map$LT$I$C$F$GT$$u20$as$u20$core..iter..traits..iterator..Iterator$GT$4next17h3e3242c1141d691dE', symObjAddr: 0x3A4, symBinAddr: 0x46820, symSize: 0x98 }
  - { offset: 0xD7FFA, size: 0x8, addend: 0x0, symName: '__ZN102_$LT$core..iter..adapters..map..Map$LT$I$C$F$GT$$u20$as$u20$core..iter..traits..iterator..Iterator$GT$4next17h755c2bcd79b7699dE', symObjAddr: 0x43C, symBinAddr: 0x468B8, symSize: 0x98 }
  - { offset: 0xD8096, size: 0x8, addend: 0x0, symName: '__ZN102_$LT$core..iter..adapters..map..Map$LT$I$C$F$GT$$u20$as$u20$core..iter..traits..iterator..Iterator$GT$4next17hb399b1cf937427d6E', symObjAddr: 0x4D4, symBinAddr: 0x46950, symSize: 0x98 }
  - { offset: 0xD8132, size: 0x8, addend: 0x0, symName: '__ZN102_$LT$core..iter..adapters..map..Map$LT$I$C$F$GT$$u20$as$u20$core..iter..traits..iterator..Iterator$GT$4next17hd319e4819cad1d53E', symObjAddr: 0x56C, symBinAddr: 0x469E8, symSize: 0x98 }
  - { offset: 0xD81CE, size: 0x8, addend: 0x0, symName: '__ZN102_$LT$core..iter..adapters..map..Map$LT$I$C$F$GT$$u20$as$u20$core..iter..traits..iterator..Iterator$GT$8try_fold17h420e94289e87b322E', symObjAddr: 0x604, symBinAddr: 0x46A80, symSize: 0x58 }
  - { offset: 0xD8271, size: 0x8, addend: 0x0, symName: '__ZN102_$LT$core..iter..adapters..map..Map$LT$I$C$F$GT$$u20$as$u20$core..iter..traits..iterator..Iterator$GT$8try_fold17h69e0c82200e38496E', symObjAddr: 0x65C, symBinAddr: 0x46AD8, symSize: 0x54 }
  - { offset: 0xD8314, size: 0x8, addend: 0x0, symName: '__ZN102_$LT$core..iter..adapters..map..Map$LT$I$C$F$GT$$u20$as$u20$core..iter..traits..iterator..Iterator$GT$8try_fold17h6d76f45dcc3c99d4E', symObjAddr: 0x6B0, symBinAddr: 0x46B2C, symSize: 0x58 }
  - { offset: 0xD83B7, size: 0x8, addend: 0x0, symName: '__ZN102_$LT$core..iter..adapters..map..Map$LT$I$C$F$GT$$u20$as$u20$core..iter..traits..iterator..Iterator$GT$8try_fold17h8ab5755eb73274a1E', symObjAddr: 0x708, symBinAddr: 0x46B84, symSize: 0x54 }
  - { offset: 0xD845A, size: 0x8, addend: 0x0, symName: '__ZN102_$LT$core..iter..adapters..map..Map$LT$I$C$F$GT$$u20$as$u20$core..iter..traits..iterator..Iterator$GT$8try_fold17hbc29ed861f05df4dE', symObjAddr: 0x75C, symBinAddr: 0x46BD8, symSize: 0x58 }
  - { offset: 0xD84FD, size: 0x8, addend: 0x0, symName: '__ZN102_$LT$core..iter..adapters..map..Map$LT$I$C$F$GT$$u20$as$u20$core..iter..traits..iterator..Iterator$GT$8try_fold17hf6383672bc8fdf41E', symObjAddr: 0x7B4, symBinAddr: 0x46C30, symSize: 0x4C }
  - { offset: 0xD857B, size: 0x8, addend: 0x0, symName: '__ZN102_$LT$core..iter..adapters..map..Map$LT$I$C$F$GT$$u20$as$u20$core..iter..traits..iterator..Iterator$GT$8try_fold17hfe48213684b07051E', symObjAddr: 0x800, symBinAddr: 0x46C7C, symSize: 0x54 }
  - { offset: 0xD861E, size: 0x8, addend: 0x0, symName: '__ZN102_$LT$core..iter..adapters..map..Map$LT$I$C$F$GT$$u20$as$u20$core..iter..traits..iterator..Iterator$GT$9size_hint17h1e03ae79ad124462E', symObjAddr: 0x854, symBinAddr: 0x46CD0, symSize: 0x24 }
  - { offset: 0xD8665, size: 0x8, addend: 0x0, symName: '__ZN102_$LT$core..iter..adapters..map..Map$LT$I$C$F$GT$$u20$as$u20$core..iter..traits..iterator..Iterator$GT$9size_hint17h20dc5d223a2b4227E', symObjAddr: 0x878, symBinAddr: 0x46CF4, symSize: 0x24 }
  - { offset: 0xD86AC, size: 0x8, addend: 0x0, symName: '__ZN102_$LT$core..iter..adapters..map..Map$LT$I$C$F$GT$$u20$as$u20$core..iter..traits..iterator..Iterator$GT$9size_hint17h326ee5983369ef81E', symObjAddr: 0x89C, symBinAddr: 0x46D18, symSize: 0x24 }
  - { offset: 0xD86F3, size: 0x8, addend: 0x0, symName: '__ZN102_$LT$core..iter..adapters..map..Map$LT$I$C$F$GT$$u20$as$u20$core..iter..traits..iterator..Iterator$GT$9size_hint17h39e2082a54015746E', symObjAddr: 0x8C0, symBinAddr: 0x46D3C, symSize: 0x24 }
  - { offset: 0xD873A, size: 0x8, addend: 0x0, symName: '__ZN102_$LT$core..iter..adapters..map..Map$LT$I$C$F$GT$$u20$as$u20$core..iter..traits..iterator..Iterator$GT$9size_hint17h40901728b9fc23b4E', symObjAddr: 0x8E4, symBinAddr: 0x46D60, symSize: 0x24 }
  - { offset: 0xD8781, size: 0x8, addend: 0x0, symName: '__ZN102_$LT$core..iter..adapters..map..Map$LT$I$C$F$GT$$u20$as$u20$core..iter..traits..iterator..Iterator$GT$9size_hint17h483a354572cdd342E', symObjAddr: 0x908, symBinAddr: 0x46D84, symSize: 0x24 }
  - { offset: 0xD87C8, size: 0x8, addend: 0x0, symName: '__ZN102_$LT$core..iter..adapters..map..Map$LT$I$C$F$GT$$u20$as$u20$core..iter..traits..iterator..Iterator$GT$9size_hint17h52a2002af4efe756E', symObjAddr: 0x92C, symBinAddr: 0x46DA8, symSize: 0x24 }
  - { offset: 0xD880F, size: 0x8, addend: 0x0, symName: '__ZN102_$LT$core..iter..adapters..map..Map$LT$I$C$F$GT$$u20$as$u20$core..iter..traits..iterator..Iterator$GT$9size_hint17h7d4738a190e75c6dE', symObjAddr: 0x950, symBinAddr: 0x46DCC, symSize: 0x24 }
  - { offset: 0xD8856, size: 0x8, addend: 0x0, symName: '__ZN102_$LT$core..iter..adapters..map..Map$LT$I$C$F$GT$$u20$as$u20$core..iter..traits..iterator..Iterator$GT$9size_hint17hc14acdc1f395a2b2E', symObjAddr: 0x974, symBinAddr: 0x46DF0, symSize: 0x24 }
  - { offset: 0xD889D, size: 0x8, addend: 0x0, symName: '__ZN102_$LT$core..iter..adapters..map..Map$LT$I$C$F$GT$$u20$as$u20$core..iter..traits..iterator..Iterator$GT$9size_hint17hce1d141fd6f2e283E', symObjAddr: 0x998, symBinAddr: 0x46E14, symSize: 0x24 }
  - { offset: 0xD88E4, size: 0x8, addend: 0x0, symName: '__ZN102_$LT$core..iter..adapters..map..Map$LT$I$C$F$GT$$u20$as$u20$core..iter..traits..iterator..Iterator$GT$9size_hint17hd247bd9cf1748898E', symObjAddr: 0x9BC, symBinAddr: 0x46E38, symSize: 0x24 }
  - { offset: 0xD892B, size: 0x8, addend: 0x0, symName: '__ZN102_$LT$core..iter..adapters..map..Map$LT$I$C$F$GT$$u20$as$u20$core..iter..traits..iterator..Iterator$GT$9size_hint17hdb0b021bc07d0095E', symObjAddr: 0x9E0, symBinAddr: 0x46E5C, symSize: 0x24 }
  - { offset: 0xD8972, size: 0x8, addend: 0x0, symName: '__ZN102_$LT$core..iter..adapters..map..Map$LT$I$C$F$GT$$u20$as$u20$core..iter..traits..iterator..Iterator$GT$9size_hint17hea3cc4707eb860acE', symObjAddr: 0xA04, symBinAddr: 0x46E80, symSize: 0x24 }
  - { offset: 0xD89B9, size: 0x8, addend: 0x0, symName: '__ZN102_$LT$core..iter..adapters..map..Map$LT$I$C$F$GT$$u20$as$u20$core..iter..traits..iterator..Iterator$GT$9size_hint17hef3e0f26e6570245E', symObjAddr: 0xA28, symBinAddr: 0x46EA4, symSize: 0x24 }
  - { offset: 0xD8B68, size: 0x8, addend: 0x0, symName: '__ZN4core4iter8adapters3map8map_fold28_$u7b$$u7b$closure$u7d$$u7d$17h1438389f21f3edc7E', symObjAddr: 0x19A8, symBinAddr: 0x47E24, symSize: 0xC4 }
  - { offset: 0xD8BF0, size: 0x8, addend: 0x0, symName: '__ZN4core4iter8adapters3map8map_fold28_$u7b$$u7b$closure$u7d$$u7d$17h1e3393ae8058c1fbE', symObjAddr: 0x1A6C, symBinAddr: 0x47EE8, symSize: 0x7C }
  - { offset: 0xD8C75, size: 0x8, addend: 0x0, symName: '__ZN4core4iter8adapters3map8map_fold28_$u7b$$u7b$closure$u7d$$u7d$17h408dc4a2f4f2f949E', symObjAddr: 0x1AE8, symBinAddr: 0x47F64, symSize: 0x84 }
  - { offset: 0xD8CFA, size: 0x8, addend: 0x0, symName: '__ZN4core4iter8adapters3map8map_fold28_$u7b$$u7b$closure$u7d$$u7d$17h49571b2a954b731aE', symObjAddr: 0x1B6C, symBinAddr: 0x47FE8, symSize: 0x8C }
  - { offset: 0xD8D80, size: 0x8, addend: 0x0, symName: '__ZN4core4iter8adapters3map8map_fold28_$u7b$$u7b$closure$u7d$$u7d$17h4a00c6fb12f99ab8E', symObjAddr: 0x1BF8, symBinAddr: 0x48074, symSize: 0x84 }
  - { offset: 0xD8E05, size: 0x8, addend: 0x0, symName: '__ZN4core4iter8adapters3map8map_fold28_$u7b$$u7b$closure$u7d$$u7d$17h5d148be7a34ac19dE', symObjAddr: 0x1C7C, symBinAddr: 0x480F8, symSize: 0x8C }
  - { offset: 0xD8E8A, size: 0x8, addend: 0x0, symName: '__ZN4core4iter8adapters3map8map_fold28_$u7b$$u7b$closure$u7d$$u7d$17h6af2d48f3b65662cE', symObjAddr: 0x1D08, symBinAddr: 0x48184, symSize: 0x98 }
  - { offset: 0xD8F13, size: 0x8, addend: 0x0, symName: '__ZN4core4iter8adapters3map8map_fold28_$u7b$$u7b$closure$u7d$$u7d$17h78a65e8e5b36c15bE', symObjAddr: 0x1DA0, symBinAddr: 0x4821C, symSize: 0x8C }
  - { offset: 0xD8F98, size: 0x8, addend: 0x0, symName: '__ZN4core4iter8adapters3map8map_fold28_$u7b$$u7b$closure$u7d$$u7d$17h87954453eacb7a68E', symObjAddr: 0x1E2C, symBinAddr: 0x482A8, symSize: 0x7C }
  - { offset: 0xD901D, size: 0x8, addend: 0x0, symName: '__ZN4core4iter8adapters3map8map_fold28_$u7b$$u7b$closure$u7d$$u7d$17h9277c5e5061cb7a9E', symObjAddr: 0x1EA8, symBinAddr: 0x48324, symSize: 0x98 }
  - { offset: 0xD90A3, size: 0x8, addend: 0x0, symName: '__ZN4core4iter8adapters3map8map_fold28_$u7b$$u7b$closure$u7d$$u7d$17ha6ee33a2c39c6e5fE', symObjAddr: 0x1F40, symBinAddr: 0x483BC, symSize: 0xA4 }
  - { offset: 0xD9128, size: 0x8, addend: 0x0, symName: '__ZN4core4iter8adapters3map8map_fold28_$u7b$$u7b$closure$u7d$$u7d$17he1204d7bce9a5624E', symObjAddr: 0x1FE4, symBinAddr: 0x48460, symSize: 0x8C }
  - { offset: 0xD91AD, size: 0x8, addend: 0x0, symName: '__ZN4core4iter8adapters3map8map_fold28_$u7b$$u7b$closure$u7d$$u7d$17he37ec0ac7bcfebeaE', symObjAddr: 0x2070, symBinAddr: 0x484EC, symSize: 0x84 }
  - { offset: 0xD9232, size: 0x8, addend: 0x0, symName: '__ZN4core4iter8adapters3map8map_fold28_$u7b$$u7b$closure$u7d$$u7d$17hf3ca0f8207b81118E', symObjAddr: 0x20F4, symBinAddr: 0x48570, symSize: 0x8C }
  - { offset: 0xD968C, size: 0x8, addend: 0x0, symName: '__ZN4core4iter8adapters3map12map_try_fold28_$u7b$$u7b$closure$u7d$$u7d$17h32b766bfe672faa5E', symObjAddr: 0x144C, symBinAddr: 0x478C8, symSize: 0xA8 }
  - { offset: 0xD971E, size: 0x8, addend: 0x0, symName: '__ZN4core4iter8adapters3map12map_try_fold28_$u7b$$u7b$closure$u7d$$u7d$17h3eecba8eaa4894c1E', symObjAddr: 0x14F4, symBinAddr: 0x47970, symSize: 0xC4 }
  - { offset: 0xD97B0, size: 0x8, addend: 0x0, symName: '__ZN4core4iter8adapters3map12map_try_fold28_$u7b$$u7b$closure$u7d$$u7d$17h80f9feb52b8241a7E', symObjAddr: 0x15B8, symBinAddr: 0x47A34, symSize: 0xC4 }
  - { offset: 0xD9842, size: 0x8, addend: 0x0, symName: '__ZN4core4iter8adapters3map12map_try_fold28_$u7b$$u7b$closure$u7d$$u7d$17h8fdc2aa3cef9033cE', symObjAddr: 0x167C, symBinAddr: 0x47AF8, symSize: 0x118 }
  - { offset: 0xD98D5, size: 0x8, addend: 0x0, symName: '__ZN4core4iter8adapters3map12map_try_fold28_$u7b$$u7b$closure$u7d$$u7d$17ha064d8215ba9804fE', symObjAddr: 0x1794, symBinAddr: 0x47C10, symSize: 0xA8 }
  - { offset: 0xD9967, size: 0x8, addend: 0x0, symName: '__ZN4core4iter8adapters3map12map_try_fold28_$u7b$$u7b$closure$u7d$$u7d$17hb2540e1cbac4384cE', symObjAddr: 0x183C, symBinAddr: 0x47CB8, symSize: 0xC4 }
  - { offset: 0xD99F9, size: 0x8, addend: 0x0, symName: '__ZN4core4iter8adapters3map12map_try_fold28_$u7b$$u7b$closure$u7d$$u7d$17hf2cf16dd6f843a5bE', symObjAddr: 0x1900, symBinAddr: 0x47D7C, symSize: 0xA8 }
  - { offset: 0xD9C62, size: 0x8, addend: 0x0, symName: '__ZN113_$LT$core..iter..adapters..map..Map$LT$I$C$F$GT$$u20$as$u20$core..iter..traits..exact_size..ExactSizeIterator$GT$3len17h151150c7c1e4df63E', symObjAddr: 0xA4C, symBinAddr: 0x46EC8, symSize: 0x44 }
  - { offset: 0xD9CE0, size: 0x8, addend: 0x0, symName: '__ZN113_$LT$core..iter..adapters..map..Map$LT$I$C$F$GT$$u20$as$u20$core..iter..traits..exact_size..ExactSizeIterator$GT$3len17h8c171967fc1a3cd2E', symObjAddr: 0xA90, symBinAddr: 0x46F0C, symSize: 0x44 }
  - { offset: 0xD9D5E, size: 0x8, addend: 0x0, symName: '__ZN113_$LT$core..iter..adapters..map..Map$LT$I$C$F$GT$$u20$as$u20$core..iter..traits..exact_size..ExactSizeIterator$GT$3len17hf5f2a2185189982bE', symObjAddr: 0xAD4, symBinAddr: 0x46F50, symSize: 0x44 }
  - { offset: 0xD9E15, size: 0x8, addend: 0x0, symName: '__ZN96_$LT$core..iter..adapters..map..Map$LT$I$C$F$GT$$u20$as$u20$core..iter..adapters..SourceIter$GT$8as_inner17h20c682361d155990E', symObjAddr: 0x2568, symBinAddr: 0x489E4, symSize: 0x24 }
  - { offset: 0xDA727, size: 0x8, addend: 0x0, symName: __ZN4core4iter6traits8iterator8Iterator4take17h7491ed1295d28fd4E, symObjAddr: 0xB18, symBinAddr: 0x46F94, symSize: 0x18 }
  - { offset: 0xDA76D, size: 0x8, addend: 0x0, symName: __ZN4core4iter6traits8iterator8Iterator4take17ha25a5b52c8ad9e51E, symObjAddr: 0xB30, symBinAddr: 0x46FAC, symSize: 0x18 }
  - { offset: 0xDA7B3, size: 0x8, addend: 0x0, symName: __ZN4core4iter6traits8iterator8Iterator4take17heebbd9e3a44174d3E, symObjAddr: 0xB48, symBinAddr: 0x46FC4, symSize: 0x18 }
  - { offset: 0xDA7F9, size: 0x8, addend: 0x0, symName: __ZN4core4iter6traits8iterator8Iterator6reduce17he6c85268cae4d4faE, symObjAddr: 0xB60, symBinAddr: 0x46FDC, symSize: 0x140 }
  - { offset: 0xDA8CD, size: 0x8, addend: 0x0, symName: __ZN4core4iter6traits8iterator8Iterator7collect17h08796649d2ddc3fcE, symObjAddr: 0xCA0, symBinAddr: 0x4711C, symSize: 0x60 }
  - { offset: 0xDA963, size: 0x8, addend: 0x0, symName: __ZN4core4iter6traits8iterator8Iterator7collect17h251d94a1eb0ba4eaE, symObjAddr: 0xD00, symBinAddr: 0x4717C, symSize: 0x68 }
  - { offset: 0xDA9F9, size: 0x8, addend: 0x0, symName: __ZN4core4iter6traits8iterator8Iterator7collect17h2a1eb5bbd2fc307bE, symObjAddr: 0xD68, symBinAddr: 0x471E4, symSize: 0x60 }
  - { offset: 0xDAA8E, size: 0x8, addend: 0x0, symName: __ZN4core4iter6traits8iterator8Iterator7collect17h4eefe71941483063E, symObjAddr: 0xDC8, symBinAddr: 0x47244, symSize: 0x74 }
  - { offset: 0xDAB24, size: 0x8, addend: 0x0, symName: __ZN4core4iter6traits8iterator8Iterator7collect17h7a17861dd4954cb6E, symObjAddr: 0xE3C, symBinAddr: 0x472B8, symSize: 0x60 }
  - { offset: 0xDABB9, size: 0x8, addend: 0x0, symName: __ZN4core4iter6traits8iterator8Iterator7collect17h96f796d7234cced8E, symObjAddr: 0xE9C, symBinAddr: 0x47318, symSize: 0x60 }
  - { offset: 0xDAC4E, size: 0x8, addend: 0x0, symName: __ZN4core4iter6traits8iterator8Iterator7collect17hb5e4ad6d431970abE, symObjAddr: 0xEFC, symBinAddr: 0x47378, symSize: 0x68 }
  - { offset: 0xDACE4, size: 0x8, addend: 0x0, symName: __ZN4core4iter6traits8iterator8Iterator7collect17hb9744a6c4f335279E, symObjAddr: 0xF64, symBinAddr: 0x473E0, symSize: 0x60 }
  - { offset: 0xDAD7A, size: 0x8, addend: 0x0, symName: __ZN4core4iter6traits8iterator8Iterator7collect17hc3be61d209e9e8b0E, symObjAddr: 0xFC4, symBinAddr: 0x47440, symSize: 0x60 }
  - { offset: 0xDAE0F, size: 0x8, addend: 0x0, symName: __ZN4core4iter6traits8iterator8Iterator7collect17he184697722b229c2E, symObjAddr: 0x1024, symBinAddr: 0x474A0, symSize: 0x74 }
  - { offset: 0xDAEA5, size: 0x8, addend: 0x0, symName: __ZN4core4iter6traits8iterator8Iterator7collect17hf13d8be5c067bdc0E, symObjAddr: 0x1098, symBinAddr: 0x47514, symSize: 0x60 }
  - { offset: 0xDAF3B, size: 0x8, addend: 0x0, symName: __ZN4core4iter6traits8iterator8Iterator7collect17hf190eedd07839bfaE, symObjAddr: 0x10F8, symBinAddr: 0x47574, symSize: 0x74 }
  - { offset: 0xDAFD1, size: 0x8, addend: 0x0, symName: __ZN4core4iter6traits8iterator8Iterator7collect17hf5121e40c9dae2c3E, symObjAddr: 0x116C, symBinAddr: 0x475E8, symSize: 0x60 }
  - { offset: 0xDB066, size: 0x8, addend: 0x0, symName: __ZN4core4iter6traits8iterator8Iterator8for_each17h084b1b9321e96730E, symObjAddr: 0x11CC, symBinAddr: 0x47648, symSize: 0x24 }
  - { offset: 0xDB0B2, size: 0x8, addend: 0x0, symName: __ZN4core4iter6traits8iterator8Iterator8for_each17h0e80903728722c95E, symObjAddr: 0x11F0, symBinAddr: 0x4766C, symSize: 0x34 }
  - { offset: 0xDB11E, size: 0x8, addend: 0x0, symName: __ZN4core4iter6traits8iterator8Iterator8for_each17h25667cfa00341c74E, symObjAddr: 0x1224, symBinAddr: 0x476A0, symSize: 0x44 }
  - { offset: 0xDB189, size: 0x8, addend: 0x0, symName: __ZN4core4iter6traits8iterator8Iterator8for_each17h3884da093f4432d5E, symObjAddr: 0x1268, symBinAddr: 0x476E4, symSize: 0x44 }
  - { offset: 0xDB1F4, size: 0x8, addend: 0x0, symName: __ZN4core4iter6traits8iterator8Iterator8for_each17h422e6d6f449527adE, symObjAddr: 0x12AC, symBinAddr: 0x47728, symSize: 0x34 }
  - { offset: 0xDB260, size: 0x8, addend: 0x0, symName: __ZN4core4iter6traits8iterator8Iterator8for_each17h7389c609b2d71dcaE, symObjAddr: 0x12E0, symBinAddr: 0x4775C, symSize: 0x44 }
  - { offset: 0xDB2CB, size: 0x8, addend: 0x0, symName: __ZN4core4iter6traits8iterator8Iterator8for_each17h8286fe471501edb5E, symObjAddr: 0x1324, symBinAddr: 0x477A0, symSize: 0x44 }
  - { offset: 0xDB336, size: 0x8, addend: 0x0, symName: __ZN4core4iter6traits8iterator8Iterator8for_each17hb95753beb3253518E, symObjAddr: 0x1368, symBinAddr: 0x477E4, symSize: 0x34 }
  - { offset: 0xDB3A2, size: 0x8, addend: 0x0, symName: __ZN4core4iter6traits8iterator8Iterator8for_each17hd39ef6c2f8dfaac7E, symObjAddr: 0x139C, symBinAddr: 0x47818, symSize: 0x34 }
  - { offset: 0xDB40E, size: 0x8, addend: 0x0, symName: __ZN4core4iter6traits8iterator8Iterator8for_each17he953bc954ccdbfd8E, symObjAddr: 0x13D0, symBinAddr: 0x4784C, symSize: 0x44 }
  - { offset: 0xDB479, size: 0x8, addend: 0x0, symName: __ZN4core4iter6traits8iterator8Iterator9enumerate17h1e737f51c971046aE, symObjAddr: 0x1414, symBinAddr: 0x47890, symSize: 0x38 }
  - { offset: 0xDB4EB, size: 0x8, addend: 0x0, symName: '__ZN72_$LT$$RF$mut$u20$I$u20$as$u20$core..iter..traits..iterator..Iterator$GT$8try_fold17h55550dbde2a1390cE', symObjAddr: 0x2340, symBinAddr: 0x487BC, symSize: 0x38 }
  - { offset: 0xDB55B, size: 0x8, addend: 0x0, symName: '__ZN72_$LT$$RF$mut$u20$I$u20$as$u20$core..iter..traits..iterator..Iterator$GT$8try_fold17h98545deb98bdaba2E', symObjAddr: 0x2378, symBinAddr: 0x487F4, symSize: 0x38 }
  - { offset: 0xDB5CB, size: 0x8, addend: 0x0, symName: '__ZN72_$LT$$RF$mut$u20$I$u20$as$u20$core..iter..traits..iterator..Iterator$GT$8try_fold17hb45524f0de0a1692E', symObjAddr: 0x23B0, symBinAddr: 0x4882C, symSize: 0x38 }
  - { offset: 0xDB641, size: 0x8, addend: 0x0, symName: '__ZN79_$LT$$RF$mut$u20$I$u20$as$u20$core..iter..traits..iterator..IteratorRefSpec$GT$13spec_try_fold17h1e073ef945514ae6E', symObjAddr: 0x23E8, symBinAddr: 0x48864, symSize: 0x3C }
  - { offset: 0xDB6B1, size: 0x8, addend: 0x0, symName: '__ZN79_$LT$$RF$mut$u20$I$u20$as$u20$core..iter..traits..iterator..IteratorRefSpec$GT$13spec_try_fold17hc62212c18fbd3497E', symObjAddr: 0x2424, symBinAddr: 0x488A0, symSize: 0x3C }
  - { offset: 0xDB721, size: 0x8, addend: 0x0, symName: '__ZN79_$LT$$RF$mut$u20$I$u20$as$u20$core..iter..traits..iterator..IteratorRefSpec$GT$13spec_try_fold17heb7c3d49ade0bab1E', symObjAddr: 0x2460, symBinAddr: 0x488DC, symSize: 0x3C }
  - { offset: 0xDB79D, size: 0x8, addend: 0x0, symName: '__ZN63_$LT$I$u20$as$u20$core..iter..traits..collect..IntoIterator$GT$9into_iter17h0eefe0d4fd8a14baE', symObjAddr: 0x2180, symBinAddr: 0x485FC, symSize: 0x18 }
  - { offset: 0xDB7D4, size: 0x8, addend: 0x0, symName: '__ZN63_$LT$I$u20$as$u20$core..iter..traits..collect..IntoIterator$GT$9into_iter17h28f74be0c8aee196E', symObjAddr: 0x2198, symBinAddr: 0x48614, symSize: 0x30 }
  - { offset: 0xDB80C, size: 0x8, addend: 0x0, symName: '__ZN63_$LT$I$u20$as$u20$core..iter..traits..collect..IntoIterator$GT$9into_iter17h4a21ebef293b61d0E', symObjAddr: 0x21C8, symBinAddr: 0x48644, symSize: 0x1C }
  - { offset: 0xDB843, size: 0x8, addend: 0x0, symName: '__ZN63_$LT$I$u20$as$u20$core..iter..traits..collect..IntoIterator$GT$9into_iter17h6eca418024a4930aE', symObjAddr: 0x21E4, symBinAddr: 0x48660, symSize: 0x30 }
  - { offset: 0xDB87B, size: 0x8, addend: 0x0, symName: '__ZN63_$LT$I$u20$as$u20$core..iter..traits..collect..IntoIterator$GT$9into_iter17h6ed86166555de10bE', symObjAddr: 0x2214, symBinAddr: 0x48690, symSize: 0x1C }
  - { offset: 0xDB8B2, size: 0x8, addend: 0x0, symName: '__ZN63_$LT$I$u20$as$u20$core..iter..traits..collect..IntoIterator$GT$9into_iter17h700828afc6a07c1dE', symObjAddr: 0x2230, symBinAddr: 0x486AC, symSize: 0x18 }
  - { offset: 0xDB8E9, size: 0x8, addend: 0x0, symName: '__ZN63_$LT$I$u20$as$u20$core..iter..traits..collect..IntoIterator$GT$9into_iter17h7ca5d024abaec406E', symObjAddr: 0x2248, symBinAddr: 0x486C4, symSize: 0x18 }
  - { offset: 0xDB920, size: 0x8, addend: 0x0, symName: '__ZN63_$LT$I$u20$as$u20$core..iter..traits..collect..IntoIterator$GT$9into_iter17h8131d1f50515923dE', symObjAddr: 0x2260, symBinAddr: 0x486DC, symSize: 0x30 }
  - { offset: 0xDB958, size: 0x8, addend: 0x0, symName: '__ZN63_$LT$I$u20$as$u20$core..iter..traits..collect..IntoIterator$GT$9into_iter17h8cc4b071420b6048E', symObjAddr: 0x2290, symBinAddr: 0x4870C, symSize: 0x1C }
  - { offset: 0xDB98F, size: 0x8, addend: 0x0, symName: '__ZN63_$LT$I$u20$as$u20$core..iter..traits..collect..IntoIterator$GT$9into_iter17h95ed987cf7773881E', symObjAddr: 0x22AC, symBinAddr: 0x48728, symSize: 0x18 }
  - { offset: 0xDB9C6, size: 0x8, addend: 0x0, symName: '__ZN63_$LT$I$u20$as$u20$core..iter..traits..collect..IntoIterator$GT$9into_iter17ha44f579a92c7c866E', symObjAddr: 0x22C4, symBinAddr: 0x48740, symSize: 0x14 }
  - { offset: 0xDB9FD, size: 0x8, addend: 0x0, symName: '__ZN63_$LT$I$u20$as$u20$core..iter..traits..collect..IntoIterator$GT$9into_iter17hae07e0175f782a3cE', symObjAddr: 0x22D8, symBinAddr: 0x48754, symSize: 0x30 }
  - { offset: 0xDBA35, size: 0x8, addend: 0x0, symName: '__ZN63_$LT$I$u20$as$u20$core..iter..traits..collect..IntoIterator$GT$9into_iter17hd73064b85f386e0dE', symObjAddr: 0x2308, symBinAddr: 0x48784, symSize: 0x1C }
  - { offset: 0xDBA6C, size: 0x8, addend: 0x0, symName: '__ZN63_$LT$I$u20$as$u20$core..iter..traits..collect..IntoIterator$GT$9into_iter17hea75488e327b4d3aE', symObjAddr: 0x2324, symBinAddr: 0x487A0, symSize: 0x1C }
  - { offset: 0xDE127, size: 0x8, addend: 0x0, symName: '__ZN83_$LT$I$u20$as$u20$alloc..vec..in_place_collect..SpecInPlaceCollect$LT$T$C$I$GT$$GT$16collect_in_place17h76ed574a62974409E', symObjAddr: 0x249C, symBinAddr: 0x48918, symSize: 0xCC }
  - { offset: 0xDFD1C, size: 0x8, addend: 0x0, symName: '__ZN5alloc3vec16Vec$LT$T$C$A$GT$13from_parts_in18precondition_check17hf911cb901b1974fbE', symObjAddr: 0x0, symBinAddr: 0x48A08, symSize: 0xAC }
  - { offset: 0xE01CE, size: 0x8, addend: 0x0, symName: '__ZN5alloc3vec16Vec$LT$T$C$A$GT$13from_parts_in18precondition_check17hf911cb901b1974fbE', symObjAddr: 0x0, symBinAddr: 0x48A08, symSize: 0xAC }
  - { offset: 0xE023C, size: 0x8, addend: 0x0, symName: '__ZN5alloc3vec16Vec$LT$T$C$A$GT$7set_len18precondition_check17he8ce4e04fd9831a1E', symObjAddr: 0xAC, symBinAddr: 0x48AB4, symSize: 0xAC }
  - { offset: 0xE02D8, size: 0x8, addend: 0x0, symName: '__ZN4core3str21_$LT$impl$u20$str$GT$20make_ascii_lowercase17h68d1b6c8c964bdd2E', symObjAddr: 0x0, symBinAddr: 0x48B60, symSize: 0xF0 }
  - { offset: 0xE0312, size: 0x8, addend: 0x0, symName: '__ZN4core3str21_$LT$impl$u20$str$GT$20make_ascii_lowercase17h68d1b6c8c964bdd2E', symObjAddr: 0x0, symBinAddr: 0x48B60, symSize: 0xF0 }
  - { offset: 0xE03EB, size: 0x8, addend: 0x0, symName: '__ZN4core3str21_$LT$impl$u20$str$GT$4trim17hac93f1c6b7af5a4dE', symObjAddr: 0xF0, symBinAddr: 0x48C50, symSize: 0x28 }
  - { offset: 0xE0419, size: 0x8, addend: 0x0, symName: '__ZN4core3str21_$LT$impl$u20$str$GT$5chars17h8848d19563ca2cd4E', symObjAddr: 0x118, symBinAddr: 0x48C78, symSize: 0x20 }
  - { offset: 0xE0487, size: 0x8, addend: 0x0, symName: '__ZN4core3str21_$LT$impl$u20$str$GT$8is_empty17h2a701534349c10e6E', symObjAddr: 0x138, symBinAddr: 0x48C98, symSize: 0x1C }
  - { offset: 0xE0755, size: 0x8, addend: 0x0, symName: __ZN4core4hint16assert_unchecked18precondition_check17hedff53e9115b934aE, symObjAddr: 0x0, symBinAddr: 0x48CB4, symSize: 0xA4 }
  - { offset: 0xE0A77, size: 0x8, addend: 0x0, symName: __ZN4core4hint16assert_unchecked18precondition_check17hedff53e9115b934aE, symObjAddr: 0x0, symBinAddr: 0x48CB4, symSize: 0xA4 }
  - { offset: 0xE0AD7, size: 0x8, addend: 0x0, symName: __ZN4core4hint21unreachable_unchecked18precondition_check17h18e75dd9f7720ce8E, symObjAddr: 0xA4, symBinAddr: 0x48D58, symSize: 0x84 }
  - { offset: 0xE0CEA, size: 0x8, addend: 0x0, symName: '__ZN4pyo35types5float64_$LT$impl$u20$pyo3..conversion..IntoPyObject$u20$for$u20$f64$GT$13into_pyobject17h786046f53616aaa7E', symObjAddr: 0x0, symBinAddr: 0x48DDC, symSize: 0x20 }
  - { offset: 0xE0D90, size: 0x8, addend: 0x0, symName: '__ZN4pyo35types5float64_$LT$impl$u20$pyo3..conversion..IntoPyObject$u20$for$u20$f64$GT$13into_pyobject17h786046f53616aaa7E', symObjAddr: 0x0, symBinAddr: 0x48DDC, symSize: 0x20 }
  - { offset: 0xE10DC, size: 0x8, addend: 0x0, symName: __ZN4core7unicode12unicode_data11white_space6lookup17hbeb84d4dfd543d34E, symObjAddr: 0x0, symBinAddr: 0x48DFC, symSize: 0x14C }
  - { offset: 0xE10FD, size: 0x8, addend: 0x0, symName: __ZN4core7unicode12unicode_data11white_space6lookup17hbeb84d4dfd543d34E, symObjAddr: 0x0, symBinAddr: 0x48DFC, symSize: 0x14C }
  - { offset: 0xE115B, size: 0x8, addend: 0x0, symName: '__ZN106_$LT$core..ops..range..Range$LT$usize$GT$$u20$as$u20$core..slice..index..SliceIndex$LT$$u5b$T$u5d$$GT$$GT$9index_mut17h197f3c8ab83605abE', symObjAddr: 0x0, symBinAddr: 0x48F48, symSize: 0xBC }
  - { offset: 0xE13FE, size: 0x8, addend: 0x0, symName: '__ZN106_$LT$core..ops..range..Range$LT$usize$GT$$u20$as$u20$core..slice..index..SliceIndex$LT$$u5b$T$u5d$$GT$$GT$9index_mut17h197f3c8ab83605abE', symObjAddr: 0x0, symBinAddr: 0x48F48, symSize: 0xBC }
  - { offset: 0xE14F2, size: 0x8, addend: 0x0, symName: '__ZN108_$LT$core..ops..range..RangeTo$LT$usize$GT$$u20$as$u20$core..slice..index..SliceIndex$LT$$u5b$T$u5d$$GT$$GT$3get17hcd3b2dd19ed98298E', symObjAddr: 0xBC, symBinAddr: 0x49004, symSize: 0x48 }
  - { offset: 0xE1538, size: 0x8, addend: 0x0, symName: '__ZN108_$LT$core..ops..range..RangeTo$LT$usize$GT$$u20$as$u20$core..slice..index..SliceIndex$LT$$u5b$T$u5d$$GT$$GT$9index_mut17he9424b91e2d358c0E', symObjAddr: 0x104, symBinAddr: 0x4904C, symSize: 0x54 }
  - { offset: 0xE15B8, size: 0x8, addend: 0x0, symName: '__ZN110_$LT$core..ops..range..RangeFrom$LT$usize$GT$$u20$as$u20$core..slice..index..SliceIndex$LT$$u5b$T$u5d$$GT$$GT$5index17h926eeca7fb20446cE', symObjAddr: 0x158, symBinAddr: 0x490A0, symSize: 0x94 }
  - { offset: 0xE180D, size: 0x8, addend: 0x0, symName: '__ZN4core4iter5range101_$LT$impl$u20$core..iter..traits..iterator..Iterator$u20$for$u20$core..ops..range..Range$LT$A$GT$$GT$4next17h9e681b516fc1445aE', symObjAddr: 0x1EC, symBinAddr: 0x49134, symSize: 0x24 }
  - { offset: 0xE184A, size: 0x8, addend: 0x0, symName: '__ZN89_$LT$core..ops..range..Range$LT$T$GT$$u20$as$u20$core..iter..range..RangeIteratorImpl$GT$9spec_next17h2f9b520b51e589f9E', symObjAddr: 0x224, symBinAddr: 0x4916C, symSize: 0x94 }
  - { offset: 0xE18D6, size: 0x8, addend: 0x0, symName: '__ZN63_$LT$I$u20$as$u20$core..iter..traits..collect..IntoIterator$GT$9into_iter17hd37a662a228f512bE', symObjAddr: 0x210, symBinAddr: 0x49158, symSize: 0x14 }
  - { offset: 0xE1BF5, size: 0x8, addend: 0x0, symName: __ZN4core4iter6traits8iterator8Iterator4fold17hfe02dee1547737b5E, symObjAddr: 0x0, symBinAddr: 0x49200, symSize: 0x13C }
  - { offset: 0xE1C31, size: 0x8, addend: 0x0, symName: '__ZN9hashbrown3raw21RawTable$LT$T$C$A$GT$14reserve_rehash28_$u7b$$u7b$closure$u7d$$u7d$17h14d04033d6ae894cE', symObjAddr: 0x6628, symBinAddr: 0x4C0E4, symSize: 0xC8 }
  - { offset: 0xE1DF6, size: 0x8, addend: 0x0, symName: '__ZN9hashbrown3raw21RawTable$LT$T$C$A$GT$14reserve_rehash28_$u7b$$u7b$closure$u7d$$u7d$17h294f09075a4a3efdE', symObjAddr: 0x66F0, symBinAddr: 0x4C1AC, symSize: 0xC8 }
  - { offset: 0xE1FBB, size: 0x8, addend: 0x0, symName: '__ZN9hashbrown3raw21RawTable$LT$T$C$A$GT$14reserve_rehash28_$u7b$$u7b$closure$u7d$$u7d$17h2dcf768a21620514E', symObjAddr: 0x67B8, symBinAddr: 0x4C274, symSize: 0xC8 }
  - { offset: 0xE2180, size: 0x8, addend: 0x0, symName: '__ZN9hashbrown3raw21RawTable$LT$T$C$A$GT$14reserve_rehash28_$u7b$$u7b$closure$u7d$$u7d$17h2eac3e90518a92aeE', symObjAddr: 0x6880, symBinAddr: 0x4C33C, symSize: 0x30 }
  - { offset: 0xE21D0, size: 0x8, addend: 0x0, symName: '__ZN9hashbrown3raw21RawTable$LT$T$C$A$GT$14reserve_rehash28_$u7b$$u7b$closure$u7d$$u7d$17h440c895e8d0cdf99E', symObjAddr: 0x68B0, symBinAddr: 0x4C36C, symSize: 0x30 }
  - { offset: 0xE2220, size: 0x8, addend: 0x0, symName: '__ZN9hashbrown3raw21RawTable$LT$T$C$A$GT$14reserve_rehash28_$u7b$$u7b$closure$u7d$$u7d$17h61c04da7194186d0E', symObjAddr: 0x68E0, symBinAddr: 0x4C39C, symSize: 0x30 }
  - { offset: 0xE2270, size: 0x8, addend: 0x0, symName: '__ZN9hashbrown3raw21RawTable$LT$T$C$A$GT$14reserve_rehash28_$u7b$$u7b$closure$u7d$$u7d$17h64eab96b20d1b4efE', symObjAddr: 0x6910, symBinAddr: 0x4C3CC, symSize: 0xC8 }
  - { offset: 0xE2435, size: 0x8, addend: 0x0, symName: '__ZN9hashbrown3raw21RawTable$LT$T$C$A$GT$14reserve_rehash28_$u7b$$u7b$closure$u7d$$u7d$17h91580bff268efa03E', symObjAddr: 0x69D8, symBinAddr: 0x4C494, symSize: 0x30 }
  - { offset: 0xE2485, size: 0x8, addend: 0x0, symName: '__ZN9hashbrown3raw21RawTable$LT$T$C$A$GT$14reserve_rehash28_$u7b$$u7b$closure$u7d$$u7d$17h9dad28c4c39423fdE', symObjAddr: 0x6A08, symBinAddr: 0x4C4C4, symSize: 0xC8 }
  - { offset: 0xE264A, size: 0x8, addend: 0x0, symName: '__ZN9hashbrown3raw21RawTable$LT$T$C$A$GT$14reserve_rehash28_$u7b$$u7b$closure$u7d$$u7d$17hca970cc8c69bc7fbE', symObjAddr: 0x6AD0, symBinAddr: 0x4C58C, symSize: 0xC8 }
  - { offset: 0xE280F, size: 0x8, addend: 0x0, symName: '__ZN9hashbrown3raw21RawTable$LT$T$C$A$GT$14reserve_rehash28_$u7b$$u7b$closure$u7d$$u7d$17he1fe7473956a17d7E', symObjAddr: 0x6B98, symBinAddr: 0x4C654, symSize: 0xC8 }
  - { offset: 0xE29F6, size: 0x8, addend: 0x0, symName: '__ZN9hashbrown3raw21RawTable$LT$T$C$A$GT$24find_or_find_insert_slot28_$u7b$$u7b$closure$u7d$$u7d$17h2cd9d69a2d054b92E', symObjAddr: 0x73DC, symBinAddr: 0x4CE98, symSize: 0xCC }
  - { offset: 0xE2BCB, size: 0x8, addend: 0x0, symName: '__ZN9hashbrown3raw21RawTable$LT$T$C$A$GT$24find_or_find_insert_slot28_$u7b$$u7b$closure$u7d$$u7d$17h55b5e44beb8a934eE', symObjAddr: 0x74A8, symBinAddr: 0x4CF64, symSize: 0xCC }
  - { offset: 0xE2DA0, size: 0x8, addend: 0x0, symName: '__ZN9hashbrown3raw21RawTable$LT$T$C$A$GT$24find_or_find_insert_slot28_$u7b$$u7b$closure$u7d$$u7d$17h63aac91a0a1d9486E', symObjAddr: 0x7574, symBinAddr: 0x4D030, symSize: 0xCC }
  - { offset: 0xE2F75, size: 0x8, addend: 0x0, symName: '__ZN9hashbrown3raw21RawTable$LT$T$C$A$GT$24find_or_find_insert_slot28_$u7b$$u7b$closure$u7d$$u7d$17h6790a29d85d82ffaE', symObjAddr: 0x7640, symBinAddr: 0x4D0FC, symSize: 0xCC }
  - { offset: 0xE314A, size: 0x8, addend: 0x0, symName: '__ZN9hashbrown3raw21RawTable$LT$T$C$A$GT$24find_or_find_insert_slot28_$u7b$$u7b$closure$u7d$$u7d$17he57a896cd17d97d2E', symObjAddr: 0x770C, symBinAddr: 0x4D1C8, symSize: 0xCC }
  - { offset: 0xE3325, size: 0x8, addend: 0x0, symName: '__ZN9hashbrown3raw21RawTable$LT$T$C$A$GT$4find28_$u7b$$u7b$closure$u7d$$u7d$17h8c9b653a3c572a09E', symObjAddr: 0x87CC, symBinAddr: 0x4E288, symSize: 0xCC }
  - { offset: 0xE34F1, size: 0x8, addend: 0x0, symName: '__ZN9hashbrown3raw21RawTable$LT$T$C$A$GT$4find28_$u7b$$u7b$closure$u7d$$u7d$17hceef08374e9e8665E', symObjAddr: 0x8898, symBinAddr: 0x4E354, symSize: 0xCC }
  - { offset: 0xE36BD, size: 0x8, addend: 0x0, symName: '__ZN9hashbrown3raw21RawTable$LT$T$C$A$GT$4find28_$u7b$$u7b$closure$u7d$$u7d$17hdbc9e92ef024f9c0E', symObjAddr: 0x8964, symBinAddr: 0x4E420, symSize: 0xCC }
  - { offset: 0xE3889, size: 0x8, addend: 0x0, symName: '__ZN9hashbrown3raw21RawTable$LT$T$C$A$GT$4find28_$u7b$$u7b$closure$u7d$$u7d$17hf76071ab4db5ab6aE', symObjAddr: 0x8A30, symBinAddr: 0x4E4EC, symSize: 0xCC }
  - { offset: 0xE3A55, size: 0x8, addend: 0x0, symName: '__ZN9hashbrown3raw21RawTable$LT$T$C$A$GT$4find28_$u7b$$u7b$closure$u7d$$u7d$17hf7e5b661d8eab284E', symObjAddr: 0x8AFC, symBinAddr: 0x4E5B8, symSize: 0xCC }
  - { offset: 0xE5381, size: 0x8, addend: 0x0, symName: '__ZN99_$LT$hashbrown..raw..RawIntoIter$LT$T$C$A$GT$$u20$as$u20$core..iter..traits..iterator..Iterator$GT$4next17hab2fd27327eb8302E', symObjAddr: 0x13C, symBinAddr: 0x4933C, symSize: 0x104 }
  - { offset: 0xE5516, size: 0x8, addend: 0x0, symName: '__ZN99_$LT$hashbrown..raw..RawTable$LT$T$C$A$GT$$u20$as$u20$core..iter..traits..collect..IntoIterator$GT$9into_iter17he373147cef7ec6d7E', symObjAddr: 0x240, symBinAddr: 0x49440, symSize: 0x11C }
  - { offset: 0xEA335, size: 0x8, addend: 0x0, symName: __ZN4core4iter6traits8iterator8Iterator4fold17hfe02dee1547737b5E, symObjAddr: 0x0, symBinAddr: 0x49200, symSize: 0x13C }
  - { offset: 0xEC4FB, size: 0x8, addend: 0x0, symName: __ZN9hashbrown3raw13RawTableInner13drop_elements17h3a47317e135ea4f0E, symObjAddr: 0x35C, symBinAddr: 0x4955C, symSize: 0x28 }
  - { offset: 0xEC760, size: 0x8, addend: 0x0, symName: __ZN9hashbrown3raw13RawTableInner13drop_elements17h7207219275f65829E, symObjAddr: 0x384, symBinAddr: 0x49584, symSize: 0x178 }
  - { offset: 0xECA2D, size: 0x8, addend: 0x0, symName: __ZN9hashbrown3raw13RawTableInner13drop_elements17h79b24ec13f5a4092E, symObjAddr: 0x4FC, symBinAddr: 0x496FC, symSize: 0x28 }
  - { offset: 0xECC92, size: 0x8, addend: 0x0, symName: __ZN9hashbrown3raw13RawTableInner13drop_elements17h901873c6c7f92b9dE, symObjAddr: 0x524, symBinAddr: 0x49724, symSize: 0x178 }
  - { offset: 0xED004, size: 0x8, addend: 0x0, symName: __ZN9hashbrown3raw13RawTableInner13drop_elements17ha499244432e3ec9aE, symObjAddr: 0x69C, symBinAddr: 0x4989C, symSize: 0x178 }
  - { offset: 0xED316, size: 0x8, addend: 0x0, symName: __ZN9hashbrown3raw13RawTableInner13drop_elements17ha529fc0a3a063967E, symObjAddr: 0x814, symBinAddr: 0x49A14, symSize: 0x28 }
  - { offset: 0xED4FD, size: 0x8, addend: 0x0, symName: __ZN9hashbrown3raw13RawTableInner13drop_elements17hb171003ef0bdb686E, symObjAddr: 0x83C, symBinAddr: 0x49A3C, symSize: 0x28 }
  - { offset: 0xED762, size: 0x8, addend: 0x0, symName: __ZN9hashbrown3raw13RawTableInner13drop_elements17hbdab315f28b20fbdE, symObjAddr: 0x864, symBinAddr: 0x49A64, symSize: 0x178 }
  - { offset: 0xEDAF2, size: 0x8, addend: 0x0, symName: __ZN9hashbrown3raw13RawTableInner13drop_elements17hf866d2b1aa4824acE, symObjAddr: 0x9DC, symBinAddr: 0x49BDC, symSize: 0x178 }
  - { offset: 0xEDDE6, size: 0x8, addend: 0x0, symName: __ZN9hashbrown3raw13RawTableInner13drop_elements17hfef160f5750fef89E, symObjAddr: 0xB54, symBinAddr: 0x49D54, symSize: 0x28 }
  - { offset: 0xEE1AA, size: 0x8, addend: 0x0, symName: __ZN9hashbrown3raw13RawTableInner16drop_inner_table17h5850a30301787962E, symObjAddr: 0xB7C, symBinAddr: 0x49D7C, symSize: 0xBC }
  - { offset: 0xEE455, size: 0x8, addend: 0x0, symName: __ZN9hashbrown3raw13RawTableInner16drop_inner_table17h663768eaa8a51fb8E, symObjAddr: 0xC38, symBinAddr: 0x49E38, symSize: 0xBC }
  - { offset: 0xEE700, size: 0x8, addend: 0x0, symName: __ZN9hashbrown3raw13RawTableInner16drop_inner_table17h6d9268b1b7328690E, symObjAddr: 0xCF4, symBinAddr: 0x49EF4, symSize: 0xBC }
  - { offset: 0xEE9AB, size: 0x8, addend: 0x0, symName: __ZN9hashbrown3raw13RawTableInner16drop_inner_table17h74222673e08883e7E, symObjAddr: 0xDB0, symBinAddr: 0x49FB0, symSize: 0xBC }
  - { offset: 0xEEC56, size: 0x8, addend: 0x0, symName: __ZN9hashbrown3raw13RawTableInner16drop_inner_table17h978fef09fd50e4cdE, symObjAddr: 0xE6C, symBinAddr: 0x4A06C, symSize: 0xBC }
  - { offset: 0xEEF01, size: 0x8, addend: 0x0, symName: __ZN9hashbrown3raw13RawTableInner16drop_inner_table17hb077f7ea8f2960eeE, symObjAddr: 0xF28, symBinAddr: 0x4A128, symSize: 0xBC }
  - { offset: 0xEF1AC, size: 0x8, addend: 0x0, symName: __ZN9hashbrown3raw13RawTableInner16drop_inner_table17hc49e28af559d00f1E, symObjAddr: 0xFE4, symBinAddr: 0x4A1E4, symSize: 0xBC }
  - { offset: 0xEF457, size: 0x8, addend: 0x0, symName: __ZN9hashbrown3raw13RawTableInner16drop_inner_table17hc7ddc4429106f296E, symObjAddr: 0x10A0, symBinAddr: 0x4A2A0, symSize: 0xBC }
  - { offset: 0xEF702, size: 0x8, addend: 0x0, symName: __ZN9hashbrown3raw13RawTableInner16drop_inner_table17he8c33e8d660e8ebcE, symObjAddr: 0x115C, symBinAddr: 0x4A35C, symSize: 0xBC }
  - { offset: 0xEF9AD, size: 0x8, addend: 0x0, symName: __ZN9hashbrown3raw13RawTableInner16drop_inner_table17hebd975729895b111E, symObjAddr: 0x1218, symBinAddr: 0x4A418, symSize: 0xBC }
  - { offset: 0xEFB86, size: 0x8, addend: 0x0, symName: '__ZN9hashbrown3raw16RawIter$LT$T$GT$13drop_elements17hf65247ddbf20a43dE', symObjAddr: 0x12D4, symBinAddr: 0x4A4D4, symSize: 0x1C }
  - { offset: 0xEFC99, size: 0x8, addend: 0x0, symName: '__ZN9hashbrown3raw21RawIterRange$LT$T$GT$3new17h09bbf026b55182bdE', symObjAddr: 0x12F0, symBinAddr: 0x4A4F0, symSize: 0xC0 }
  - { offset: 0xEFF39, size: 0x8, addend: 0x0, symName: '__ZN9hashbrown3raw21RawIterRange$LT$T$GT$3new17h0b948c75aef20badE', symObjAddr: 0x13B0, symBinAddr: 0x4A5B0, symSize: 0xC0 }
  - { offset: 0xF01D9, size: 0x8, addend: 0x0, symName: '__ZN9hashbrown3raw21RawIterRange$LT$T$GT$3new17h6e7418c2e769a892E', symObjAddr: 0x1470, symBinAddr: 0x4A670, symSize: 0xC0 }
  - { offset: 0xF0479, size: 0x8, addend: 0x0, symName: '__ZN9hashbrown3raw21RawIterRange$LT$T$GT$3new17hbe93404e5ad8ded3E', symObjAddr: 0x1530, symBinAddr: 0x4A730, symSize: 0xC0 }
  - { offset: 0xF0719, size: 0x8, addend: 0x0, symName: '__ZN9hashbrown3raw21RawIterRange$LT$T$GT$3new17hcd61ed76204c7722E', symObjAddr: 0x15F0, symBinAddr: 0x4A7F0, symSize: 0xC0 }
  - { offset: 0xF09B9, size: 0x8, addend: 0x0, symName: '__ZN9hashbrown3raw21RawIterRange$LT$T$GT$3new17hee6287b50c25602fE', symObjAddr: 0x16B0, symBinAddr: 0x4A8B0, symSize: 0xC0 }
  - { offset: 0xF0E42, size: 0x8, addend: 0x0, symName: '__ZN9hashbrown3raw21RawIterRange$LT$T$GT$9fold_impl17h7ed2593118358a54E', symObjAddr: 0x1770, symBinAddr: 0x4A970, symSize: 0x264 }
  - { offset: 0xF132F, size: 0x8, addend: 0x0, symName: '__ZN9hashbrown3raw21RawIterRange$LT$T$GT$9next_impl17h0e2bb3d57c11c7b6E', symObjAddr: 0x19D4, symBinAddr: 0x4ABD4, symSize: 0x1E8 }
  - { offset: 0xF17C4, size: 0x8, addend: 0x0, symName: '__ZN9hashbrown3raw21RawIterRange$LT$T$GT$9next_impl17h13ad69187ce3fd87E', symObjAddr: 0x1BBC, symBinAddr: 0x4ADBC, symSize: 0x1E8 }
  - { offset: 0xF1C59, size: 0x8, addend: 0x0, symName: '__ZN9hashbrown3raw21RawIterRange$LT$T$GT$9next_impl17haaaec0ab7e2ae38dE', symObjAddr: 0x1DA4, symBinAddr: 0x4AFA4, symSize: 0x1E8 }
  - { offset: 0xF20EE, size: 0x8, addend: 0x0, symName: '__ZN9hashbrown3raw21RawIterRange$LT$T$GT$9next_impl17hc4a3d3b02fed6691E', symObjAddr: 0x1F8C, symBinAddr: 0x4B18C, symSize: 0x1E8 }
  - { offset: 0xF2583, size: 0x8, addend: 0x0, symName: '__ZN9hashbrown3raw21RawIterRange$LT$T$GT$9next_impl17he95b41f76b2e0779E', symObjAddr: 0x2174, symBinAddr: 0x4B374, symSize: 0x1E8 }
  - { offset: 0xF2A18, size: 0x8, addend: 0x0, symName: '__ZN9hashbrown3raw21RawIterRange$LT$T$GT$9next_impl17heb74ffb35d44020dE', symObjAddr: 0x235C, symBinAddr: 0x4B55C, symSize: 0x1E8 }
  - { offset: 0xF2F5E, size: 0x8, addend: 0x0, symName: '__ZN9hashbrown3raw21RawTable$LT$T$C$A$GT$14insert_in_slot17h1c3f71c1064dcbdaE', symObjAddr: 0x2544, symBinAddr: 0x4B744, symSize: 0x140 }
  - { offset: 0xF34D2, size: 0x8, addend: 0x0, symName: '__ZN9hashbrown3raw21RawTable$LT$T$C$A$GT$14insert_in_slot17h8835e2dc40962dd9E', symObjAddr: 0x2684, symBinAddr: 0x4B884, symSize: 0x148 }
  - { offset: 0xF3A52, size: 0x8, addend: 0x0, symName: '__ZN9hashbrown3raw21RawTable$LT$T$C$A$GT$14insert_in_slot17hb2ced08bdea3c6a5E', symObjAddr: 0x27CC, symBinAddr: 0x4B9CC, symSize: 0x148 }
  - { offset: 0xF3FD2, size: 0x8, addend: 0x0, symName: '__ZN9hashbrown3raw21RawTable$LT$T$C$A$GT$14insert_in_slot17hb739d8dfc4c0793cE', symObjAddr: 0x2914, symBinAddr: 0x4BB14, symSize: 0x140 }
  - { offset: 0xF4546, size: 0x8, addend: 0x0, symName: '__ZN9hashbrown3raw21RawTable$LT$T$C$A$GT$14insert_in_slot17hfe21ebb1686ec538E', symObjAddr: 0x2A54, symBinAddr: 0x4BC54, symSize: 0x140 }
  - { offset: 0xF4A32, size: 0x8, addend: 0x0, symName: '__ZN9hashbrown3raw21RawTable$LT$T$C$A$GT$14insert_no_grow17h0ed60634e4811fbfE', symObjAddr: 0x2B94, symBinAddr: 0x4BD94, symSize: 0x164 }
  - { offset: 0xF4DF4, size: 0x8, addend: 0x0, symName: '__ZN9hashbrown3raw21RawTable$LT$T$C$A$GT$14insert_no_grow17hc6c457e5852bf79dE', symObjAddr: 0x2CF8, symBinAddr: 0x4BEF8, symSize: 0x15C }
  - { offset: 0xF507B, size: 0x8, addend: 0x0, symName: '__ZN9hashbrown3raw21RawTable$LT$T$C$A$GT$14into_iter_from17h250b0a85bff5a72bE', symObjAddr: 0x2E54, symBinAddr: 0x4C054, symSize: 0x90 }
  - { offset: 0xF5574, size: 0x8, addend: 0x0, symName: '__ZN9hashbrown3raw21RawTable$LT$T$C$A$GT$14reserve_rehash17h23c376c0c1facfb0E', symObjAddr: 0x2EE4, symBinAddr: 0x1B9384, symSize: 0x7EC }
  - { offset: 0xF5EBD, size: 0x8, addend: 0x0, symName: '__ZN9hashbrown3raw21RawTable$LT$T$C$A$GT$14reserve_rehash17h309c4d9e2d8a9540E', symObjAddr: 0x36D0, symBinAddr: 0x1B9B70, symSize: 0x7EC }
  - { offset: 0xF6806, size: 0x8, addend: 0x0, symName: '__ZN9hashbrown3raw21RawTable$LT$T$C$A$GT$14reserve_rehash17h334fe759e0688b86E', symObjAddr: 0x3EBC, symBinAddr: 0x1BA35C, symSize: 0x7DC }
  - { offset: 0xF714F, size: 0x8, addend: 0x0, symName: '__ZN9hashbrown3raw21RawTable$LT$T$C$A$GT$14reserve_rehash17h7be0dc11d06e7521E', symObjAddr: 0x4698, symBinAddr: 0x1BAB38, symSize: 0x7DC }
  - { offset: 0xF7A98, size: 0x8, addend: 0x0, symName: '__ZN9hashbrown3raw21RawTable$LT$T$C$A$GT$14reserve_rehash17ha9c45ed88885b138E', symObjAddr: 0x4E74, symBinAddr: 0x1BB314, symSize: 0x7EC }
  - { offset: 0xF83E1, size: 0x8, addend: 0x0, symName: '__ZN9hashbrown3raw21RawTable$LT$T$C$A$GT$14reserve_rehash17hdc0354ca42bb241dE', symObjAddr: 0x5660, symBinAddr: 0x1BBB00, symSize: 0x7EC }
  - { offset: 0xF8D2A, size: 0x8, addend: 0x0, symName: '__ZN9hashbrown3raw21RawTable$LT$T$C$A$GT$14reserve_rehash17hfb2d384a94109e1fE', symObjAddr: 0x5E4C, symBinAddr: 0x1BC2EC, symSize: 0x7DC }
  - { offset: 0xF9FB4, size: 0x8, addend: 0x0, symName: '__ZN9hashbrown3raw21RawTable$LT$T$C$A$GT$15into_allocation17h7f66d3286513d453E', symObjAddr: 0x6C60, symBinAddr: 0x4C71C, symSize: 0x13C }
  - { offset: 0xFA1AA, size: 0x8, addend: 0x0, symName: '__ZN9hashbrown3raw21RawTable$LT$T$C$A$GT$24find_or_find_insert_slot17h378eb6e10b4706eeE', symObjAddr: 0x6D9C, symBinAddr: 0x4C858, symSize: 0x140 }
  - { offset: 0xFA436, size: 0x8, addend: 0x0, symName: '__ZN9hashbrown3raw21RawTable$LT$T$C$A$GT$24find_or_find_insert_slot17h7e016e8e55459c5aE', symObjAddr: 0x6EDC, symBinAddr: 0x4C998, symSize: 0x140 }
  - { offset: 0xFA6C2, size: 0x8, addend: 0x0, symName: '__ZN9hashbrown3raw21RawTable$LT$T$C$A$GT$24find_or_find_insert_slot17hd0988699f2e174aaE', symObjAddr: 0x701C, symBinAddr: 0x4CAD8, symSize: 0x140 }
  - { offset: 0xFA94E, size: 0x8, addend: 0x0, symName: '__ZN9hashbrown3raw21RawTable$LT$T$C$A$GT$24find_or_find_insert_slot17hd404438d05d64461E', symObjAddr: 0x715C, symBinAddr: 0x4CC18, symSize: 0x140 }
  - { offset: 0xFABDA, size: 0x8, addend: 0x0, symName: '__ZN9hashbrown3raw21RawTable$LT$T$C$A$GT$24find_or_find_insert_slot17hdbd289c286ebbe0cE', symObjAddr: 0x729C, symBinAddr: 0x4CD58, symSize: 0x140 }
  - { offset: 0xFB6D2, size: 0x8, addend: 0x0, symName: '__ZN9hashbrown3raw21RawTable$LT$T$C$A$GT$4find17h33a178841c84a304E', symObjAddr: 0x77D8, symBinAddr: 0x4D294, symSize: 0x330 }
  - { offset: 0xFBC4D, size: 0x8, addend: 0x0, symName: '__ZN9hashbrown3raw21RawTable$LT$T$C$A$GT$4find17h3735efb1b452e954E', symObjAddr: 0x7B08, symBinAddr: 0x4D5C4, symSize: 0x330 }
  - { offset: 0xFC1C8, size: 0x8, addend: 0x0, symName: '__ZN9hashbrown3raw21RawTable$LT$T$C$A$GT$4find17h60ad954ed78466f3E', symObjAddr: 0x7E38, symBinAddr: 0x4D8F4, symSize: 0x330 }
  - { offset: 0xFC743, size: 0x8, addend: 0x0, symName: '__ZN9hashbrown3raw21RawTable$LT$T$C$A$GT$4find17h68b20379858730e3E', symObjAddr: 0x8168, symBinAddr: 0x4DC24, symSize: 0x330 }
  - { offset: 0xFCCBE, size: 0x8, addend: 0x0, symName: '__ZN9hashbrown3raw21RawTable$LT$T$C$A$GT$4find17hfaffdb97041cb15bE', symObjAddr: 0x8498, symBinAddr: 0x4DF54, symSize: 0x334 }
  - { offset: 0xFD827, size: 0x8, addend: 0x0, symName: '__ZN9hashbrown3raw21RawTable$LT$T$C$A$GT$7reserve17h1a26775ec47f0ebcE', symObjAddr: 0x8BC8, symBinAddr: 0x4E684, symSize: 0xCC }
  - { offset: 0xFD93C, size: 0x8, addend: 0x0, symName: '__ZN9hashbrown3raw21RawTable$LT$T$C$A$GT$7reserve17h1c8a174796af902aE', symObjAddr: 0x8C94, symBinAddr: 0x4E750, symSize: 0xCC }
  - { offset: 0xFDA51, size: 0x8, addend: 0x0, symName: '__ZN9hashbrown3raw21RawTable$LT$T$C$A$GT$7reserve17h25c1fae58cf78db6E', symObjAddr: 0x8D60, symBinAddr: 0x4E81C, symSize: 0xCC }
  - { offset: 0xFDB66, size: 0x8, addend: 0x0, symName: '__ZN9hashbrown3raw21RawTable$LT$T$C$A$GT$7reserve17h364b7b3b8180f1dbE', symObjAddr: 0x8E2C, symBinAddr: 0x4E8E8, symSize: 0xCC }
  - { offset: 0xFDC7B, size: 0x8, addend: 0x0, symName: '__ZN9hashbrown3raw21RawTable$LT$T$C$A$GT$7reserve17h79c2d0b35cd7caefE', symObjAddr: 0x8EF8, symBinAddr: 0x4E9B4, symSize: 0xCC }
  - { offset: 0xFDD90, size: 0x8, addend: 0x0, symName: '__ZN9hashbrown3raw21RawTable$LT$T$C$A$GT$7reserve17h9d183329459ed708E', symObjAddr: 0x8FC4, symBinAddr: 0x4EA80, symSize: 0xCC }
  - { offset: 0xFDEA5, size: 0x8, addend: 0x0, symName: '__ZN9hashbrown3raw21RawTable$LT$T$C$A$GT$7reserve17h9dcfe5155da8511eE', symObjAddr: 0x9090, symBinAddr: 0x4EB4C, symSize: 0xCC }
  - { offset: 0xFE017, size: 0x8, addend: 0x0, symName: __ZN4pyo35types10typeobject6PyType22from_borrowed_type_ptr17hfc82a82c5149d14fE, symObjAddr: 0x0, symBinAddr: 0x4EC18, symSize: 0x34 }
  - { offset: 0xFE32A, size: 0x8, addend: 0x0, symName: __ZN4pyo35types10typeobject6PyType22from_borrowed_type_ptr17hfc82a82c5149d14fE, symObjAddr: 0x0, symBinAddr: 0x4EC18, symSize: 0x34 }
  - { offset: 0xFE383, size: 0x8, addend: 0x0, symName: __ZN4pyo33err5PyErr16write_unraisable17ha22a437f9fb99231E, symObjAddr: 0x0, symBinAddr: 0x4EC4C, symSize: 0x34 }
  - { offset: 0xFEC32, size: 0x8, addend: 0x0, symName: __ZN4pyo33err5PyErr16write_unraisable17ha22a437f9fb99231E, symObjAddr: 0x0, symBinAddr: 0x4EC4C, symSize: 0x34 }
  - { offset: 0xFEC80, size: 0x8, addend: 0x0, symName: __ZN4pyo33err5PyErr7restore17h800bccb1418d51f3E, symObjAddr: 0x34, symBinAddr: 0x4EC80, symSize: 0x38 }
  - { offset: 0xFECDD, size: 0x8, addend: 0x0, symName: '__ZN100_$LT$core..iter..adapters..skip..Skip$LT$I$GT$$u20$as$u20$core..iter..traits..iterator..Iterator$GT$4next17h450b56291ebe25c1E', symObjAddr: 0x0, symBinAddr: 0x4ECB8, symSize: 0x78 }
  - { offset: 0xFEE01, size: 0x8, addend: 0x0, symName: '__ZN100_$LT$core..iter..adapters..skip..Skip$LT$I$GT$$u20$as$u20$core..iter..traits..iterator..Iterator$GT$4next17h450b56291ebe25c1E', symObjAddr: 0x0, symBinAddr: 0x4ECB8, symSize: 0x78 }
  - { offset: 0xFEE86, size: 0x8, addend: 0x0, symName: '__ZN100_$LT$core..iter..adapters..skip..Skip$LT$I$GT$$u20$as$u20$core..iter..traits..iterator..Iterator$GT$4next17hb8f6d08f5820b9faE', symObjAddr: 0x78, symBinAddr: 0x4ED30, symSize: 0x78 }
  - { offset: 0xFEF71, size: 0x8, addend: 0x0, symName: '__ZN63_$LT$I$u20$as$u20$core..iter..traits..collect..IntoIterator$GT$9into_iter17h51bf258e5cc9b688E', symObjAddr: 0xF0, symBinAddr: 0x4EDA8, symSize: 0x18 }
  - { offset: 0xFEFA8, size: 0x8, addend: 0x0, symName: '__ZN63_$LT$I$u20$as$u20$core..iter..traits..collect..IntoIterator$GT$9into_iter17h5ef26b043373666dE', symObjAddr: 0x108, symBinAddr: 0x4EDC0, symSize: 0x18 }
  - { offset: 0xFF3F7, size: 0x8, addend: 0x0, symName: '__ZN64_$LT$core..str..error..Utf8Error$u20$as$u20$core..fmt..Debug$GT$3fmt17hc8cdd04270c50de1E', symObjAddr: 0x0, symBinAddr: 0x4EDD8, symSize: 0x88 }
  - { offset: 0xFF48E, size: 0x8, addend: 0x0, symName: '__ZN64_$LT$core..str..error..Utf8Error$u20$as$u20$core..fmt..Debug$GT$3fmt17hc8cdd04270c50de1E', symObjAddr: 0x0, symBinAddr: 0x4EDD8, symSize: 0x88 }
  - { offset: 0xFF66B, size: 0x8, addend: 0x0, symName: '__ZN4pyo311conversions3std6string86_$LT$impl$u20$pyo3..conversion..IntoPyObject$u20$for$u20$$RF$alloc..string..String$GT$13into_pyobject17h4b9c754b633214ddE', symObjAddr: 0x0, symBinAddr: 0x4EE60, symSize: 0x28 }
  - { offset: 0xFFAE0, size: 0x8, addend: 0x0, symName: '__ZN65_$LT$alloc..string..String$u20$as$u20$core..ops..deref..Deref$GT$5deref17h64f6f9ca7c383d84E', symObjAddr: 0x580, symBinAddr: 0x4F3E0, symSize: 0x24 }
  - { offset: 0xFFB32, size: 0x8, addend: 0x0, symName: '__ZN58_$LT$alloc..string..String$u20$as$u20$core..fmt..Debug$GT$3fmt17hb694ff3314536dccE', symObjAddr: 0x28, symBinAddr: 0x4EE88, symSize: 0x88 }
  - { offset: 0xFFCB8, size: 0x8, addend: 0x0, symName: '__ZN62_$LT$alloc..string..String$u20$as$u20$core..cmp..PartialEq$GT$2eq17hbb8ab07e553b74e7E', symObjAddr: 0x4CC, symBinAddr: 0x4F32C, symSize: 0x2C }
  - { offset: 0xFFCFB, size: 0x8, addend: 0x0, symName: '__ZN65_$LT$alloc..string..FromUtf8Error$u20$as$u20$core..fmt..Debug$GT$3fmt17h8d37c6ee3056d1deE', symObjAddr: 0x4F8, symBinAddr: 0x4F358, symSize: 0x88 }
  - { offset: 0xFFD3E, size: 0x8, addend: 0x0, symName: '__ZN73_$LT$alloc..string..String$u20$as$u20$core..convert..AsRef$LT$str$GT$$GT$6as_ref17hfb51ef37e7df7c77E', symObjAddr: 0x5A4, symBinAddr: 0x4F404, symSize: 0x24 }
  - { offset: 0xFFD96, size: 0x8, addend: 0x0, symName: '__ZN5alloc3str83_$LT$impl$u20$core..borrow..Borrow$LT$str$GT$$u20$for$u20$alloc..string..String$GT$6borrow17h15446a06ef47e3b1E', symObjAddr: 0xB0, symBinAddr: 0x4EF10, symSize: 0x2C }
  - { offset: 0x1005ED, size: 0x8, addend: 0x0, symName: '__ZN4pyo311conversions3std6string86_$LT$impl$u20$pyo3..conversion..IntoPyObject$u20$for$u20$$RF$alloc..string..String$GT$13into_pyobject17h4b9c754b633214ddE', symObjAddr: 0x0, symBinAddr: 0x4EE60, symSize: 0x28 }
  - { offset: 0x100952, size: 0x8, addend: 0x0, symName: __ZN5alloc6string6String13with_capacity17h1fc224f4e801332fE, symObjAddr: 0xDC, symBinAddr: 0x4EF3C, symSize: 0x58 }
  - { offset: 0x1009F8, size: 0x8, addend: 0x0, symName: __ZN5alloc6string6String3len17h30a4ded48bca2580E, symObjAddr: 0x134, symBinAddr: 0x4EF94, symSize: 0x18 }
  - { offset: 0x100BC0, size: 0x8, addend: 0x0, symName: __ZN5alloc6string6String4push17h01ede24ee9841215E, symObjAddr: 0x14C, symBinAddr: 0x4EFAC, symSize: 0x13C }
  - { offset: 0x100E82, size: 0x8, addend: 0x0, symName: __ZN5alloc6string6String6as_str17hbc3c7dcaf7aedc2dE, symObjAddr: 0x288, symBinAddr: 0x4F0E8, symSize: 0x78 }
  - { offset: 0x100F8B, size: 0x8, addend: 0x0, symName: __ZN5alloc6string6String8as_bytes17h334818d63771c0fbE, symObjAddr: 0x300, symBinAddr: 0x4F160, symSize: 0x24 }
  - { offset: 0x101073, size: 0x8, addend: 0x0, symName: __ZN5alloc6string6String8push_str17h77c6d5a38c3ee7ffE, symObjAddr: 0x324, symBinAddr: 0x4F184, symSize: 0x50 }
  - { offset: 0x101254, size: 0x8, addend: 0x0, symName: __ZN5alloc6string6String9from_utf817h0ecbc64a90d4997bE, symObjAddr: 0x374, symBinAddr: 0x4F1D4, symSize: 0x158 }
  - { offset: 0x101460, size: 0x8, addend: 0x0, symName: __ZN6wellen3ghw7signals12read_signals17h4624a94b1310c558E, symObjAddr: 0x0, symBinAddr: 0x4F428, symSize: 0x5E0 }
  - { offset: 0x10191E, size: 0x8, addend: 0x0, symName: __ZN6wellen3ghw7signals12read_signals17h4624a94b1310c558E, symObjAddr: 0x0, symBinAddr: 0x4F428, symSize: 0x5E0 }
  - { offset: 0x101AAE, size: 0x8, addend: 0x0, symName: __ZN6wellen3ghw7signals12read_signals17hf6b088e3b2735f19E, symObjAddr: 0x5E0, symBinAddr: 0x4FA08, symSize: 0x5E0 }
  - { offset: 0x101C3E, size: 0x8, addend: 0x0, symName: __ZN6wellen3ghw7signals17read_signal_value17hec2542ddc62b5ac6E, symObjAddr: 0xBC0, symBinAddr: 0x4FFE8, symSize: 0x678 }
  - { offset: 0x101F3F, size: 0x8, addend: 0x0, symName: __ZN6wellen3ghw7signals17read_signal_value17hf78f463065352110E, symObjAddr: 0x1238, symBinAddr: 0x50660, symSize: 0x678 }
  - { offset: 0x102240, size: 0x8, addend: 0x0, symName: __ZN6wellen3ghw7signals18read_cycle_section17h2fad10a357f090f4E, symObjAddr: 0x18B0, symBinAddr: 0x50CD8, symSize: 0x2D0 }
  - { offset: 0x102396, size: 0x8, addend: 0x0, symName: __ZN6wellen3ghw7signals18read_cycle_section17hfe5e1475c3cfb607E, symObjAddr: 0x1B80, symBinAddr: 0x50FA8, symSize: 0x2D0 }
  - { offset: 0x1024EC, size: 0x8, addend: 0x0, symName: __ZN6wellen3ghw7signals18read_cycle_signals17hc6d515f2be9dee5dE, symObjAddr: 0x1E50, symBinAddr: 0x51278, symSize: 0x1C8 }
  - { offset: 0x1025D1, size: 0x8, addend: 0x0, symName: __ZN6wellen3ghw7signals18read_cycle_signals17he0141309f638a7caE, symObjAddr: 0x2018, symBinAddr: 0x51440, symSize: 0x1C8 }
  - { offset: 0x1026B6, size: 0x8, addend: 0x0, symName: __ZN6wellen3ghw7signals21read_snapshot_section17h6957418f845fb25fE, symObjAddr: 0x21E0, symBinAddr: 0x51608, symSize: 0x348 }
  - { offset: 0x102812, size: 0x8, addend: 0x0, symName: __ZN6wellen3ghw7signals21read_snapshot_section17ha97eb5d16306ad03E, symObjAddr: 0x2528, symBinAddr: 0x51950, symSize: 0x348 }
  - { offset: 0x104CFC, size: 0x8, addend: 0x0, symName: '__ZN57_$LT$memmap2..Mmap$u20$as$u20$core..ops..deref..Deref$GT$5deref17hefb3f5d85db5ce32E', symObjAddr: 0x0, symBinAddr: 0x51C98, symSize: 0x4C }
  - { offset: 0x104D3E, size: 0x8, addend: 0x0, symName: '__ZN57_$LT$memmap2..Mmap$u20$as$u20$core..ops..deref..Deref$GT$5deref17hefb3f5d85db5ce32E', symObjAddr: 0x0, symBinAddr: 0x51C98, symSize: 0x4C }
  - { offset: 0x104E10, size: 0x8, addend: 0x0, symName: __ZN3std3sys2fs4unix23debug_assert_fd_is_open17hc192cc3284f826edE, symObjAddr: 0x0, symBinAddr: 0x51CE4, symSize: 0xCC }
  - { offset: 0x105310, size: 0x8, addend: 0x0, symName: __ZN3std3sys2fs4unix23debug_assert_fd_is_open17hc192cc3284f826edE, symObjAddr: 0x0, symBinAddr: 0x51CE4, symSize: 0xCC }
  - { offset: 0x1053BE, size: 0x8, addend: 0x0, symName: __ZN3std5panic12catch_unwind17h2c56d411279ecc10E, symObjAddr: 0x0, symBinAddr: 0x51DB0, symSize: 0xC0 }
  - { offset: 0x105733, size: 0x8, addend: 0x0, symName: __ZN3std5panic12catch_unwind17h2c56d411279ecc10E, symObjAddr: 0x0, symBinAddr: 0x51DB0, symSize: 0xC0 }
  - { offset: 0x1057C5, size: 0x8, addend: 0x0, symName: __ZN3std5panic12catch_unwind17h7700bc403d5edd43E, symObjAddr: 0xC0, symBinAddr: 0x51E70, symSize: 0xDC }
  - { offset: 0x105878, size: 0x8, addend: 0x0, symName: __ZN3std5panic12catch_unwind17hb05987feac204bb8E, symObjAddr: 0x19C, symBinAddr: 0x51F4C, symSize: 0xB0 }
  - { offset: 0x1064A0, size: 0x8, addend: 0x0, symName: '__ZN5alloc3str21_$LT$impl$u20$str$GT$18to_ascii_lowercase17hca21183333c99d55E', symObjAddr: 0x0, symBinAddr: 0x52050, symSize: 0xF0 }
  - { offset: 0x1066AB, size: 0x8, addend: 0x0, symName: '__ZN5alloc3str21_$LT$impl$u20$str$GT$18to_ascii_lowercase17hca21183333c99d55E', symObjAddr: 0x0, symBinAddr: 0x52050, symSize: 0xF0 }
  - { offset: 0x106CF8, size: 0x8, addend: 0x0, symName: '__ZN102_$LT$core..str..iter..CharIndices$u20$as$u20$core..iter..traits..double_ended..DoubleEndedIterator$GT$9next_back17h10c170ecb2c94c42E', symObjAddr: 0x0, symBinAddr: 0x52140, symSize: 0x14C }
  - { offset: 0x106DDF, size: 0x8, addend: 0x0, symName: '__ZN102_$LT$core..str..iter..CharIndices$u20$as$u20$core..iter..traits..double_ended..DoubleEndedIterator$GT$9next_back17h10c170ecb2c94c42E', symObjAddr: 0x0, symBinAddr: 0x52140, symSize: 0x14C }
  - { offset: 0x106F89, size: 0x8, addend: 0x0, symName: '__ZN87_$LT$core..str..iter..CharIndices$u20$as$u20$core..iter..traits..iterator..Iterator$GT$4next17h9af06870b5fd398fE', symObjAddr: 0x14C, symBinAddr: 0x5228C, symSize: 0x130 }
  - { offset: 0x107642, size: 0x8, addend: 0x0, symName: __ZN10fst_reader2io10read_bytes17h0138a3d07180fe66E, symObjAddr: 0x0, symBinAddr: 0x523BC, symSize: 0x130 }
  - { offset: 0x107923, size: 0x8, addend: 0x0, symName: '__ZN63_$LT$I$u20$as$u20$core..iter..traits..collect..IntoIterator$GT$9into_iter17h6a276f6183594878E', symObjAddr: 0xD618, symBinAddr: 0x5F9D4, symSize: 0x18 }
  - { offset: 0x10973B, size: 0x8, addend: 0x0, symName: __ZN10fst_reader2io10read_bytes17h0138a3d07180fe66E, symObjAddr: 0x0, symBinAddr: 0x523BC, symSize: 0x130 }
  - { offset: 0x1097B6, size: 0x8, addend: 0x0, symName: __ZN10fst_reader2io10read_bytes17hd3899f5452d8beacE, symObjAddr: 0x130, symBinAddr: 0x524EC, symSize: 0x130 }
  - { offset: 0x109831, size: 0x8, addend: 0x0, symName: __ZN10fst_reader2io10read_bytes17heb68a40f3a8bdf30E, symObjAddr: 0x260, symBinAddr: 0x5261C, symSize: 0x130 }
  - { offset: 0x1098AC, size: 0x8, addend: 0x0, symName: __ZN10fst_reader2io10read_bytes17heed8101f5c34b02fE, symObjAddr: 0x390, symBinAddr: 0x5274C, symSize: 0x130 }
  - { offset: 0x109927, size: 0x8, addend: 0x0, symName: __ZN10fst_reader2io10read_bytes17hfec56f0edbc2738fE, symObjAddr: 0x4C0, symBinAddr: 0x5287C, symSize: 0x130 }
  - { offset: 0x1099A2, size: 0x8, addend: 0x0, symName: __ZN10fst_reader2io10read_c_str17h4a59ebddedcc511cE, symObjAddr: 0x5F0, symBinAddr: 0x529AC, symSize: 0x34C }
  - { offset: 0x109A52, size: 0x8, addend: 0x0, symName: __ZN10fst_reader2io10read_frame17h30cdf11bb27ccc89E, symObjAddr: 0x93C, symBinAddr: 0x52CF8, symSize: 0x81C }
  - { offset: 0x109D97, size: 0x8, addend: 0x0, symName: __ZN10fst_reader2io10read_frame17h42a7e818a02d0033E, symObjAddr: 0x1158, symBinAddr: 0x53514, symSize: 0x81C }
  - { offset: 0x10A0DC, size: 0x8, addend: 0x0, symName: __ZN10fst_reader2io10skip_frame17h1c2c78efc7aa24ddE, symObjAddr: 0x1974, symBinAddr: 0x53D30, symSize: 0x2B0 }
  - { offset: 0x10A219, size: 0x8, addend: 0x0, symName: __ZN10fst_reader2io10skip_frame17hf150b3b676239326E, symObjAddr: 0x1C24, symBinAddr: 0x53FE0, symSize: 0x2B0 }
  - { offset: 0x10A356, size: 0x8, addend: 0x0, symName: __ZN10fst_reader2io11read_header17ha95c9881f882c259E, symObjAddr: 0x1ED4, symBinAddr: 0x54290, symSize: 0x8D0 }
  - { offset: 0x10A750, size: 0x8, addend: 0x0, symName: __ZN10fst_reader2io11read_header17hb0d37659b5d32a5cE, symObjAddr: 0x27A4, symBinAddr: 0x54B60, symSize: 0x8D0 }
  - { offset: 0x10AB4A, size: 0x8, addend: 0x0, symName: __ZN10fst_reader2io13read_blackout17h3f05b53b2768af11E, symObjAddr: 0x3074, symBinAddr: 0x55430, symSize: 0x4C8 }
  - { offset: 0x10AD85, size: 0x8, addend: 0x0, symName: __ZN10fst_reader2io13read_blackout17h4412cb9eddfb81bbE, symObjAddr: 0x353C, symBinAddr: 0x558F8, symSize: 0x4C8 }
  - { offset: 0x10AFC0, size: 0x8, addend: 0x0, symName: __ZN10fst_reader2io13read_geometry17h4614a03c3dbbb576E, symObjAddr: 0x3A04, symBinAddr: 0x55DC0, symSize: 0x490 }
  - { offset: 0x10B19D, size: 0x8, addend: 0x0, symName: __ZN10fst_reader2io13read_geometry17hd0771b89b44de248E, symObjAddr: 0x3E94, symBinAddr: 0x56250, symSize: 0x490 }
  - { offset: 0x10B37A, size: 0x8, addend: 0x0, symName: __ZN10fst_reader2io14read_block_tpe17h0a0433bb3ee8d387E, symObjAddr: 0x4324, symBinAddr: 0x566E0, symSize: 0xFC }
  - { offset: 0x10B3ED, size: 0x8, addend: 0x0, symName: __ZN10fst_reader2io14read_block_tpe17hd2edcbd8fc3788e1E, symObjAddr: 0x4420, symBinAddr: 0x567DC, symSize: 0xFC }
  - { offset: 0x10B460, size: 0x8, addend: 0x0, symName: __ZN10fst_reader2io15read_time_table17h353a39c9d19fc1ffE, symObjAddr: 0x451C, symBinAddr: 0x568D8, symSize: 0x6A0 }
  - { offset: 0x10B6A2, size: 0x8, addend: 0x0, symName: __ZN10fst_reader2io15read_time_table17h625d5c2b214a0100E, symObjAddr: 0x4BBC, symBinAddr: 0x56F78, symSize: 0x6A0 }
  - { offset: 0x10B8E4, size: 0x8, addend: 0x0, symName: __ZN10fst_reader2io15read_time_table17hbd432edf134391f4E, symObjAddr: 0x525C, symBinAddr: 0x57618, symSize: 0x6A0 }
  - { offset: 0x10BB26, size: 0x8, addend: 0x0, symName: __ZN10fst_reader2io15read_time_table17hdf2dfeee4c62bf00E, symObjAddr: 0x58FC, symBinAddr: 0x57CB8, symSize: 0x6A0 }
  - { offset: 0x10BD68, size: 0x8, addend: 0x0, symName: __ZN10fst_reader2io16read_gzip_header17h17fe38de67c035afE, symObjAddr: 0x5F9C, symBinAddr: 0x58358, symSize: 0x400 }
  - { offset: 0x10BEF2, size: 0x8, addend: 0x0, symName: __ZN10fst_reader2io16read_gzip_header17h5d61dee97a3f420bE, symObjAddr: 0x639C, symBinAddr: 0x58758, symSize: 0x400 }
  - { offset: 0x10C07C, size: 0x8, addend: 0x0, symName: __ZN10fst_reader2io16read_signal_locs17h491f334d75270ee4E, symObjAddr: 0x679C, symBinAddr: 0x58B58, symSize: 0x350 }
  - { offset: 0x10C1F0, size: 0x8, addend: 0x0, symName: __ZN10fst_reader2io16read_signal_locs17hb74002e3a206592eE, symObjAddr: 0x6AEC, symBinAddr: 0x58EA8, symSize: 0x350 }
  - { offset: 0x10C364, size: 0x8, addend: 0x0, symName: __ZN10fst_reader2io16read_variant_u3217h28e68f288e392224E, symObjAddr: 0x6E3C, symBinAddr: 0x591F8, symSize: 0x1D0 }
  - { offset: 0x10C41F, size: 0x8, addend: 0x0, symName: __ZN10fst_reader2io16read_variant_u3217h87d43fd6d1846ca3E, symObjAddr: 0x700C, symBinAddr: 0x593C8, symSize: 0x1D0 }
  - { offset: 0x10C4DA, size: 0x8, addend: 0x0, symName: __ZN10fst_reader2io16read_variant_u3217h8fda9c6650db3d71E, symObjAddr: 0x71DC, symBinAddr: 0x59598, symSize: 0x1D0 }
  - { offset: 0x10C595, size: 0x8, addend: 0x0, symName: __ZN10fst_reader2io16read_variant_u3217h95e6e133542cb1caE, symObjAddr: 0x73AC, symBinAddr: 0x59768, symSize: 0x1D0 }
  - { offset: 0x10C650, size: 0x8, addend: 0x0, symName: __ZN10fst_reader2io16read_variant_u6417h00510b7f738071f7E, symObjAddr: 0x757C, symBinAddr: 0x59938, symSize: 0x1C8 }
  - { offset: 0x10C70E, size: 0x8, addend: 0x0, symName: __ZN10fst_reader2io16read_variant_u6417h0765fec8cecf55a3E, symObjAddr: 0x7744, symBinAddr: 0x59B00, symSize: 0x1C8 }
  - { offset: 0x10C7CC, size: 0x8, addend: 0x0, symName: __ZN10fst_reader2io16read_variant_u6417h9deb0fd85dac925aE, symObjAddr: 0x790C, symBinAddr: 0x59CC8, symSize: 0x1C8 }
  - { offset: 0x10C88A, size: 0x8, addend: 0x0, symName: __ZN10fst_reader2io16read_variant_u6417hae4a0e1a759c621aE, symObjAddr: 0x7AD4, symBinAddr: 0x59E90, symSize: 0x1C8 }
  - { offset: 0x10C948, size: 0x8, addend: 0x0, symName: __ZN10fst_reader2io16read_variant_u6417hcf93fb7ea8a21906E, symObjAddr: 0x7C9C, symBinAddr: 0x5A058, symSize: 0x1C8 }
  - { offset: 0x10CA06, size: 0x8, addend: 0x0, symName: __ZN10fst_reader2io20determine_f64_endian17he6ec074bad05c9a6E, symObjAddr: 0x7E64, symBinAddr: 0x5A220, symSize: 0x2C8 }
  - { offset: 0x10CB12, size: 0x8, addend: 0x0, symName: __ZN10fst_reader2io20determine_f64_endian17hf456f5d63f541f93E, symObjAddr: 0x812C, symBinAddr: 0x5A4E8, symSize: 0x2C8 }
  - { offset: 0x10CC1E, size: 0x8, addend: 0x0, symName: __ZN10fst_reader2io20read_hierarchy_bytes17h2f7764ec346518cdE, symObjAddr: 0x83F4, symBinAddr: 0x5A7B0, symSize: 0x608 }
  - { offset: 0x10CED7, size: 0x8, addend: 0x0, symName: __ZN10fst_reader2io20read_hierarchy_bytes17ha3589ac23c45eed8E, symObjAddr: 0x89FC, symBinAddr: 0x5ADB8, symSize: 0x608 }
  - { offset: 0x10D190, size: 0x8, addend: 0x0, symName: __ZN10fst_reader2io20read_hierarchy_entry17h1cabca514b50dbc2E, symObjAddr: 0x9004, symBinAddr: 0x5B3C0, symSize: 0xDD8 }
  - { offset: 0x10D68E, size: 0x8, addend: 0x0, symName: __ZN10fst_reader2io23read_c_str_fixed_length17h66ca642e8d783c28E, symObjAddr: 0x9DDC, symBinAddr: 0x5C198, symSize: 0x264 }
  - { offset: 0x10D76B, size: 0x8, addend: 0x0, symName: __ZN10fst_reader2io23read_c_str_fixed_length17ha13568b8e6a48953E, symObjAddr: 0xA040, symBinAddr: 0x5C3FC, symSize: 0x264 }
  - { offset: 0x10D84D, size: 0x8, addend: 0x0, symName: '__ZN10fst_reader2io23read_c_str_fixed_length28_$u7b$$u7b$closure$u7d$$u7d$17h8b89fc4b9bf5e733E', symObjAddr: 0xA2A4, symBinAddr: 0x5C660, symSize: 0x24 }
  - { offset: 0x10D88C, size: 0x8, addend: 0x0, symName: '__ZN10fst_reader2io23read_c_str_fixed_length28_$u7b$$u7b$closure$u7d$$u7d$17hd63a0b537c466e24E', symObjAddr: 0xA2C8, symBinAddr: 0x5C684, symSize: 0x24 }
  - { offset: 0x10D8DA, size: 0x8, addend: 0x0, symName: __ZN10fst_reader2io25read_lz4_compressed_bytes17h158ef82ac1346286E, symObjAddr: 0xA2EC, symBinAddr: 0x5C6A8, symSize: 0x1B0 }
  - { offset: 0x10D9C1, size: 0x8, addend: 0x0, symName: __ZN10fst_reader2io25read_lz4_compressed_bytes17h166c52e61a62529dE, symObjAddr: 0xA49C, symBinAddr: 0x5C858, symSize: 0x1B0 }
  - { offset: 0x10DAA8, size: 0x8, addend: 0x0, symName: __ZN10fst_reader2io25read_lz4_compressed_bytes17h22800b2f7237ee21E, symObjAddr: 0xA64C, symBinAddr: 0x5CA08, symSize: 0x1B0 }
  - { offset: 0x10DB8F, size: 0x8, addend: 0x0, symName: __ZN10fst_reader2io25read_lz4_compressed_bytes17h58a3598380d003f1E, symObjAddr: 0xA7FC, symBinAddr: 0x5CBB8, symSize: 0x1B0 }
  - { offset: 0x10DC76, size: 0x8, addend: 0x0, symName: __ZN10fst_reader2io25read_lz4_compressed_bytes17h93983b404b9c99e2E, symObjAddr: 0xA9AC, symBinAddr: 0x5CD68, symSize: 0x1B0 }
  - { offset: 0x10DD5D, size: 0x8, addend: 0x0, symName: __ZN10fst_reader2io26read_gzip_compressed_bytes17ha374030cd3fdc672E, symObjAddr: 0xAB5C, symBinAddr: 0x5CF18, symSize: 0x300 }
  - { offset: 0x10DECA, size: 0x8, addend: 0x0, symName: __ZN10fst_reader2io26read_gzip_compressed_bytes17hb336fe21916c3dfdE, symObjAddr: 0xAE5C, symBinAddr: 0x5D218, symSize: 0x300 }
  - { offset: 0x10E037, size: 0x8, addend: 0x0, symName: __ZN10fst_reader2io26read_zlib_compressed_bytes17h45edf25963a9ea5eE, symObjAddr: 0xB15C, symBinAddr: 0x5D518, symSize: 0x484 }
  - { offset: 0x10E273, size: 0x8, addend: 0x0, symName: __ZN10fst_reader2io26read_zlib_compressed_bytes17h5ee179930f5ba915E, symObjAddr: 0xB5E0, symBinAddr: 0x5D99C, symSize: 0x484 }
  - { offset: 0x10E4AF, size: 0x8, addend: 0x0, symName: __ZN10fst_reader2io26read_zlib_compressed_bytes17h769bddc46eaf20a7E, symObjAddr: 0xBA64, symBinAddr: 0x5DE20, symSize: 0x484 }
  - { offset: 0x10E6EB, size: 0x8, addend: 0x0, symName: __ZN10fst_reader2io26read_zlib_compressed_bytes17hb03bc884bb2c1106E, symObjAddr: 0xBEE8, symBinAddr: 0x5E2A4, symSize: 0x484 }
  - { offset: 0x10E927, size: 0x8, addend: 0x0, symName: __ZN10fst_reader2io30read_packed_signal_value_bytes17h06d2efc09af0f850E, symObjAddr: 0xC36C, symBinAddr: 0x5E728, symSize: 0x450 }
  - { offset: 0x10EB49, size: 0x8, addend: 0x0, symName: __ZN10fst_reader2io30read_packed_signal_value_bytes17h8de89ed99f815c85E, symObjAddr: 0xC7BC, symBinAddr: 0x5EB78, symSize: 0x450 }
  - { offset: 0x10ED6B, size: 0x8, addend: 0x0, symName: __ZN10fst_reader2io45read_hierarchy_attribute_arg2_encoded_as_name17h1419e8c8d3189f40E, symObjAddr: 0xCC0C, symBinAddr: 0x5EFC8, symSize: 0x1B8 }
  - { offset: 0x10EE88, size: 0x8, addend: 0x0, symName: __ZN10fst_reader2io7read_i817h1b27a6fdfc050d66E, symObjAddr: 0xCDC4, symBinAddr: 0x5F180, symSize: 0xA0 }
  - { offset: 0x10EEF7, size: 0x8, addend: 0x0, symName: __ZN10fst_reader2io7read_i817h64c4a8c9f42cd29aE, symObjAddr: 0xCE64, symBinAddr: 0x5F220, symSize: 0xA0 }
  - { offset: 0x10EF66, size: 0x8, addend: 0x0, symName: __ZN10fst_reader2io7read_u817h38bcb247dfb0b5b9E, symObjAddr: 0xCF04, symBinAddr: 0x5F2C0, symSize: 0x8C }
  - { offset: 0x10EFD5, size: 0x8, addend: 0x0, symName: __ZN10fst_reader2io7read_u817h9018f502baccca28E, symObjAddr: 0xCF90, symBinAddr: 0x5F34C, symSize: 0x8C }
  - { offset: 0x10F044, size: 0x8, addend: 0x0, symName: __ZN10fst_reader2io7read_u817h96c0281cd348b532E, symObjAddr: 0xD01C, symBinAddr: 0x5F3D8, symSize: 0x8C }
  - { offset: 0x10F0B3, size: 0x8, addend: 0x0, symName: __ZN10fst_reader2io7read_u817ha5c1b8a3d864776bE, symObjAddr: 0xD0A8, symBinAddr: 0x5F464, symSize: 0x8C }
  - { offset: 0x10F122, size: 0x8, addend: 0x0, symName: __ZN10fst_reader2io7read_u817ha6bfa4fd6409e667E, symObjAddr: 0xD134, symBinAddr: 0x5F4F0, symSize: 0x8C }
  - { offset: 0x10F191, size: 0x8, addend: 0x0, symName: __ZN10fst_reader2io8read_f6417h16e1fcddf5f52c72E, symObjAddr: 0xD1C0, symBinAddr: 0x5F57C, symSize: 0xEC }
  - { offset: 0x10F213, size: 0x8, addend: 0x0, symName: __ZN10fst_reader2io8read_f6417he990f4982706fea0E, symObjAddr: 0xD2AC, symBinAddr: 0x5F668, symSize: 0xEC }
  - { offset: 0x10F295, size: 0x8, addend: 0x0, symName: __ZN10fst_reader2io8read_u6417h3ae7c886d88d774bE, symObjAddr: 0xD398, symBinAddr: 0x5F754, symSize: 0xA0 }
  - { offset: 0x10F304, size: 0x8, addend: 0x0, symName: __ZN10fst_reader2io8read_u6417h5ccb54cf3f3082c6E, symObjAddr: 0xD438, symBinAddr: 0x5F7F4, symSize: 0xA0 }
  - { offset: 0x10F373, size: 0x8, addend: 0x0, symName: __ZN10fst_reader2io8read_u6417h65ec89b0cd9087caE, symObjAddr: 0xD4D8, symBinAddr: 0x5F894, symSize: 0xA0 }
  - { offset: 0x10F3E2, size: 0x8, addend: 0x0, symName: __ZN10fst_reader2io8read_u6417hc5dbe7ea59b94768E, symObjAddr: 0xD578, symBinAddr: 0x5F934, symSize: 0xA0 }
  - { offset: 0x110480, size: 0x8, addend: 0x0, symName: '__ZN3std4sync6poison5mutex14Mutex$LT$T$GT$3new17h4e17064f761cc821E', symObjAddr: 0x0, symBinAddr: 0x5F9EC, symSize: 0x84 }
  - { offset: 0x11148E, size: 0x8, addend: 0x0, symName: '__ZN3std4sync6poison5mutex19MutexGuard$LT$T$GT$3new28_$u7b$$u7b$closure$u7d$$u7d$17h1cb2e7da97ee46c4E', symObjAddr: 0xD0, symBinAddr: 0x5FABC, symSize: 0x18 }
  - { offset: 0x1114DD, size: 0x8, addend: 0x0, symName: '__ZN92_$LT$std..sync..poison..mutex..MutexGuard$LT$T$GT$$u20$as$u20$core..ops..deref..DerefMut$GT$9deref_mut17h0c2778dc8ee4a34bE', symObjAddr: 0xE8, symBinAddr: 0x5FAD4, symSize: 0x1C }
  - { offset: 0x111D1D, size: 0x8, addend: 0x0, symName: '__ZN3std4sync6poison5mutex14Mutex$LT$T$GT$3new17h4e17064f761cc821E', symObjAddr: 0x0, symBinAddr: 0x5F9EC, symSize: 0x84 }
  - { offset: 0x111E2F, size: 0x8, addend: 0x0, symName: '__ZN3std4sync6poison5mutex14Mutex$LT$T$GT$4lock17h13e168542a3deba8E', symObjAddr: 0x84, symBinAddr: 0x5FA70, symSize: 0x4C }
  - { offset: 0x111F16, size: 0x8, addend: 0x0, symName: __ZN8pyo3_ffi10boolobject7Py_True17h2e8a3a63978a9e58E, symObjAddr: 0x0, symBinAddr: 0x5FAF0, symSize: 0xC }
  - { offset: 0x111F2D, size: 0x8, addend: 0x0, symName: __ZN8pyo3_ffi10boolobject7Py_True17h2e8a3a63978a9e58E, symObjAddr: 0x0, symBinAddr: 0x5FAF0, symSize: 0xC }
  - { offset: 0x111F4A, size: 0x8, addend: 0x0, symName: __ZN8pyo3_ffi10boolobject8Py_False17h4cdbfbad6a3db19fE, symObjAddr: 0xC, symBinAddr: 0x5FAFC, symSize: 0xC }
  - { offset: 0x112031, size: 0x8, addend: 0x0, symName: '__ZN57_$LT$T$u20$as$u20$pyo3..conversion..FromPyObjectBound$GT$20from_py_object_bound17h1e263ee5c7ac2badE', symObjAddr: 0x0, symBinAddr: 0x5FB08, symSize: 0x34 }
  - { offset: 0x112820, size: 0x8, addend: 0x0, symName: '__ZN57_$LT$T$u20$as$u20$pyo3..conversion..FromPyObjectBound$GT$20from_py_object_bound17h1e263ee5c7ac2badE', symObjAddr: 0x0, symBinAddr: 0x5FB08, symSize: 0x34 }
  - { offset: 0x112868, size: 0x8, addend: 0x0, symName: '__ZN71_$LT$T$u20$as$u20$pyo3..impl_..extract_argument..PyFunctionArgument$GT$7extract17h3bfdc2ce61d3cef9E', symObjAddr: 0x34, symBinAddr: 0x5FB3C, symSize: 0x28 }
  - { offset: 0x112B67, size: 0x8, addend: 0x0, symName: '__ZN7_engine9predicate10find_first28_$u7b$$u7b$closure$u7d$$u7d$17hfaf91332706f0975E', symObjAddr: 0x5C, symBinAddr: 0x5FB64, symSize: 0x1EC }
  - { offset: 0x112C77, size: 0x8, addend: 0x0, symName: '__ZN7_engine9predicate13eval_temporal28_$u7b$$u7b$closure$u7d$$u7d$17h0dc037fcc9594633E', symObjAddr: 0x248, symBinAddr: 0x5FD50, symSize: 0x18 }
  - { offset: 0x112CBD, size: 0x8, addend: 0x0, symName: '__ZN7_engine9predicate4scan28_$u7b$$u7b$closure$u7d$$u7d$17h7c5a40fb57820e79E', symObjAddr: 0x260, symBinAddr: 0x5FD68, symSize: 0x2E0 }
  - { offset: 0x112DFC, size: 0x8, addend: 0x0, symName: '__ZN7_engine9predicate4scan28_$u7b$$u7b$closure$u7d$$u7d$28_$u7b$$u7b$closure$u7d$$u7d$17h72700da320c9ee0bE', symObjAddr: 0x540, symBinAddr: 0x60048, symSize: 0x190 }
  - { offset: 0x112EC6, size: 0x8, addend: 0x0, symName: '__ZN7_engine9predicate8find_all28_$u7b$$u7b$closure$u7d$$u7d$17hf4795f73124f26a2E', symObjAddr: 0x6D0, symBinAddr: 0x601D8, symSize: 0x25C }
  - { offset: 0x112FC7, size: 0x8, addend: 0x0, symName: '__ZN7_engine9predicate8find_all28_$u7b$$u7b$closure$u7d$$u7d$28_$u7b$$u7b$closure$u7d$$u7d$17hb72001a163eb8b4eE', symObjAddr: 0x92C, symBinAddr: 0x60434, symSize: 0x24 }
  - { offset: 0x113028, size: 0x8, addend: 0x0, symName: '__ZN7_engine9predicate9scan_expr28_$u7b$$u7b$closure$u7d$$u7d$17h440c06f92380b3e3E', symObjAddr: 0x950, symBinAddr: 0x60458, symSize: 0x74 }
  - { offset: 0x113093, size: 0x8, addend: 0x0, symName: '__ZN7_engine9predicate9scan_expr28_$u7b$$u7b$closure$u7d$$u7d$17h737136b665c2032eE', symObjAddr: 0x9C4, symBinAddr: 0x604CC, symSize: 0x5C }
  - { offset: 0x1130FC, size: 0x8, addend: 0x0, symName: '__ZN7_engine9predicate9scan_expr28_$u7b$$u7b$closure$u7d$$u7d$17he5a0a8a549674c8dE', symObjAddr: 0xA20, symBinAddr: 0x60528, symSize: 0x30 }
  - { offset: 0x11313A, size: 0x8, addend: 0x0, symName: '__ZN7_engine9predicate9scan_expr28_$u7b$$u7b$closure$u7d$$u7d$28_$u7b$$u7b$closure$u7d$$u7d$17h0f454f6954304ab4E', symObjAddr: 0xA50, symBinAddr: 0x60558, symSize: 0x58 }
  - { offset: 0x114D43, size: 0x8, addend: 0x0, symName: __ZN6leb1284read6signed17h210daba836dca64eE, symObjAddr: 0x0, symBinAddr: 0x605B0, symSize: 0x260 }
  - { offset: 0x1150BE, size: 0x8, addend: 0x0, symName: __ZN6leb1284read6signed17h210daba836dca64eE, symObjAddr: 0x0, symBinAddr: 0x605B0, symSize: 0x260 }
  - { offset: 0x1151AC, size: 0x8, addend: 0x0, symName: __ZN6leb1284read6signed17h8a322f1e4ea0b411E, symObjAddr: 0x260, symBinAddr: 0x60810, symSize: 0x260 }
  - { offset: 0x11529A, size: 0x8, addend: 0x0, symName: __ZN6leb1284read8unsigned17h5960479d321350ffE, symObjAddr: 0x4C0, symBinAddr: 0x60A70, symSize: 0x1D4 }
  - { offset: 0x11535E, size: 0x8, addend: 0x0, symName: __ZN6leb1284read8unsigned17h8bc0aaf14118b171E, symObjAddr: 0x694, symBinAddr: 0x60C44, symSize: 0x1D4 }
  - { offset: 0x115961, size: 0x8, addend: 0x0, symName: '__ZN71_$LT$core..hash..sip..Hasher$LT$S$GT$$u20$as$u20$core..hash..Hasher$GT$9write_str17hc64122e09dadd06cE', symObjAddr: 0x0, symBinAddr: 0x60E18, symSize: 0x5C }
  - { offset: 0x115A5F, size: 0x8, addend: 0x0, symName: '__ZN71_$LT$core..hash..sip..Hasher$LT$S$GT$$u20$as$u20$core..hash..Hasher$GT$9write_str17hc64122e09dadd06cE', symObjAddr: 0x0, symBinAddr: 0x60E18, symSize: 0x5C }
  - { offset: 0x115B42, size: 0x8, addend: 0x0, symName: '__ZN42_$LT$$RF$T$u20$as$u20$core..fmt..Debug$GT$3fmt17h24c97821e3f98718E', symObjAddr: 0x0, symBinAddr: 0x60E74, symSize: 0x30 }
  - { offset: 0x11601F, size: 0x8, addend: 0x0, symName: __ZN6wellen3ghw6common11read_f64_le17h386600afec971cc2E, symObjAddr: 0x60C, symBinAddr: 0x61480, symSize: 0x9C }
  - { offset: 0x11608E, size: 0x8, addend: 0x0, symName: __ZN6wellen3ghw6common11read_f64_le17h74d2b3e3dc2f4dbeE, symObjAddr: 0x6A8, symBinAddr: 0x6151C, symSize: 0x9C }
  - { offset: 0x1160FD, size: 0x8, addend: 0x0, symName: __ZN6wellen3ghw6common14read_directory17h76ff52792b961619E, symObjAddr: 0x744, symBinAddr: 0x615B8, symSize: 0x440 }
  - { offset: 0x11627C, size: 0x8, addend: 0x0, symName: __ZN6wellen3ghw6common14read_directory17hc5baf5cbc920f2ceE, symObjAddr: 0xB84, symBinAddr: 0x619F8, symSize: 0x440 }
  - { offset: 0x1163FB, size: 0x8, addend: 0x0, symName: __ZN6wellen3ghw6common15check_magic_end17h9d37af90ca694680E, symObjAddr: 0xFC4, symBinAddr: 0x61E38, symSize: 0x200 }
  - { offset: 0x1164D8, size: 0x8, addend: 0x0, symName: __ZN6wellen3ghw6common15check_magic_end17he90577b8ccc1c502E, symObjAddr: 0x11C4, symBinAddr: 0x62038, symSize: 0x200 }
  - { offset: 0x1165B5, size: 0x8, addend: 0x0, symName: __ZN6wellen3ghw6common7read_u817h63d8a6b9c52897ebE, symObjAddr: 0x13C4, symBinAddr: 0x62238, symSize: 0x88 }
  - { offset: 0x116624, size: 0x8, addend: 0x0, symName: __ZN6wellen3ghw6common7read_u817h868bc3f0d2735637E, symObjAddr: 0x144C, symBinAddr: 0x622C0, symSize: 0x88 }
  - { offset: 0x116F0B, size: 0x8, addend: 0x0, symName: '__ZN42_$LT$$RF$T$u20$as$u20$core..fmt..Debug$GT$3fmt17h24c97821e3f98718E', symObjAddr: 0x0, symBinAddr: 0x60E74, symSize: 0x30 }
  - { offset: 0x116F51, size: 0x8, addend: 0x0, symName: '__ZN42_$LT$$RF$T$u20$as$u20$core..fmt..Debug$GT$3fmt17h328d5176cfe93ff0E', symObjAddr: 0x30, symBinAddr: 0x60EA4, symSize: 0x30 }
  - { offset: 0x116F97, size: 0x8, addend: 0x0, symName: '__ZN42_$LT$$RF$T$u20$as$u20$core..fmt..Debug$GT$3fmt17h57ec660dab69f020E', symObjAddr: 0x60, symBinAddr: 0x60ED4, symSize: 0x30 }
  - { offset: 0x116FDD, size: 0x8, addend: 0x0, symName: '__ZN42_$LT$$RF$T$u20$as$u20$core..fmt..Debug$GT$3fmt17h9179da87894d340bE', symObjAddr: 0x90, symBinAddr: 0x60F04, symSize: 0x30 }
  - { offset: 0x117023, size: 0x8, addend: 0x0, symName: '__ZN42_$LT$$RF$T$u20$as$u20$core..fmt..Debug$GT$3fmt17ha128d1b0d7ab10d8E', symObjAddr: 0xC0, symBinAddr: 0x60F34, symSize: 0x30 }
  - { offset: 0x11706F, size: 0x8, addend: 0x0, symName: '__ZN48_$LT$$u5b$T$u5d$$u20$as$u20$core..fmt..Debug$GT$3fmt17h6ac28f47dc510855E', symObjAddr: 0xF0, symBinAddr: 0x60F64, symSize: 0x90 }
  - { offset: 0x1171BB, size: 0x8, addend: 0x0, symName: '__ZN48_$LT$$u5b$T$u5d$$u20$as$u20$core..fmt..Debug$GT$3fmt17hc99652a1911738a6E', symObjAddr: 0x180, symBinAddr: 0x60FF4, symSize: 0x88 }
  - { offset: 0x11730D, size: 0x8, addend: 0x0, symName: '__ZN50_$LT$$LP$U$C$T$RP$$u20$as$u20$core..fmt..Debug$GT$3fmt17hbb338a4e7992f94eE', symObjAddr: 0x2C4, symBinAddr: 0x61138, symSize: 0x90 }
  - { offset: 0x117609, size: 0x8, addend: 0x0, symName: '__ZN4core5slice29_$LT$impl$u20$$u5b$T$u5d$$GT$4iter17h8fe92e2621b40a11E', symObjAddr: 0x208, symBinAddr: 0x6107C, symSize: 0x28 }
  - { offset: 0x117640, size: 0x8, addend: 0x0, symName: '__ZN4core5slice29_$LT$impl$u20$$u5b$T$u5d$$GT$4last17h5351b8273de4a975E', symObjAddr: 0x230, symBinAddr: 0x610A4, symSize: 0x50 }
  - { offset: 0x11768D, size: 0x8, addend: 0x0, symName: '__ZN4core5slice29_$LT$impl$u20$$u5b$T$u5d$$GT$5first17h7e00e3412421f922E', symObjAddr: 0x280, symBinAddr: 0x610F4, symSize: 0x44 }
  - { offset: 0x118476, size: 0x8, addend: 0x0, symName: __ZN6wellen3ghw6common10HeaderData8read_i3217hc2887ce3957249feE, symObjAddr: 0x354, symBinAddr: 0x611C8, symSize: 0xE8 }
  - { offset: 0x1184E9, size: 0x8, addend: 0x0, symName: __ZN6wellen3ghw6common10HeaderData8read_i6417h076d3919e616468fE, symObjAddr: 0x43C, symBinAddr: 0x612B0, symSize: 0xE8 }
  - { offset: 0x11855C, size: 0x8, addend: 0x0, symName: __ZN6wellen3ghw6common10HeaderData8read_u3217hb78c0ef97dd77330E, symObjAddr: 0x524, symBinAddr: 0x61398, symSize: 0xE8 }
  - { offset: 0x1187E6, size: 0x8, addend: 0x0, symName: __ZN6wellen7viewers18detect_file_format17h87b49fe4f83e5706E, symObjAddr: 0x0, symBinAddr: 0x62348, symSize: 0x80 }
  - { offset: 0x11A19A, size: 0x8, addend: 0x0, symName: __ZN6wellen7viewers18detect_file_format17h87b49fe4f83e5706E, symObjAddr: 0x0, symBinAddr: 0x62348, symSize: 0x80 }
  - { offset: 0x11A1CF, size: 0x8, addend: 0x0, symName: __ZN6wellen7viewers21read_header_from_file17h6f0652275525df65E, symObjAddr: 0x80, symBinAddr: 0x623C8, symSize: 0x9B8 }
  - { offset: 0x11A40A, size: 0x8, addend: 0x0, symName: __ZN6wellen7viewers27open_and_detect_file_format17h44244989b4e0037cE, symObjAddr: 0xA38, symBinAddr: 0x62D80, symSize: 0xA4 }
  - { offset: 0x11A479, size: 0x8, addend: 0x0, symName: __ZN6wellen7viewers9read_body17h6f91684708a3e7c1E, symObjAddr: 0xADC, symBinAddr: 0x62E24, symSize: 0x54C }
  - { offset: 0x11BB4C, size: 0x8, addend: 0x0, symName: __ZN4pyo35types8sequence16extract_sequence17h74f9a1f95d1d4199E, symObjAddr: 0x0, symBinAddr: 0x63370, symSize: 0x3BC }
  - { offset: 0x11BBED, size: 0x8, addend: 0x0, symName: __ZN4pyo35types8sequence16extract_sequence17h74f9a1f95d1d4199E, symObjAddr: 0x0, symBinAddr: 0x63370, symSize: 0x3BC }
  - { offset: 0x11C927, size: 0x8, addend: 0x0, symName: '__ZN71_$LT$std..hash..random..DefaultHasher$u20$as$u20$core..hash..Hasher$GT$6finish17h0d31cba7dd0e8649E', symObjAddr: 0x0, symBinAddr: 0x6372C, symSize: 0x2C }
  - { offset: 0x11CACB, size: 0x8, addend: 0x0, symName: '__ZN71_$LT$std..hash..random..DefaultHasher$u20$as$u20$core..hash..Hasher$GT$6finish17h0d31cba7dd0e8649E', symObjAddr: 0x0, symBinAddr: 0x6372C, symSize: 0x2C }
  - { offset: 0x11CB14, size: 0x8, addend: 0x0, symName: '__ZN71_$LT$std..hash..random..DefaultHasher$u20$as$u20$core..hash..Hasher$GT$9write_str17h2142617b30c96d99E', symObjAddr: 0x2C, symBinAddr: 0x63758, symSize: 0x38 }
  - { offset: 0x11CBA5, size: 0x8, addend: 0x0, symName: '__ZN73_$LT$std..hash..random..RandomState$u20$as$u20$core..default..Default$GT$7default17h749ab01471596b65E', symObjAddr: 0x64, symBinAddr: 0x63790, symSize: 0x1C }
  - { offset: 0x11CBDD, size: 0x8, addend: 0x0, symName: '__ZN74_$LT$std..hash..random..RandomState$u20$as$u20$core..hash..BuildHasher$GT$12build_hasher17h1ae513b7f6bc4d9cE', symObjAddr: 0x80, symBinAddr: 0x637AC, symSize: 0xCC }
  - { offset: 0x11CD5E, size: 0x8, addend: 0x0, symName: '__ZN67_$LT$core..array..TryFromSliceError$u20$as$u20$core..fmt..Debug$GT$3fmt17h4e2758e8d8913ebeE', symObjAddr: 0x0, symBinAddr: 0x63878, symSize: 0x54 }
  - { offset: 0x11CD88, size: 0x8, addend: 0x0, symName: '__ZN67_$LT$core..array..TryFromSliceError$u20$as$u20$core..fmt..Debug$GT$3fmt17h4e2758e8d8913ebeE', symObjAddr: 0x0, symBinAddr: 0x63878, symSize: 0x54 }
  - { offset: 0x11CF58, size: 0x8, addend: 0x0, symName: '__ZN4core3fmt3num49_$LT$impl$u20$core..fmt..Debug$u20$for$u20$u8$GT$3fmt17heee990d0f925c2d6E', symObjAddr: 0x0, symBinAddr: 0x638CC, symSize: 0x90 }
  - { offset: 0x11CFF3, size: 0x8, addend: 0x0, symName: '__ZN4core3fmt3num49_$LT$impl$u20$core..fmt..Debug$u20$for$u20$u8$GT$3fmt17heee990d0f925c2d6E', symObjAddr: 0x0, symBinAddr: 0x638CC, symSize: 0x90 }
  - { offset: 0x11D06D, size: 0x8, addend: 0x0, symName: '__ZN4core3fmt3num52_$LT$impl$u20$core..fmt..Debug$u20$for$u20$isize$GT$3fmt17h973e7f10aa4d85aeE', symObjAddr: 0x90, symBinAddr: 0x6395C, symSize: 0x90 }
  - { offset: 0x11D0E7, size: 0x8, addend: 0x0, symName: '__ZN4core3fmt3num52_$LT$impl$u20$core..fmt..Debug$u20$for$u20$usize$GT$3fmt17h0a6ae9b8fe662cd0E', symObjAddr: 0x120, symBinAddr: 0x639EC, symSize: 0x90 }
  - { offset: 0x11D33E, size: 0x8, addend: 0x0, symName: '__ZN87_$LT$$BP$mut$u20$pyo3_ffi..object..PyObject$u20$as$u20$pyo3..ffi_ptr_ext..FfiPtrExt$GT$12assume_owned17he42bf4dd3eddc0f5E', symObjAddr: 0x0, symBinAddr: 0x63A7C, symSize: 0x24 }
  - { offset: 0x11D373, size: 0x8, addend: 0x0, symName: __ZN8pyo3_ffi6object10Py_IS_TYPE17h8014db7c0e76da64E, symObjAddr: 0x90, symBinAddr: 0x63B0C, symSize: 0x38 }
  - { offset: 0x11D3AD, size: 0x8, addend: 0x0, symName: __ZN8pyo3_ffi6object18PyObject_TypeCheck17h75dab8954162f06eE, symObjAddr: 0xC8, symBinAddr: 0x63B44, symSize: 0x70 }
  - { offset: 0x11D3EA, size: 0x8, addend: 0x0, symName: __ZN8pyo3_ffi6object7Py_None17hdd340577cb75e445E, symObjAddr: 0x138, symBinAddr: 0x63BB4, symSize: 0xC }
  - { offset: 0x11D408, size: 0x8, addend: 0x0, symName: __ZN8pyo3_ffi6object7Py_TYPE17h4fc0cc5b16049e65E, symObjAddr: 0x144, symBinAddr: 0x63BC0, symSize: 0x74 }
  - { offset: 0x11D4A0, size: 0x8, addend: 0x0, symName: '__ZN87_$LT$$BP$mut$u20$pyo3_ffi..object..PyObject$u20$as$u20$pyo3..ffi_ptr_ext..FfiPtrExt$GT$12assume_owned17he42bf4dd3eddc0f5E', symObjAddr: 0x0, symBinAddr: 0x63A7C, symSize: 0x24 }
  - { offset: 0x11D4E5, size: 0x8, addend: 0x0, symName: '__ZN87_$LT$$BP$mut$u20$pyo3_ffi..object..PyObject$u20$as$u20$pyo3..ffi_ptr_ext..FfiPtrExt$GT$15assume_borrowed17h1caaa7b9b322f41bE', symObjAddr: 0x24, symBinAddr: 0x63AA0, symSize: 0x24 }
  - { offset: 0x11D52A, size: 0x8, addend: 0x0, symName: '__ZN87_$LT$$BP$mut$u20$pyo3_ffi..object..PyObject$u20$as$u20$pyo3..ffi_ptr_ext..FfiPtrExt$GT$22assume_borrowed_or_opt17h2d3767774c9503a6E', symObjAddr: 0x48, symBinAddr: 0x63AC4, symSize: 0x24 }
  - { offset: 0x11D56F, size: 0x8, addend: 0x0, symName: '__ZN87_$LT$$BP$mut$u20$pyo3_ffi..object..PyObject$u20$as$u20$pyo3..ffi_ptr_ext..FfiPtrExt$GT$25assume_borrowed_unchecked17h64f348e088e3d0a2E', symObjAddr: 0x6C, symBinAddr: 0x63AE8, symSize: 0x24 }
  - { offset: 0x11D8F2, size: 0x8, addend: 0x0, symName: __ZN6wellen7wavemem6States14bits_in_a_byte17hc078f4dcc5af7e57E, symObjAddr: 0x0, symBinAddr: 0x63C34, symSize: 0x48 }
  - { offset: 0x11D974, size: 0x8, addend: 0x0, symName: __ZN6wellen7wavemem6States14bits_in_a_byte17hc078f4dcc5af7e57E, symObjAddr: 0x0, symBinAddr: 0x63C34, symSize: 0x48 }
  - { offset: 0x11D997, size: 0x8, addend: 0x0, symName: __ZN6wellen7wavemem6States4bits17h4cef0ad170397804E, symObjAddr: 0x48, symBinAddr: 0x63C7C, symSize: 0x60 }
  - { offset: 0x11D9BA, size: 0x8, addend: 0x0, symName: __ZN6wellen7wavemem6States4mask17he0c3c45a97f23407E, symObjAddr: 0xA8, symBinAddr: 0x63CDC, symSize: 0x60 }
  - { offset: 0x11D9FB, size: 0x8, addend: 0x0, symName: '__ZN4core5slice29_$LT$impl$u20$$u5b$T$u5d$$GT$13binary_search17hbaed55f24836fe4dE', symObjAddr: 0x0, symBinAddr: 0x63D3C, symSize: 0x30 }
  - { offset: 0x11DA6C, size: 0x8, addend: 0x0, symName: '__ZN4core5slice29_$LT$impl$u20$$u5b$T$u5d$$GT$13binary_search17hbaed55f24836fe4dE', symObjAddr: 0x0, symBinAddr: 0x63D3C, symSize: 0x30 }
  - { offset: 0x11DAB7, size: 0x8, addend: 0x0, symName: '__ZN4core5slice29_$LT$impl$u20$$u5b$T$u5d$$GT$13binary_search28_$u7b$$u7b$closure$u7d$$u7d$17he9e4b76cf7323661E', symObjAddr: 0x30, symBinAddr: 0x63D6C, symSize: 0x38 }
  - { offset: 0x11DB50, size: 0x8, addend: 0x0, symName: '__ZN4core5slice29_$LT$impl$u20$$u5b$T$u5d$$GT$16binary_search_by17h0a5fef4b3bd35c83E', symObjAddr: 0x68, symBinAddr: 0x63DA4, symSize: 0x320 }
  - { offset: 0x11DF32, size: 0x8, addend: 0x0, symName: '__ZN4core5slice29_$LT$impl$u20$$u5b$T$u5d$$GT$3get17hda4fde8f20b40c6bE', symObjAddr: 0x388, symBinAddr: 0x640C4, symSize: 0x44 }
  - { offset: 0x11DF81, size: 0x8, addend: 0x0, symName: '__ZN4core5slice29_$LT$impl$u20$$u5b$T$u5d$$GT$3get17hdb3359c13acbbf61E', symObjAddr: 0x3CC, symBinAddr: 0x64108, symSize: 0x44 }
  - { offset: 0x11DFD0, size: 0x8, addend: 0x0, symName: '__ZN4core5slice29_$LT$impl$u20$$u5b$T$u5d$$GT$4iter17h81a07c35faf6d2c5E', symObjAddr: 0x410, symBinAddr: 0x6414C, symSize: 0x28 }
  - { offset: 0x11E007, size: 0x8, addend: 0x0, symName: '__ZN4core5slice29_$LT$impl$u20$$u5b$T$u5d$$GT$4last17h9be92c2bbcd7236eE', symObjAddr: 0x438, symBinAddr: 0x64174, symSize: 0x50 }
  - { offset: 0x11E054, size: 0x8, addend: 0x0, symName: '__ZN4core5slice29_$LT$impl$u20$$u5b$T$u5d$$GT$5first17h906ab70160feada5E', symObjAddr: 0x488, symBinAddr: 0x641C4, symSize: 0x44 }
  - { offset: 0x11E09E, size: 0x8, addend: 0x0, symName: '__ZN4core5slice29_$LT$impl$u20$$u5b$T$u5d$$GT$5split17h3c0ac874c3b2de70E', symObjAddr: 0x4CC, symBinAddr: 0x64208, symSize: 0x24 }
  - { offset: 0x11E10B, size: 0x8, addend: 0x0, symName: '__ZN4core5slice29_$LT$impl$u20$$u5b$T$u5d$$GT$8is_empty17hbcba1180120c8163E', symObjAddr: 0x4F0, symBinAddr: 0x6422C, symSize: 0x1C }
  - { offset: 0x11E948, size: 0x8, addend: 0x0, symName: '__ZN100_$LT$pyo3..pycell..impl_..MutableClass$u20$as$u20$pyo3..pycell..impl_..GetBorrowChecker$LT$T$GT$$GT$14borrow_checker17ha5d8c38b0640793cE', symObjAddr: 0x0, symBinAddr: 0x64248, symSize: 0x14 }
  - { offset: 0x11F8AB, size: 0x8, addend: 0x0, symName: '__ZN100_$LT$pyo3..pycell..impl_..MutableClass$u20$as$u20$pyo3..pycell..impl_..GetBorrowChecker$LT$T$GT$$GT$14borrow_checker17ha5d8c38b0640793cE', symObjAddr: 0x0, symBinAddr: 0x64248, symSize: 0x14 }
